
xinu.elf:     file format elf32-littlearm


Disassembly of section .init:

00010000 <_start>:
   10000:	e59f304c 	ldr	r3, [pc, #76]	; 10054 <_endvectors>
   10004:	e3520000 	cmp	r2, #0
   10008:	03a02c01 	moveq	r2, #256	; 0x100
   1000c:	e5832000 	str	r2, [r3]
   10010:	ea00001a 	b	10080 <reset_handler>

00010014 <_vectors>:
   10014:	e59ff018 	ldr	pc, [pc, #24]	; 10034 <reset_addr>
   10018:	e59ff018 	ldr	pc, [pc, #24]	; 10038 <undef_addr>
   1001c:	e59ff018 	ldr	pc, [pc, #24]	; 1003c <swi_addr>
   10020:	e59ff018 	ldr	pc, [pc, #24]	; 10040 <prefetch_addr>
   10024:	e59ff018 	ldr	pc, [pc, #24]	; 10044 <abort_addr>
   10028:	e59ff018 	ldr	pc, [pc, #24]	; 10048 <reserved_addr>
   1002c:	e59ff018 	ldr	pc, [pc, #24]	; 1004c <irq_addr>
   10030:	e59ff018 	ldr	pc, [pc, #24]	; 10050 <fiq_addr>

00010034 <reset_addr>:
   10034:	00010080 	.word	0x00010080

00010038 <undef_addr>:
   10038:	00010080 	.word	0x00010080

0001003c <swi_addr>:
   1003c:	00010080 	.word	0x00010080

00010040 <prefetch_addr>:
   10040:	00010080 	.word	0x00010080

00010044 <abort_addr>:
   10044:	00010080 	.word	0x00010080

00010048 <reserved_addr>:
   10048:	00010080 	.word	0x00010080

0001004c <irq_addr>:
   1004c:	00010134 	.word	0x00010134

00010050 <fiq_addr>:
   10050:	00010080 	.word	0x00010080

00010054 <_endvectors>:
   10054:	0001ff40 	.word	0x0001ff40

Disassembly of section .text:

00010080 <reset_handler>:
   10080:	f10e00df 	cpsid	if,#31
   10084:	e3a00000 	mov	r0, #0
   10088:	e59f1050 	ldr	r1, [pc, #80]	; 100e0 <bssloopa+0x18>
   1008c:	e8b103fc 	ldm	r1!, {r2, r3, r4, r5, r6, r7, r8, r9}
   10090:	e8a003fc 	stmia	r0!, {r2, r3, r4, r5, r6, r7, r8, r9}
   10094:	e8b103fc 	ldm	r1!, {r2, r3, r4, r5, r6, r7, r8, r9}
   10098:	e8a003fc 	stmia	r0!, {r2, r3, r4, r5, r6, r7, r8, r9}
   1009c:	ee110f10 	mrc	15, 0, r0, cr1, cr0, {0}
   100a0:	e3800501 	orr	r0, r0, #4194304	; 0x400000
   100a4:	ee010f10 	mcr	15, 0, r0, cr1, cr0, {0}
   100a8:	e59f0034 	ldr	r0, [pc, #52]	; 100e4 <bssloopa+0x1c>
   100ac:	e59f1034 	ldr	r1, [pc, #52]	; 100e8 <bssloopa+0x20>
   100b0:	e3a02000 	mov	r2, #0
   100b4:	e3a03000 	mov	r3, #0
   100b8:	e3a04000 	mov	r4, #0
   100bc:	e3a05000 	mov	r5, #0
   100c0:	ea000000 	b	100c8 <bssloopa>

000100c4 <bssloopb>:
   100c4:	e8a0003c 	stmia	r0!, {r2, r3, r4, r5}

000100c8 <bssloopa>:
   100c8:	e1500001 	cmp	r0, r1
   100cc:	3afffffc 	bcc	100c4 <bssloopb>
   100d0:	e281da02 	add	sp, r1, #8192	; 0x2000
   100d4:	e59f0010 	ldr	r0, [pc, #16]	; 100ec <bssloopa+0x24>
   100d8:	e580d000 	str	sp, [r0]
   100dc:	ea0000e6 	b	1047c <nulluser>
   100e0:	00010014 	.word	0x00010014
   100e4:	00020680 	.word	0x00020680
   100e8:	00025240 	.word	0x00025240
   100ec:	00020704 	.word	0x00020704

000100f0 <ctxsw>:
   100f0:	e10fc000 	mrs	ip, CPSR
   100f4:	e92d7fff 	push	{r0, r1, r2, r3, r4, r5, r6, r7, r8, r9, sl, fp, ip, sp, lr}
   100f8:	e580d000 	str	sp, [r0]
   100fc:	e591d000 	ldr	sp, [r1]
   10100:	e8bd1fff 	pop	{r0, r1, r2, r3, r4, r5, r6, r7, r8, r9, sl, fp, ip}
   10104:	e121f00c 	msr	CPSR_c, ip
   10108:	e8bdc000 	pop	{lr, pc}

0001010c <halt>:
   1010c:	e321f0c0 	msr	CPSR_c, #192	; 0xc0
   10110:	e320f003 	wfi
   10114:	eafffffc 	b	1010c <halt>

00010118 <enable>:
   10118:	f1080080 	cpsie	i
   1011c:	e1a0f00e 	mov	pc, lr

00010120 <disable>:
   10120:	e10f0000 	mrs	r0, CPSR
   10124:	f10c0080 	cpsid	i
   10128:	e1a0f00e 	mov	pc, lr

0001012c <restore>:
   1012c:	e121f000 	msr	CPSR_c, r0
   10130:	e1a0f00e 	mov	pc, lr

00010134 <irq_handler>:
   10134:	e24ee004 	sub	lr, lr, #4
   10138:	f96d051f 	srsdb	sp!, #31
   1013c:	f10e00df 	cpsid	if,#31
   10140:	e92d501f 	push	{r0, r1, r2, r3, r4, ip, lr}
   10144:	e20d4004 	and	r4, sp, #4
   10148:	e04dd004 	sub	sp, sp, r4
   1014c:	eb000004 	bl	10164 <dmb>
   10150:	eb000053 	bl	102a4 <dispatch>
   10154:	eb000002 	bl	10164 <dmb>
   10158:	e08dd004 	add	sp, sp, r4
   1015c:	e8bd501f 	pop	{r0, r1, r2, r3, r4, ip, lr}
   10160:	f8bd0a00 	rfeia	sp!

00010164 <dmb>:
   10164:	e3a0c000 	mov	ip, #0
   10168:	ee07cfba 	mcr	15, 0, ip, cr7, cr10, {5}
   1016c:	e1a0f00e 	mov	pc, lr

00010170 <pause>:
   10170:	e320f003 	wfi
   10174:	e1a0f00e 	mov	pc, lr

00010178 <platforminit>:
   10178:	e92d4038 	push	{r3, r4, r5, lr}
   1017c:	e59f40e4 	ldr	r4, [pc, #228]	; 10268 <platforminit+0xf0>
   10180:	e59f10e4 	ldr	r1, [pc, #228]	; 1026c <platforminit+0xf4>
   10184:	e3a02012 	mov	r2, #18
   10188:	e59f00e0 	ldr	r0, [pc, #224]	; 10270 <platforminit+0xf8>
   1018c:	eb002ef4 	bl	1bd64 <strlcpy>
   10190:	e3a02012 	mov	r2, #18
   10194:	e1a00004 	mov	r0, r4
   10198:	e59f10d4 	ldr	r1, [pc, #212]	; 10274 <platforminit+0xfc>
   1019c:	eb002ef0 	bl	1bd64 <strlcpy>
   101a0:	e3e0333d 	mvn	r3, #-201326592	; 0xf4000000
   101a4:	e5843028 	str	r3, [r4, #40]	; 0x28
   101a8:	e59f30c8 	ldr	r3, [pc, #200]	; 10278 <platforminit+0x100>
   101ac:	e3a02000 	mov	r2, #0
   101b0:	e584302c 	str	r3, [r4, #44]	; 0x2c
   101b4:	e59f30c0 	ldr	r3, [pc, #192]	; 1027c <platforminit+0x104>
   101b8:	e59fe0c0 	ldr	lr, [pc, #192]	; 10280 <platforminit+0x108>
   101bc:	e593c000 	ldr	ip, [r3]
   101c0:	e59f50bc 	ldr	r5, [pc, #188]	; 10284 <platforminit+0x10c>
   101c4:	e5842034 	str	r2, [r4, #52]	; 0x34
   101c8:	e5842038 	str	r2, [r4, #56]	; 0x38
   101cc:	e1a0300c 	mov	r3, ip
   101d0:	e3a00000 	mov	r0, #0
   101d4:	ea000012 	b	10224 <platforminit+0xac>
   101d8:	e151000e 	cmp	r1, lr
   101dc:	0a000002 	beq	101ec <platforminit+0x74>
   101e0:	e1510005 	cmp	r1, r5
   101e4:	1a00000c 	bne	1021c <platforminit+0xa4>
   101e8:	ea000007 	b	1020c <platforminit+0x94>
   101ec:	e593100c 	ldr	r1, [r3, #12]
   101f0:	e1520001 	cmp	r2, r1
   101f4:	1a000008 	bne	1021c <platforminit+0xa4>
   101f8:	e5931008 	ldr	r1, [r3, #8]
   101fc:	e3510000 	cmp	r1, #0
   10200:	10822001 	addne	r2, r2, r1
   10204:	13a00001 	movne	r0, #1
   10208:	ea000003 	b	1021c <platforminit+0xa4>
   1020c:	e5931008 	ldr	r1, [r3, #8]
   10210:	e5841034 	str	r1, [r4, #52]	; 0x34
   10214:	e593100c 	ldr	r1, [r3, #12]
   10218:	e5841038 	str	r1, [r4, #56]	; 0x38
   1021c:	e5931000 	ldr	r1, [r3]
   10220:	e0833101 	add	r3, r3, r1, lsl #2
   10224:	e5931000 	ldr	r1, [r3]
   10228:	e3510002 	cmp	r1, #2
   1022c:	8a000002 	bhi	1023c <platforminit+0xc4>
   10230:	e3500000 	cmp	r0, #0
   10234:	1affffe4 	bne	101cc <platforminit+0x54>
   10238:	ea000003 	b	1024c <platforminit+0xd4>
   1023c:	e5931004 	ldr	r1, [r3, #4]
   10240:	e3510000 	cmp	r1, #0
   10244:	1affffe3 	bne	101d8 <platforminit+0x60>
   10248:	eafffff8 	b	10230 <platforminit+0xb8>
   1024c:	e59f3034 	ldr	r3, [pc, #52]	; 10288 <platforminit+0x110>
   10250:	e1520003 	cmp	r2, r3
   10254:	259f300c 	ldrcs	r3, [pc, #12]	; 10268 <platforminit+0xf0>
   10258:	25832028 	strcs	r2, [r3, #40]	; 0x28
   1025c:	eb000048 	bl	10384 <sp804_init>
   10260:	e3a00001 	mov	r0, #1
   10264:	e8bd8038 	pop	{r3, r4, r5, pc}
   10268:	00020708 	.word	0x00020708
   1026c:	0001c770 	.word	0x0001c770
   10270:	0002071a 	.word	0x0002071a
   10274:	0001c780 	.word	0x0001c780
   10278:	000f4240 	.word	0x000f4240
   1027c:	0001ff40 	.word	0x0001ff40
   10280:	54410002 	.word	0x54410002
   10284:	54410006 	.word	0x54410006
   10288:	00025240 	.word	0x00025240

0001028c <enable_irq>:
   1028c:	e3a03001 	mov	r3, #1
   10290:	e1a00013 	lsl	r0, r3, r0
   10294:	e59f2004 	ldr	r2, [pc, #4]	; 102a0 <enable_irq+0x14>
   10298:	e5820010 	str	r0, [r2, #16]
   1029c:	e12fff1e 	bx	lr
   102a0:	10140000 	.word	0x10140000

000102a4 <dispatch>:
   102a4:	e92d40f8 	push	{r3, r4, r5, r6, r7, lr}
   102a8:	e59f3024 	ldr	r3, [pc, #36]	; 102d4 <dispatch+0x30>
   102ac:	e59f7024 	ldr	r7, [pc, #36]	; 102d8 <dispatch+0x34>
   102b0:	e5934000 	ldr	r4, [r3]
   102b4:	e3a06001 	mov	r6, #1
   102b8:	e16f5f14 	clz	r5, r4
   102bc:	e265501f 	rsb	r5, r5, #31
   102c0:	e7973105 	ldr	r3, [r7, r5, lsl #2]
   102c4:	e12fff33 	blx	r3
   102c8:	e0344516 	eors	r4, r4, r6, lsl r5
   102cc:	1afffff9 	bne	102b8 <dispatch+0x14>
   102d0:	e8bd80f8 	pop	{r3, r4, r5, r6, r7, pc}
   102d4:	10140000 	.word	0x10140000
   102d8:	00020680 	.word	0x00020680

000102dc <setupStack>:
   102dc:	e3530004 	cmp	r3, #4
   102e0:	e92d45f0 	push	{r4, r5, r6, r7, r8, sl, lr}
   102e4:	82434004 	subhi	r4, r3, #4
   102e8:	81a0c104 	lslhi	ip, r4, #2
   102ec:	806cc000 	rsbhi	ip, ip, r0
   102f0:	91a0c000 	movls	ip, r0
   102f4:	e59d701c 	ldr	r7, [sp, #28]
   102f8:	83a03004 	movhi	r3, #4
   102fc:	93a04000 	movls	r4, #0
   10300:	e31c0004 	tst	ip, #4
   10304:	124cc004 	subne	ip, ip, #4
   10308:	e1a05103 	lsl	r5, r3, #2
   1030c:	e1a06007 	mov	r6, r7
   10310:	e24c003c 	sub	r0, ip, #60	; 0x3c
   10314:	e24c8040 	sub	r8, ip, #64	; 0x40
   10318:	e0877005 	add	r7, r7, r5
   1031c:	ea000001 	b	10328 <setupStack+0x4c>
   10320:	e496a004 	ldr	sl, [r6], #4
   10324:	e5a8a004 	str	sl, [r8, #4]!
   10328:	e1560007 	cmp	r6, r7
   1032c:	1afffffb 	bne	10320 <setupStack+0x44>
   10330:	e08c5005 	add	r5, ip, r5
   10334:	e3a06000 	mov	r6, #0
   10338:	ea000001 	b	10344 <setupStack+0x68>
   1033c:	e5056040 	str	r6, [r5, #-64]	; 0x40
   10340:	e2833001 	add	r3, r3, #1
   10344:	e353000b 	cmp	r3, #11
   10348:	e2855004 	add	r5, r5, #4
   1034c:	9afffffa 	bls	1033c <setupStack+0x60>
   10350:	e3a0305f 	mov	r3, #95	; 0x5f
   10354:	e50c2008 	str	r2, [ip, #-8]
   10358:	e50c300c 	str	r3, [ip, #-12]
   1035c:	e50c1004 	str	r1, [ip, #-4]
   10360:	e1a04104 	lsl	r4, r4, #2
   10364:	e3a02000 	mov	r2, #0
   10368:	ea000002 	b	10378 <setupStack+0x9c>
   1036c:	e7973002 	ldr	r3, [r7, r2]
   10370:	e78c3002 	str	r3, [ip, r2]
   10374:	e2822004 	add	r2, r2, #4
   10378:	e1520004 	cmp	r2, r4
   1037c:	1afffffa 	bne	1036c <setupStack+0x90>
   10380:	e8bd85f0 	pop	{r4, r5, r6, r7, r8, sl, pc}

00010384 <sp804_init>:
   10384:	e59f3008 	ldr	r3, [pc, #8]	; 10394 <sp804_init+0x10>
   10388:	e3a02082 	mov	r2, #130	; 0x82
   1038c:	e5832028 	str	r2, [r3, #40]	; 0x28
   10390:	e12fff1e 	bx	lr
   10394:	101e2000 	.word	0x101e2000

00010398 <clkcount>:
   10398:	e59f3008 	ldr	r3, [pc, #8]	; 103a8 <clkcount+0x10>
   1039c:	e5930024 	ldr	r0, [r3, #36]	; 0x24
   103a0:	e1e00000 	mvn	r0, r0
   103a4:	e12fff1e 	bx	lr
   103a8:	101e2000 	.word	0x101e2000

000103ac <clkupdate>:
   103ac:	e59f3014 	ldr	r3, [pc, #20]	; 103c8 <clkupdate+0x1c>
   103b0:	e3a02000 	mov	r2, #0
   103b4:	e583200c 	str	r2, [r3, #12]
   103b8:	e3a020a3 	mov	r2, #163	; 0xa3
   103bc:	e5830000 	str	r0, [r3]
   103c0:	e5832008 	str	r2, [r3, #8]
   103c4:	e12fff1e 	bx	lr
   103c8:	101e2000 	.word	0x101e2000

000103cc <cadance_uart_init>:
   103cc:	e3a03020 	mov	r3, #32
   103d0:	e5803004 	str	r3, [r0, #4]
   103d4:	e5903000 	ldr	r3, [r0]
   103d8:	e3c33004 	bic	r3, r3, #4
   103dc:	e5803000 	str	r3, [r0]
   103e0:	e5903000 	ldr	r3, [r0]
   103e4:	e3833008 	orr	r3, r3, #8
   103e8:	e5803000 	str	r3, [r0]
   103ec:	e5903000 	ldr	r3, [r0]
   103f0:	e3c33010 	bic	r3, r3, #16
   103f4:	e5803000 	str	r3, [r0]
   103f8:	e5903000 	ldr	r3, [r0]
   103fc:	e3833020 	orr	r3, r3, #32
   10400:	e5803000 	str	r3, [r0]
   10404:	e3a0303e 	mov	r3, #62	; 0x3e
   10408:	e5803018 	str	r3, [r0, #24]
   1040c:	e3a03006 	mov	r3, #6
   10410:	e5803034 	str	r3, [r0, #52]	; 0x34
   10414:	e5903000 	ldr	r3, [r0]
   10418:	e3833002 	orr	r3, r3, #2
   1041c:	e5803000 	str	r3, [r0]
   10420:	e5903000 	ldr	r3, [r0]
   10424:	e3833001 	orr	r3, r3, #1
   10428:	e5803000 	str	r3, [r0]
   1042c:	e5903000 	ldr	r3, [r0]
   10430:	e3833004 	orr	r3, r3, #4
   10434:	e5803000 	str	r3, [r0]
   10438:	e5903000 	ldr	r3, [r0]
   1043c:	e3c33008 	bic	r3, r3, #8
   10440:	e5803000 	str	r3, [r0]
   10444:	e5903000 	ldr	r3, [r0]
   10448:	e3833010 	orr	r3, r3, #16
   1044c:	e5803000 	str	r3, [r0]
   10450:	e5903000 	ldr	r3, [r0]
   10454:	e3c33020 	bic	r3, r3, #32
   10458:	e5803000 	str	r3, [r0]
   1045c:	e3a03008 	mov	r3, #8
   10460:	e5803020 	str	r3, [r0, #32]
   10464:	e59f300c 	ldr	r3, [pc, #12]	; 10478 <cadance_uart_init+0xac>
   10468:	e5803000 	str	r3, [r0]
   1046c:	e3a030c8 	mov	r3, #200	; 0xc8
   10470:	e580301c 	str	r3, [r0, #28]
   10474:	e12fff1e 	bx	lr
   10478:	00000117 	.word	0x00000117

0001047c <nulluser>:
   1047c:	e92d40f7 	push	{r0, r1, r2, r4, r5, r6, r7, lr}
   10480:	e3a0020e 	mov	r0, #-536870912	; 0xe0000000
   10484:	ebffffd0 	bl	103cc <cadance_uart_init>
   10488:	e59f0178 	ldr	r0, [pc, #376]	; 10608 <nulluser+0x18c>
   1048c:	eb000ac0 	bl	12f94 <kprintf>
   10490:	ebffff38 	bl	10178 <platforminit>
   10494:	e59f3170 	ldr	r3, [pc, #368]	; 1060c <nulluser+0x190>
   10498:	e3a02001 	mov	r2, #1
   1049c:	e5832000 	str	r2, [r3]
   104a0:	e5932004 	ldr	r2, [r3, #4]
   104a4:	e5931030 	ldr	r1, [r3, #48]	; 0x30
   104a8:	e2822007 	add	r2, r2, #7
   104ac:	e3c22007 	bic	r2, r2, #7
   104b0:	e3c11007 	bic	r1, r1, #7
   104b4:	e5831030 	str	r1, [r3, #48]	; 0x30
   104b8:	e0621001 	rsb	r1, r2, r1
   104bc:	e5831048 	str	r1, [r3, #72]	; 0x48
   104c0:	e3a01000 	mov	r1, #0
   104c4:	e5832004 	str	r2, [r3, #4]
   104c8:	e5832044 	str	r2, [r3, #68]	; 0x44
   104cc:	e5821000 	str	r1, [r2]
   104d0:	e5930030 	ldr	r0, [r3, #48]	; 0x30
   104d4:	e5933004 	ldr	r3, [r3, #4]
   104d8:	e0633000 	rsb	r3, r3, r0
   104dc:	e5823004 	str	r3, [r2, #4]
   104e0:	e59f2128 	ldr	r2, [pc, #296]	; 10610 <nulluser+0x194>
   104e4:	e1a03001 	mov	r3, r1
   104e8:	e3a00002 	mov	r0, #2
   104ec:	e59f4118 	ldr	r4, [pc, #280]	; 1060c <nulluser+0x190>
   104f0:	e284104c 	add	r1, r4, #76	; 0x4c
   104f4:	e7c30001 	strb	r0, [r3, r1]
   104f8:	e2833054 	add	r3, r3, #84	; 0x54
   104fc:	e1530002 	cmp	r3, r2
   10500:	1afffff9 	bne	104ec <nulluser+0x70>
   10504:	e3a05000 	mov	r5, #0
   10508:	e3a06001 	mov	r6, #1
   1050c:	e5c4604c 	strb	r6, [r4, #76]	; 0x4c
   10510:	e5845050 	str	r5, [r4, #80]	; 0x50
   10514:	e2840060 	add	r0, r4, #96	; 0x60
   10518:	e3a02010 	mov	r2, #16
   1051c:	e59f10f0 	ldr	r1, [pc, #240]	; 10614 <nulluser+0x198>
   10520:	eb002e0f 	bl	1bd64 <strlcpy>
   10524:	e59f30ec 	ldr	r3, [pc, #236]	; 10618 <nulluser+0x19c>
   10528:	e5942004 	ldr	r2, [r4, #4]
   1052c:	e5843058 	str	r3, [r4, #88]	; 0x58
   10530:	e0633002 	rsb	r3, r3, r2
   10534:	e584305c 	str	r3, [r4, #92]	; 0x5c
   10538:	e5845054 	str	r5, [r4, #84]	; 0x54
   1053c:	e5845084 	str	r5, [r4, #132]	; 0x84
   10540:	e5845088 	str	r5, [r4, #136]	; 0x88
   10544:	e59f40d0 	ldr	r4, [pc, #208]	; 1061c <nulluser+0x1a0>
   10548:	e5845124 	str	r5, [r4, #292]	; 0x124
   1054c:	e2844f4a 	add	r4, r4, #296	; 0x128
   10550:	e2847e4b 	add	r7, r4, #1200	; 0x4b0
   10554:	e5c46000 	strb	r6, [r4]
   10558:	eb0001ba 	bl	10c48 <queinit>
   1055c:	e5840008 	str	r0, [r4, #8]
   10560:	e284400c 	add	r4, r4, #12
   10564:	e1540007 	cmp	r4, r7
   10568:	e3a05001 	mov	r5, #1
   1056c:	1afffff8 	bne	10554 <nulluser+0xd8>
   10570:	e59f40a4 	ldr	r4, [pc, #164]	; 1061c <nulluser+0x1a0>
   10574:	e3a0703c 	mov	r7, #60	; 0x3c
   10578:	e5c455d8 	strb	r5, [r4, #1496]	; 0x5d8
   1057c:	e5c455f0 	strb	r5, [r4, #1520]	; 0x5f0
   10580:	e5c45608 	strb	r5, [r4, #1544]	; 0x608
   10584:	e5c45620 	strb	r5, [r4, #1568]	; 0x620
   10588:	e5c45638 	strb	r5, [r4, #1592]	; 0x638
   1058c:	e5c45650 	strb	r5, [r4, #1616]	; 0x650
   10590:	e5c45668 	strb	r5, [r4, #1640]	; 0x668
   10594:	e5c45680 	strb	r5, [r4, #1664]	; 0x680
   10598:	eb0001aa 	bl	10c48 <queinit>
   1059c:	e5840698 	str	r0, [r4, #1688]	; 0x698
   105a0:	eb000206 	bl	10dc0 <clkinit>
   105a4:	eb000be3 	bl	13538 <mailboxInit>
   105a8:	e59f5070 	ldr	r5, [pc, #112]	; 10620 <nulluser+0x1a4>
   105ac:	e3a04000 	mov	r4, #0
   105b0:	e1a06005 	mov	r6, r5
   105b4:	e595300c 	ldr	r3, [r5, #12]
   105b8:	e0206497 	mla	r0, r7, r4, r6
   105bc:	e2844001 	add	r4, r4, #1
   105c0:	e12fff33 	blx	r3
   105c4:	e3540005 	cmp	r4, #5
   105c8:	e285503c 	add	r5, r5, #60	; 0x3c
   105cc:	1afffff8 	bne	105b4 <nulluser+0x138>
   105d0:	ebfffed0 	bl	10118 <enable>
   105d4:	e3a03000 	mov	r3, #0
   105d8:	e58d3000 	str	r3, [sp]
   105dc:	e3a01801 	mov	r1, #65536	; 0x10000
   105e0:	e3a02014 	mov	r2, #20
   105e4:	e59f3038 	ldr	r3, [pc, #56]	; 10624 <nulluser+0x1a8>
   105e8:	e59f0038 	ldr	r0, [pc, #56]	; 10628 <nulluser+0x1ac>
   105ec:	eb00004a 	bl	1071c <create>
   105f0:	e3a01001 	mov	r1, #1
   105f4:	eb0000f2 	bl	109c4 <ready>
   105f8:	e59f002c 	ldr	r0, [pc, #44]	; 1062c <nulluser+0x1b0>
   105fc:	eb000a64 	bl	12f94 <kprintf>
   10600:	ebfffeda 	bl	10170 <pause>
   10604:	eafffffd 	b	10600 <nulluser+0x184>
   10608:	0001c789 	.word	0x0001c789
   1060c:	00020700 	.word	0x00020700
   10610:	000020d0 	.word	0x000020d0
   10614:	0001c796 	.word	0x0001c796
   10618:	00025240 	.word	0x00025240
   1061c:	000226f8 	.word	0x000226f8
   10620:	0001fb88 	.word	0x0001fb88
   10624:	0001c79d 	.word	0x0001c79d
   10628:	0001b194 	.word	0x0001b194
   1062c:	0001c7a2 	.word	0x0001c7a2

00010630 <enqueue>:
   10630:	e3510000 	cmp	r1, #0
   10634:	e92d4030 	push	{r4, r5, lr}
   10638:	ba000014 	blt	10690 <enqueue+0x60>
   1063c:	e2811001 	add	r1, r1, #1
   10640:	e3510e13 	cmp	r1, #304	; 0x130
   10644:	aa000011 	bge	10690 <enqueue+0x60>
   10648:	e3500063 	cmp	r0, #99	; 0x63
   1064c:	8a00000f 	bhi	10690 <enqueue+0x60>
   10650:	e3a03054 	mov	r3, #84	; 0x54
   10654:	e0030093 	mul	r3, r3, r0
   10658:	e59f2038 	ldr	r2, [pc, #56]	; 10698 <enqueue+0x68>
   1065c:	e7d23003 	ldrb	r3, [r2, r3]
   10660:	e3530002 	cmp	r3, #2
   10664:	0a000009 	beq	10690 <enqueue+0x60>
   10668:	e59f302c 	ldr	r3, [pc, #44]	; 1069c <enqueue+0x6c>
   1066c:	e3a0200c 	mov	r2, #12
   10670:	e02c3192 	mla	ip, r2, r1, r3
   10674:	e59c4008 	ldr	r4, [ip, #8]
   10678:	e0253092 	mla	r5, r2, r0, r3
   1067c:	e0233492 	mla	r3, r2, r4, r3
   10680:	e9850012 	stmib	r5, {r1, r4}
   10684:	e5830004 	str	r0, [r3, #4]
   10688:	e58c0008 	str	r0, [ip, #8]
   1068c:	e8bd8030 	pop	{r4, r5, pc}
   10690:	e3e00000 	mvn	r0, #0
   10694:	e8bd8030 	pop	{r4, r5, pc}
   10698:	0002074c 	.word	0x0002074c
   1069c:	00022d9c 	.word	0x00022d9c

000106a0 <dequeue>:
   106a0:	e92d4038 	push	{r3, r4, r5, lr}
   106a4:	e2503000 	subs	r3, r0, #0
   106a8:	ba000015 	blt	10704 <dequeue+0x64>
   106ac:	e2832001 	add	r2, r3, #1
   106b0:	e3520e13 	cmp	r2, #304	; 0x130
   106b4:	aa000012 	bge	10704 <dequeue+0x64>
   106b8:	e59f4054 	ldr	r4, [pc, #84]	; 10714 <dequeue+0x74>
   106bc:	e3a0500c 	mov	r5, #12
   106c0:	e0234395 	mla	r3, r5, r3, r4
   106c4:	e5933004 	ldr	r3, [r3, #4]
   106c8:	e3530063 	cmp	r3, #99	; 0x63
   106cc:	ca00000e 	bgt	1070c <dequeue+0x6c>
   106d0:	eb00014b 	bl	10c04 <getfirst>
   106d4:	e3500063 	cmp	r0, #99	; 0x63
   106d8:	88bd8038 	pophi	{r3, r4, r5, pc}
   106dc:	e3a03054 	mov	r3, #84	; 0x54
   106e0:	e0030093 	mul	r3, r3, r0
   106e4:	e59f202c 	ldr	r2, [pc, #44]	; 10718 <dequeue+0x78>
   106e8:	e7d23003 	ldrb	r3, [r2, r3]
   106ec:	e3530002 	cmp	r3, #2
   106f0:	10244095 	mlane	r4, r5, r0, r4
   106f4:	13e03001 	mvnne	r3, #1
   106f8:	15843008 	strne	r3, [r4, #8]
   106fc:	15843004 	strne	r3, [r4, #4]
   10700:	e8bd8038 	pop	{r3, r4, r5, pc}
   10704:	e3e00000 	mvn	r0, #0
   10708:	e8bd8038 	pop	{r3, r4, r5, pc}
   1070c:	e3e00001 	mvn	r0, #1
   10710:	e8bd8038 	pop	{r3, r4, r5, pc}
   10714:	00022d9c 	.word	0x00022d9c
   10718:	0002074c 	.word	0x0002074c

0001071c <create>:
   1071c:	e92d4ff0 	push	{r4, r5, r6, r7, r8, r9, sl, fp, lr}
   10720:	e24dd024 	sub	sp, sp, #36	; 0x24
   10724:	e1a06001 	mov	r6, r1
   10728:	e1a0b002 	mov	fp, r2
   1072c:	e1a09003 	mov	r9, r3
   10730:	e1a0a000 	mov	sl, r0
   10734:	ebfffe79 	bl	10120 <disable>
   10738:	e356007f 	cmp	r6, #127	; 0x7f
   1073c:	93a06080 	movls	r6, #128	; 0x80
   10740:	e1a08000 	mov	r8, r0
   10744:	e1a00006 	mov	r0, r6
   10748:	eb0003bb 	bl	1163c <stkget>
   1074c:	e3700001 	cmn	r0, #1
   10750:	e1a07000 	mov	r7, r0
   10754:	1a000003 	bne	10768 <create+0x4c>
   10758:	e1a00008 	mov	r0, r8
   1075c:	ebfffe72 	bl	1012c <restore>
   10760:	e1a05007 	mov	r5, r7
   10764:	ea000046 	b	10884 <create+0x168>
   10768:	e59f3120 	ldr	r3, [pc, #288]	; 10890 <create+0x174>
   1076c:	e59f2120 	ldr	r2, [pc, #288]	; 10894 <create+0x178>
   10770:	e5935000 	ldr	r5, [r3]
   10774:	e3a0c054 	mov	ip, #84	; 0x54
   10778:	e3a03064 	mov	r3, #100	; 0x64
   1077c:	e2850001 	add	r0, r5, #1
   10780:	e3a01064 	mov	r1, #100	; 0x64
   10784:	e58d2010 	str	r2, [sp, #16]
   10788:	e58d3014 	str	r3, [sp, #20]
   1078c:	e58dc00c 	str	ip, [sp, #12]
   10790:	eb002fed 	bl	1c74c <__aeabi_idivmod>
   10794:	e59dc00c 	ldr	ip, [sp, #12]
   10798:	e1a05001 	mov	r5, r1
   1079c:	e001019c 	mul	r1, ip, r1
   107a0:	e59d2010 	ldr	r2, [sp, #16]
   107a4:	e59d3014 	ldr	r3, [sp, #20]
   107a8:	e0824001 	add	r4, r2, r1
   107ac:	e7d21001 	ldrb	r1, [r2, r1]
   107b0:	e3510002 	cmp	r1, #2
   107b4:	0a00000c 	beq	107ec <create+0xd0>
   107b8:	e2533001 	subs	r3, r3, #1
   107bc:	1affffee 	bne	1077c <create+0x60>
   107c0:	e59f30c8 	ldr	r3, [pc, #200]	; 10890 <create+0x174>
   107c4:	e5835000 	str	r5, [r3]
   107c8:	e2866007 	add	r6, r6, #7
   107cc:	e3c61007 	bic	r1, r6, #7
   107d0:	e2870004 	add	r0, r7, #4
   107d4:	e0610000 	rsb	r0, r1, r0
   107d8:	eb000355 	bl	11534 <memfree>
   107dc:	e1a00008 	mov	r0, r8
   107e0:	ebfffe51 	bl	1012c <restore>
   107e4:	e3e05000 	mvn	r5, #0
   107e8:	ea000025 	b	10884 <create+0x168>
   107ec:	e59f309c 	ldr	r3, [pc, #156]	; 10890 <create+0x174>
   107f0:	e3750001 	cmn	r5, #1
   107f4:	e5835000 	str	r5, [r3]
   107f8:	0afffff2 	beq	107c8 <create+0xac>
   107fc:	e59f3094 	ldr	r3, [pc, #148]	; 10898 <create+0x17c>
   10800:	e1a01009 	mov	r1, r9
   10804:	e5932000 	ldr	r2, [r3]
   10808:	e584b004 	str	fp, [r4, #4]
   1080c:	e2822001 	add	r2, r2, #1
   10810:	e5832000 	str	r2, [r3]
   10814:	e3a03006 	mov	r3, #6
   10818:	e5c43000 	strb	r3, [r4]
   1081c:	e3a02010 	mov	r2, #16
   10820:	e584700c 	str	r7, [r4, #12]
   10824:	e5846010 	str	r6, [r4, #16]
   10828:	e2840014 	add	r0, r4, #20
   1082c:	eb002d4c 	bl	1bd64 <strlcpy>
   10830:	eb00014b 	bl	10d64 <gettid>
   10834:	e3a03000 	mov	r3, #0
   10838:	e5c43034 	strb	r3, [r4, #52]	; 0x34
   1083c:	e5843038 	str	r3, [r4, #56]	; 0x38
   10840:	e584303c 	str	r3, [r4, #60]	; 0x3c
   10844:	e3a03003 	mov	r3, #3
   10848:	e5843040 	str	r3, [r4, #64]	; 0x40
   1084c:	e5843044 	str	r3, [r4, #68]	; 0x44
   10850:	e5843048 	str	r3, [r4, #72]	; 0x48
   10854:	e28d304c 	add	r3, sp, #76	; 0x4c
   10858:	e584002c 	str	r0, [r4, #44]	; 0x2c
   1085c:	e58d301c 	str	r3, [sp, #28]
   10860:	e58d3000 	str	r3, [sp]
   10864:	e1a00007 	mov	r0, r7
   10868:	e1a0100a 	mov	r1, sl
   1086c:	e59f2028 	ldr	r2, [pc, #40]	; 1089c <create+0x180>
   10870:	e59d3048 	ldr	r3, [sp, #72]	; 0x48
   10874:	ebfffe98 	bl	102dc <setupStack>
   10878:	e5840008 	str	r0, [r4, #8]
   1087c:	e1a00008 	mov	r0, r8
   10880:	ebfffe29 	bl	1012c <restore>
   10884:	e1a00005 	mov	r0, r5
   10888:	e28dd024 	add	sp, sp, #36	; 0x24
   1088c:	e8bd8ff0 	pop	{r4, r5, r6, r7, r8, r9, sl, fp, pc}
   10890:	00023bdc 	.word	0x00023bdc
   10894:	0002074c 	.word	0x0002074c
   10898:	00020700 	.word	0x00020700
   1089c:	00010db0 	.word	0x00010db0

000108a0 <kill>:
   108a0:	e92d45f8 	push	{r3, r4, r5, r6, r7, r8, sl, lr}
   108a4:	e1a06000 	mov	r6, r0
   108a8:	ebfffe1c 	bl	10120 <disable>
   108ac:	e3560063 	cmp	r6, #99	; 0x63
   108b0:	e1a08000 	mov	r8, r0
   108b4:	8a000008 	bhi	108dc <kill+0x3c>
   108b8:	e3a04054 	mov	r4, #84	; 0x54
   108bc:	e0040694 	mul	r4, r4, r6
   108c0:	e59f50f0 	ldr	r5, [pc, #240]	; 109b8 <kill+0x118>
   108c4:	e7d53004 	ldrb	r3, [r5, r4]
   108c8:	e0857004 	add	r7, r5, r4
   108cc:	e3530002 	cmp	r3, #2
   108d0:	0a000001 	beq	108dc <kill+0x3c>
   108d4:	e3560000 	cmp	r6, #0
   108d8:	1a000003 	bne	108ec <kill+0x4c>
   108dc:	e1a00008 	mov	r0, r8
   108e0:	ebfffe11 	bl	1012c <restore>
   108e4:	e3e00000 	mvn	r0, #0
   108e8:	e8bd85f8 	pop	{r3, r4, r5, r6, r7, r8, sl, pc}
   108ec:	e59f20c8 	ldr	r2, [pc, #200]	; 109bc <kill+0x11c>
   108f0:	e5923000 	ldr	r3, [r2]
   108f4:	e2433001 	sub	r3, r3, #1
   108f8:	e3530001 	cmp	r3, #1
   108fc:	e5823000 	str	r3, [r2]
   10900:	ca000000 	bgt	10908 <kill+0x68>
   10904:	eb00011a 	bl	10d74 <xdone>
   10908:	e1a01006 	mov	r1, r6
   1090c:	e597002c 	ldr	r0, [r7, #44]	; 0x2c
   10910:	eb000411 	bl	1195c <send>
   10914:	e5971010 	ldr	r1, [r7, #16]
   10918:	e597000c 	ldr	r0, [r7, #12]
   1091c:	e2811007 	add	r1, r1, #7
   10920:	e3c11007 	bic	r1, r1, #7
   10924:	e2800004 	add	r0, r0, #4
   10928:	e0610000 	rsb	r0, r1, r0
   1092c:	eb000300 	bl	11534 <memfree>
   10930:	e7d53004 	ldrb	r3, [r5, r4]
   10934:	e3a0a002 	mov	sl, #2
   10938:	e2433001 	sub	r3, r3, #1
   1093c:	e3530006 	cmp	r3, #6
   10940:	979ff103 	ldrls	pc, [pc, r3, lsl #2]
   10944:	ea000015 	b	109a0 <kill+0x100>
   10948:	00010974 	.word	0x00010974
   1094c:	000109a0 	.word	0x000109a0
   10950:	00010998 	.word	0x00010998
   10954:	000109a0 	.word	0x000109a0
   10958:	00010964 	.word	0x00010964
   1095c:	000109a0 	.word	0x000109a0
   10960:	0001097c 	.word	0x0001097c
   10964:	e1a00006 	mov	r0, r6
   10968:	eb0001c7 	bl	1108c <unsleep>
   1096c:	e7c5a004 	strb	sl, [r5, r4]
   10970:	ea00000c 	b	109a8 <kill+0x108>
   10974:	e7c5a004 	strb	sl, [r5, r4]
   10978:	eb00002c 	bl	10a30 <resched>
   1097c:	e5973028 	ldr	r3, [r7, #40]	; 0x28
   10980:	e59f2038 	ldr	r2, [pc, #56]	; 109c0 <kill+0x120>
   10984:	e3a0100c 	mov	r1, #12
   10988:	e0232391 	mla	r3, r1, r3, r2
   1098c:	e5932004 	ldr	r2, [r3, #4]
   10990:	e2822001 	add	r2, r2, #1
   10994:	e5832004 	str	r2, [r3, #4]
   10998:	e1a00006 	mov	r0, r6
   1099c:	eb000077 	bl	10b80 <getitem>
   109a0:	e3a03002 	mov	r3, #2
   109a4:	e7c53004 	strb	r3, [r5, r4]
   109a8:	e1a00008 	mov	r0, r8
   109ac:	ebfffdde 	bl	1012c <restore>
   109b0:	e3a00001 	mov	r0, #1
   109b4:	e8bd85f8 	pop	{r3, r4, r5, r6, r7, r8, sl, pc}
   109b8:	0002074c 	.word	0x0002074c
   109bc:	00020700 	.word	0x00020700
   109c0:	00022820 	.word	0x00022820

000109c4 <ready>:
   109c4:	e3500063 	cmp	r0, #99	; 0x63
   109c8:	e92d4010 	push	{r4, lr}
   109cc:	e1a04001 	mov	r4, r1
   109d0:	8a000010 	bhi	10a18 <ready+0x54>
   109d4:	e3a01054 	mov	r1, #84	; 0x54
   109d8:	e0030091 	mul	r3, r1, r0
   109dc:	e59f2044 	ldr	r2, [pc, #68]	; 10a28 <ready+0x64>
   109e0:	e7d21003 	ldrb	r1, [r2, r3]
   109e4:	e082c003 	add	ip, r2, r3
   109e8:	e3510002 	cmp	r1, #2
   109ec:	0a000009 	beq	10a18 <ready+0x54>
   109f0:	e3a01003 	mov	r1, #3
   109f4:	e7c21003 	strb	r1, [r2, r3]
   109f8:	e59f302c 	ldr	r3, [pc, #44]	; 10a2c <ready+0x68>
   109fc:	e59c2004 	ldr	r2, [ip, #4]
   10a00:	e5931000 	ldr	r1, [r3]
   10a04:	eb0000ab 	bl	10cb8 <insert>
   10a08:	e3540001 	cmp	r4, #1
   10a0c:	1a000003 	bne	10a20 <ready+0x5c>
   10a10:	eb000006 	bl	10a30 <resched>
   10a14:	ea000001 	b	10a20 <ready+0x5c>
   10a18:	e3e00000 	mvn	r0, #0
   10a1c:	e8bd8010 	pop	{r4, pc}
   10a20:	e3a00001 	mov	r0, #1
   10a24:	e8bd8010 	pop	{r4, pc}
   10a28:	0002074c 	.word	0x0002074c
   10a2c:	00022d90 	.word	0x00022d90

00010a30 <resched>:
   10a30:	e92d4070 	push	{r4, r5, r6, lr}
   10a34:	e59f30d8 	ldr	r3, [pc, #216]	; 10b14 <resched+0xe4>
   10a38:	e5932000 	ldr	r2, [r3]
   10a3c:	e3520000 	cmp	r2, #0
   10a40:	c2822001 	addgt	r2, r2, #1
   10a44:	c5832000 	strgt	r2, [r3]
   10a48:	ca00002f 	bgt	10b0c <resched+0xdc>
   10a4c:	e59f30c4 	ldr	r3, [pc, #196]	; 10b18 <resched+0xe8>
   10a50:	e3a06054 	mov	r6, #84	; 0x54
   10a54:	e5933000 	ldr	r3, [r3]
   10a58:	e59f50bc 	ldr	r5, [pc, #188]	; 10b1c <resched+0xec>
   10a5c:	e0060396 	mul	r6, r6, r3
   10a60:	ebfffdae 	bl	10120 <disable>
   10a64:	e0864005 	add	r4, r6, r5
   10a68:	e5840024 	str	r0, [r4, #36]	; 0x24
   10a6c:	e7d63005 	ldrb	r3, [r6, r5]
   10a70:	e3530001 	cmp	r3, #1
   10a74:	1a000012 	bne	10ac4 <resched+0x94>
   10a78:	e59f30a0 	ldr	r3, [pc, #160]	; 10b20 <resched+0xf0>
   10a7c:	e3a0c00c 	mov	ip, #12
   10a80:	e5931000 	ldr	r1, [r3]
   10a84:	e59f3098 	ldr	r3, [pc, #152]	; 10b24 <resched+0xf4>
   10a88:	e022319c 	mla	r2, ip, r1, r3
   10a8c:	e5922004 	ldr	r2, [r2, #4]
   10a90:	e3520063 	cmp	r2, #99	; 0x63
   10a94:	ca000004 	bgt	10aac <resched+0x7c>
   10a98:	e002029c 	mul	r2, ip, r2
   10a9c:	e594e004 	ldr	lr, [r4, #4]
   10aa0:	e7933002 	ldr	r3, [r3, r2]
   10aa4:	e15e0003 	cmp	lr, r3
   10aa8:	ca000016 	bgt	10b08 <resched+0xd8>
   10aac:	e3a03003 	mov	r3, #3
   10ab0:	e7c63005 	strb	r3, [r6, r5]
   10ab4:	e59f305c 	ldr	r3, [pc, #92]	; 10b18 <resched+0xe8>
   10ab8:	e5942004 	ldr	r2, [r4, #4]
   10abc:	e5930000 	ldr	r0, [r3]
   10ac0:	eb00007c 	bl	10cb8 <insert>
   10ac4:	e59f3054 	ldr	r3, [pc, #84]	; 10b20 <resched+0xf0>
   10ac8:	e5930000 	ldr	r0, [r3]
   10acc:	ebfffef3 	bl	106a0 <dequeue>
   10ad0:	e59f3040 	ldr	r3, [pc, #64]	; 10b18 <resched+0xe8>
   10ad4:	e1a02000 	mov	r2, r0
   10ad8:	e5830000 	str	r0, [r3]
   10adc:	e3a00054 	mov	r0, #84	; 0x54
   10ae0:	e0000290 	mul	r0, r0, r2
   10ae4:	e59f3030 	ldr	r3, [pc, #48]	; 10b1c <resched+0xec>
   10ae8:	e3a0c001 	mov	ip, #1
   10aec:	e0801003 	add	r1, r0, r3
   10af0:	e7c0c003 	strb	ip, [r0, r3]
   10af4:	e2811008 	add	r1, r1, #8
   10af8:	e2840008 	add	r0, r4, #8
   10afc:	e6ef2072 	uxtb	r2, r2
   10b00:	ebfffd7a 	bl	100f0 <ctxsw>
   10b04:	e5940024 	ldr	r0, [r4, #36]	; 0x24
   10b08:	ebfffd87 	bl	1012c <restore>
   10b0c:	e3a00001 	mov	r0, #1
   10b10:	e8bd8070 	pop	{r4, r5, r6, pc}
   10b14:	00023be0 	.word	0x00023be0
   10b18:	0002281c 	.word	0x0002281c
   10b1c:	0002074c 	.word	0x0002074c
   10b20:	00022d90 	.word	0x00022d90
   10b24:	00022d9c 	.word	0x00022d9c

00010b28 <getprio>:
   10b28:	e92d4010 	push	{r4, lr}
   10b2c:	e1a04000 	mov	r4, r0
   10b30:	ebfffd7a 	bl	10120 <disable>
   10b34:	e3540063 	cmp	r4, #99	; 0x63
   10b38:	e1a01000 	mov	r1, r0
   10b3c:	8a000006 	bhi	10b5c <getprio+0x34>
   10b40:	e3a02054 	mov	r2, #84	; 0x54
   10b44:	e0040492 	mul	r4, r2, r4
   10b48:	e59f302c 	ldr	r3, [pc, #44]	; 10b7c <getprio+0x54>
   10b4c:	e0832004 	add	r2, r3, r4
   10b50:	e7d33004 	ldrb	r3, [r3, r4]
   10b54:	e3530002 	cmp	r3, #2
   10b58:	1a000003 	bne	10b6c <getprio+0x44>
   10b5c:	e1a00001 	mov	r0, r1
   10b60:	ebfffd71 	bl	1012c <restore>
   10b64:	e3e04000 	mvn	r4, #0
   10b68:	ea000001 	b	10b74 <getprio+0x4c>
   10b6c:	e5924004 	ldr	r4, [r2, #4]
   10b70:	ebfffd6d 	bl	1012c <restore>
   10b74:	e1a00004 	mov	r0, r4
   10b78:	e8bd8010 	pop	{r4, pc}
   10b7c:	0002074c 	.word	0x0002074c

00010b80 <getitem>:
   10b80:	e59f202c 	ldr	r2, [pc, #44]	; 10bb4 <getitem+0x34>
   10b84:	e92d4030 	push	{r4, r5, lr}
   10b88:	e3a0100c 	mov	r1, #12
   10b8c:	e0232091 	mla	r3, r1, r0, r2
   10b90:	e9931010 	ldmib	r3, {r4, ip}
   10b94:	e0252c91 	mla	r5, r1, ip, r2
   10b98:	e0222491 	mla	r2, r1, r4, r2
   10b9c:	e5854004 	str	r4, [r5, #4]
   10ba0:	e582c008 	str	ip, [r2, #8]
   10ba4:	e3e02001 	mvn	r2, #1
   10ba8:	e5832004 	str	r2, [r3, #4]
   10bac:	e5832008 	str	r2, [r3, #8]
   10bb0:	e8bd8030 	pop	{r4, r5, pc}
   10bb4:	00022d9c 	.word	0x00022d9c

00010bb8 <getlast>:
   10bb8:	e3500000 	cmp	r0, #0
   10bbc:	ba00000b 	blt	10bf0 <getlast+0x38>
   10bc0:	e2802001 	add	r2, r0, #1
   10bc4:	e3520e13 	cmp	r2, #304	; 0x130
   10bc8:	aa000008 	bge	10bf0 <getlast+0x38>
   10bcc:	e59f302c 	ldr	r3, [pc, #44]	; 10c00 <getlast+0x48>
   10bd0:	e3a0100c 	mov	r1, #12
   10bd4:	e0203091 	mla	r0, r1, r0, r3
   10bd8:	e5900004 	ldr	r0, [r0, #4]
   10bdc:	e3500063 	cmp	r0, #99	; 0x63
   10be0:	ca000004 	bgt	10bf8 <getlast+0x40>
   10be4:	e0233291 	mla	r3, r1, r2, r3
   10be8:	e5930008 	ldr	r0, [r3, #8]
   10bec:	eaffffe3 	b	10b80 <getitem>
   10bf0:	e3e00000 	mvn	r0, #0
   10bf4:	e12fff1e 	bx	lr
   10bf8:	e3e00001 	mvn	r0, #1
   10bfc:	e12fff1e 	bx	lr
   10c00:	00022d9c 	.word	0x00022d9c

00010c04 <getfirst>:
   10c04:	e3500000 	cmp	r0, #0
   10c08:	ba000009 	blt	10c34 <getfirst+0x30>
   10c0c:	e2803001 	add	r3, r0, #1
   10c10:	e3530e13 	cmp	r3, #304	; 0x130
   10c14:	aa000006 	bge	10c34 <getfirst+0x30>
   10c18:	e59f3024 	ldr	r3, [pc, #36]	; 10c44 <getfirst+0x40>
   10c1c:	e3a0200c 	mov	r2, #12
   10c20:	e0203092 	mla	r0, r2, r0, r3
   10c24:	e5900004 	ldr	r0, [r0, #4]
   10c28:	e3500063 	cmp	r0, #99	; 0x63
   10c2c:	ca000002 	bgt	10c3c <getfirst+0x38>
   10c30:	eaffffd2 	b	10b80 <getitem>
   10c34:	e3e00000 	mvn	r0, #0
   10c38:	e12fff1e 	bx	lr
   10c3c:	e3e00001 	mvn	r0, #1
   10c40:	e12fff1e 	bx	lr
   10c44:	00022d9c 	.word	0x00022d9c

00010c48 <queinit>:
   10c48:	e92d4030 	push	{r4, r5, lr}
   10c4c:	e59f305c 	ldr	r3, [pc, #92]	; 10cb0 <queinit+0x68>
   10c50:	e5930000 	ldr	r0, [r3]
   10c54:	e3500e13 	cmp	r0, #304	; 0x130
   10c58:	ca000012 	bgt	10ca8 <queinit+0x60>
   10c5c:	e3a0100c 	mov	r1, #12
   10c60:	e0040091 	mul	r4, r1, r0
   10c64:	e2802002 	add	r2, r0, #2
   10c68:	e5832000 	str	r2, [r3]
   10c6c:	e59f3040 	ldr	r3, [pc, #64]	; 10cb4 <queinit+0x6c>
   10c70:	e2802001 	add	r2, r0, #1
   10c74:	e0835004 	add	r5, r3, r4
   10c78:	e5852004 	str	r2, [r5, #4]
   10c7c:	e0020291 	mul	r2, r1, r2
   10c80:	e3e0c001 	mvn	ip, #1
   10c84:	e585c008 	str	ip, [r5, #8]
   10c88:	e0831002 	add	r1, r3, r2
   10c8c:	e3e05102 	mvn	r5, #-2147483648	; 0x80000000
   10c90:	e7835004 	str	r5, [r3, r4]
   10c94:	e581c004 	str	ip, [r1, #4]
   10c98:	e5810008 	str	r0, [r1, #8]
   10c9c:	e3a01102 	mov	r1, #-2147483648	; 0x80000000
   10ca0:	e7831002 	str	r1, [r3, r2]
   10ca4:	e8bd8030 	pop	{r4, r5, pc}
   10ca8:	e3e00000 	mvn	r0, #0
   10cac:	e8bd8030 	pop	{r4, r5, pc}
   10cb0:	0001ff44 	.word	0x0001ff44
   10cb4:	00022d9c 	.word	0x00022d9c

00010cb8 <insert>:
   10cb8:	e3510000 	cmp	r1, #0
   10cbc:	e92d40f0 	push	{r4, r5, r6, r7, lr}
   10cc0:	ba000023 	blt	10d54 <insert+0x9c>
   10cc4:	e2813001 	add	r3, r1, #1
   10cc8:	e3530e13 	cmp	r3, #304	; 0x130
   10ccc:	aa000020 	bge	10d54 <insert+0x9c>
   10cd0:	e3500063 	cmp	r0, #99	; 0x63
   10cd4:	8a00001e 	bhi	10d54 <insert+0x9c>
   10cd8:	e3a03054 	mov	r3, #84	; 0x54
   10cdc:	e0030093 	mul	r3, r3, r0
   10ce0:	e59fc074 	ldr	ip, [pc, #116]	; 10d5c <insert+0xa4>
   10ce4:	e7dc3003 	ldrb	r3, [ip, r3]
   10ce8:	e3530002 	cmp	r3, #2
   10cec:	0a000018 	beq	10d54 <insert+0x9c>
   10cf0:	e59f6068 	ldr	r6, [pc, #104]	; 10d60 <insert+0xa8>
   10cf4:	e3a0300c 	mov	r3, #12
   10cf8:	e0216193 	mla	r1, r3, r1, r6
   10cfc:	e1a07003 	mov	r7, r3
   10d00:	e591c004 	ldr	ip, [r1, #4]
   10d04:	ea000000 	b	10d0c <insert+0x54>
   10d08:	e593c004 	ldr	ip, [r3, #4]
   10d0c:	e0050c97 	mul	r5, r7, ip
   10d10:	e0863005 	add	r3, r6, r5
   10d14:	e7965005 	ldr	r5, [r6, r5]
   10d18:	e59f1040 	ldr	r1, [pc, #64]	; 10d60 <insert+0xa8>
   10d1c:	e1550002 	cmp	r5, r2
   10d20:	e3a0400c 	mov	r4, #12
   10d24:	aafffff7 	bge	10d08 <insert+0x50>
   10d28:	e0050094 	mul	r5, r4, r0
   10d2c:	e0816005 	add	r6, r1, r5
   10d30:	e586c004 	str	ip, [r6, #4]
   10d34:	e593c008 	ldr	ip, [r3, #8]
   10d38:	e586c008 	str	ip, [r6, #8]
   10d3c:	e7812005 	str	r2, [r1, r5]
   10d40:	e0211c94 	mla	r1, r4, ip, r1
   10d44:	e5810004 	str	r0, [r1, #4]
   10d48:	e5830008 	str	r0, [r3, #8]
   10d4c:	e3a00001 	mov	r0, #1
   10d50:	e8bd80f0 	pop	{r4, r5, r6, r7, pc}
   10d54:	e3e00000 	mvn	r0, #0
   10d58:	e8bd80f0 	pop	{r4, r5, r6, r7, pc}
   10d5c:	0002074c 	.word	0x0002074c
   10d60:	00022d9c 	.word	0x00022d9c

00010d64 <gettid>:
   10d64:	e59f3004 	ldr	r3, [pc, #4]	; 10d70 <gettid+0xc>
   10d68:	e5930000 	ldr	r0, [r3]
   10d6c:	e12fff1e 	bx	lr
   10d70:	0002281c 	.word	0x0002281c

00010d74 <xdone>:
   10d74:	e92d4008 	push	{r3, lr}
   10d78:	e59f000c 	ldr	r0, [pc, #12]	; 10d8c <xdone+0x18>
   10d7c:	eb000884 	bl	12f94 <kprintf>
   10d80:	ebfffce6 	bl	10120 <disable>
   10d84:	e8bd4008 	pop	{r3, lr}
   10d88:	eafffcdf 	b	1010c <halt>
   10d8c:	0001c7ae 	.word	0x0001c7ae

00010d90 <yield>:
   10d90:	e92d4010 	push	{r4, lr}
   10d94:	ebfffce1 	bl	10120 <disable>
   10d98:	e1a04000 	mov	r4, r0
   10d9c:	ebffff23 	bl	10a30 <resched>
   10da0:	e1a00004 	mov	r0, r4
   10da4:	ebfffce0 	bl	1012c <restore>
   10da8:	e3a00001 	mov	r0, #1
   10dac:	e8bd8010 	pop	{r4, pc}

00010db0 <userret>:
   10db0:	e92d4008 	push	{r3, lr}
   10db4:	ebffffea 	bl	10d64 <gettid>
   10db8:	e8bd4008 	pop	{r3, lr}
   10dbc:	eafffeb7 	b	108a0 <kill>

00010dc0 <clkinit>:
   10dc0:	e92d4008 	push	{r3, lr}
   10dc4:	ebffff9f 	bl	10c48 <queinit>
   10dc8:	e59f3034 	ldr	r3, [pc, #52]	; 10e04 <clkinit+0x44>
   10dcc:	e3a02000 	mov	r2, #0
   10dd0:	e5830000 	str	r0, [r3]
   10dd4:	e5832004 	str	r2, [r3, #4]
   10dd8:	e59f2028 	ldr	r2, [pc, #40]	; 10e08 <clkinit+0x48>
   10ddc:	e59f3028 	ldr	r3, [pc, #40]	; 10e0c <clkinit+0x4c>
   10de0:	e3a00004 	mov	r0, #4
   10de4:	e5832010 	str	r2, [r3, #16]
   10de8:	ebfffd27 	bl	1028c <enable_irq>
   10dec:	e59f301c 	ldr	r3, [pc, #28]	; 10e10 <clkinit+0x50>
   10df0:	e3a01ffa 	mov	r1, #1000	; 0x3e8
   10df4:	e593002c 	ldr	r0, [r3, #44]	; 0x2c
   10df8:	eb002dc4 	bl	1c510 <__aeabi_uidiv>
   10dfc:	e8bd4008 	pop	{r3, lr}
   10e00:	eafffd69 	b	103ac <clkupdate>
   10e04:	00023be4 	.word	0x00023be4
   10e08:	00010e14 	.word	0x00010e14
   10e0c:	00020680 	.word	0x00020680
   10e10:	00020708 	.word	0x00020708

00010e14 <clkhandler>:
   10e14:	e92d4008 	push	{r3, lr}
   10e18:	e59f3088 	ldr	r3, [pc, #136]	; 10ea8 <clkhandler+0x94>
   10e1c:	e3a01ffa 	mov	r1, #1000	; 0x3e8
   10e20:	e593002c 	ldr	r0, [r3, #44]	; 0x2c
   10e24:	eb002db9 	bl	1c510 <__aeabi_uidiv>
   10e28:	ebfffd5f 	bl	103ac <clkupdate>
   10e2c:	e59f3078 	ldr	r3, [pc, #120]	; 10eac <clkhandler+0x98>
   10e30:	e5932000 	ldr	r2, [r3]
   10e34:	e2822001 	add	r2, r2, #1
   10e38:	e5832000 	str	r2, [r3]
   10e3c:	e5932000 	ldr	r2, [r3]
   10e40:	e3520ffa 	cmp	r2, #1000	; 0x3e8
   10e44:	1a000005 	bne	10e60 <clkhandler+0x4c>
   10e48:	e59f2060 	ldr	r2, [pc, #96]	; 10eb0 <clkhandler+0x9c>
   10e4c:	e5921000 	ldr	r1, [r2]
   10e50:	e2811001 	add	r1, r1, #1
   10e54:	e5821000 	str	r1, [r2]
   10e58:	e3a02000 	mov	r2, #0
   10e5c:	e5832000 	str	r2, [r3]
   10e60:	e59f204c 	ldr	r2, [pc, #76]	; 10eb4 <clkhandler+0xa0>
   10e64:	e59f304c 	ldr	r3, [pc, #76]	; 10eb8 <clkhandler+0xa4>
   10e68:	e5922000 	ldr	r2, [r2]
   10e6c:	e3a0100c 	mov	r1, #12
   10e70:	e0223291 	mla	r2, r1, r2, r3
   10e74:	e5922004 	ldr	r2, [r2, #4]
   10e78:	e3520063 	cmp	r2, #99	; 0x63
   10e7c:	ca000007 	bgt	10ea0 <clkhandler+0x8c>
   10e80:	e0010291 	mul	r1, r1, r2
   10e84:	e7932001 	ldr	r2, [r3, r1]
   10e88:	e2422001 	sub	r2, r2, #1
   10e8c:	e3520000 	cmp	r2, #0
   10e90:	e7832001 	str	r2, [r3, r1]
   10e94:	ca000001 	bgt	10ea0 <clkhandler+0x8c>
   10e98:	e8bd4008 	pop	{r3, lr}
   10e9c:	ea0000a1 	b	11128 <wakeup>
   10ea0:	e8bd4008 	pop	{r3, lr}
   10ea4:	eafffee1 	b	10a30 <resched>
   10ea8:	00020708 	.word	0x00020708
   10eac:	00023be8 	.word	0x00023be8
   10eb0:	00023bec 	.word	0x00023bec
   10eb4:	00023be4 	.word	0x00023be4
   10eb8:	00022d9c 	.word	0x00022d9c

00010ebc <udelay>:
   10ebc:	e92d4038 	push	{r3, r4, r5, lr}
   10ec0:	e59f3054 	ldr	r3, [pc, #84]	; 10f1c <udelay+0x60>
   10ec4:	e1a05000 	mov	r5, r0
   10ec8:	e59f1050 	ldr	r1, [pc, #80]	; 10f20 <udelay+0x64>
   10ecc:	e593002c 	ldr	r0, [r3, #44]	; 0x2c
   10ed0:	eb002d8e 	bl	1c510 <__aeabi_uidiv>
   10ed4:	e0050590 	mul	r5, r0, r5
   10ed8:	ebfffd2e 	bl	10398 <clkcount>
   10edc:	e0905005 	adds	r5, r0, r5
   10ee0:	e1a04000 	mov	r4, r0
   10ee4:	2a000005 	bcs	10f00 <udelay+0x44>
   10ee8:	ebfffd2a 	bl	10398 <clkcount>
   10eec:	e1500005 	cmp	r0, r5
   10ef0:	28bd8038 	popcs	{r3, r4, r5, pc}
   10ef4:	e1500004 	cmp	r0, r4
   10ef8:	2afffffa 	bcs	10ee8 <udelay+0x2c>
   10efc:	e8bd8038 	pop	{r3, r4, r5, pc}
   10f00:	ebfffd24 	bl	10398 <clkcount>
   10f04:	e1500004 	cmp	r0, r4
   10f08:	8afffffc 	bhi	10f00 <udelay+0x44>
   10f0c:	ebfffd21 	bl	10398 <clkcount>
   10f10:	e1500005 	cmp	r0, r5
   10f14:	3afffffc 	bcc	10f0c <udelay+0x50>
   10f18:	e8bd8038 	pop	{r3, r4, r5, pc}
   10f1c:	00020708 	.word	0x00020708
   10f20:	000f4240 	.word	0x000f4240

00010f24 <insertd>:
   10f24:	e92d45f0 	push	{r4, r5, r6, r7, r8, sl, lr}
   10f28:	e2514000 	subs	r4, r1, #0
   10f2c:	ba00002e 	blt	10fec <insertd+0xc8>
   10f30:	e2845001 	add	r5, r4, #1
   10f34:	e3550e13 	cmp	r5, #304	; 0x130
   10f38:	aa00002b 	bge	10fec <insertd+0xc8>
   10f3c:	e3500063 	cmp	r0, #99	; 0x63
   10f40:	8a000029 	bhi	10fec <insertd+0xc8>
   10f44:	e3a03054 	mov	r3, #84	; 0x54
   10f48:	e0030093 	mul	r3, r3, r0
   10f4c:	e59f10a0 	ldr	r1, [pc, #160]	; 10ff4 <insertd+0xd0>
   10f50:	e7d13003 	ldrb	r3, [r1, r3]
   10f54:	e3530002 	cmp	r3, #2
   10f58:	0a000023 	beq	10fec <insertd+0xc8>
   10f5c:	e59f7094 	ldr	r7, [pc, #148]	; 10ff8 <insertd+0xd4>
   10f60:	e3a0100c 	mov	r1, #12
   10f64:	e0237491 	mla	r3, r1, r4, r7
   10f68:	e1a0a001 	mov	sl, r1
   10f6c:	e5933004 	ldr	r3, [r3, #4]
   10f70:	ea000002 	b	10f80 <insertd+0x5c>
   10f74:	e1a04003 	mov	r4, r3
   10f78:	e5983004 	ldr	r3, [r8, #4]
   10f7c:	e0662002 	rsb	r2, r6, r2
   10f80:	e001039a 	mul	r1, sl, r3
   10f84:	e7976001 	ldr	r6, [r7, r1]
   10f88:	e0878001 	add	r8, r7, r1
   10f8c:	e1560002 	cmp	r6, r2
   10f90:	e59fc060 	ldr	ip, [pc, #96]	; 10ff8 <insertd+0xd4>
   10f94:	e3a0100c 	mov	r1, #12
   10f98:	da00000e 	ble	10fd8 <insertd+0xb4>
   10f9c:	e0070091 	mul	r7, r1, r0
   10fa0:	e08c8007 	add	r8, ip, r7
   10fa4:	e9880018 	stmib	r8, {r3, r4}
   10fa8:	e024c491 	mla	r4, r1, r4, ip
   10fac:	e0010391 	mul	r1, r1, r3
   10fb0:	e78c2007 	str	r2, [ip, r7]
   10fb4:	e59f603c 	ldr	r6, [pc, #60]	; 10ff8 <insertd+0xd4>
   10fb8:	e08cc001 	add	ip, ip, r1
   10fbc:	e5840004 	str	r0, [r4, #4]
   10fc0:	e1530005 	cmp	r3, r5
   10fc4:	e58c0008 	str	r0, [ip, #8]
   10fc8:	17963001 	ldrne	r3, [r6, r1]
   10fcc:	10622003 	rsbne	r2, r2, r3
   10fd0:	17862001 	strne	r2, [r6, r1]
   10fd4:	ea000002 	b	10fe4 <insertd+0xc0>
   10fd8:	e1530005 	cmp	r3, r5
   10fdc:	1affffe4 	bne	10f74 <insertd+0x50>
   10fe0:	eaffffed 	b	10f9c <insertd+0x78>
   10fe4:	e3a00001 	mov	r0, #1
   10fe8:	e8bd85f0 	pop	{r4, r5, r6, r7, r8, sl, pc}
   10fec:	e3e00000 	mvn	r0, #0
   10ff0:	e8bd85f0 	pop	{r4, r5, r6, r7, r8, sl, pc}
   10ff4:	0002074c 	.word	0x0002074c
   10ff8:	00022d9c 	.word	0x00022d9c

00010ffc <sleep>:
   10ffc:	e3a01ffa 	mov	r1, #1000	; 0x3e8
   11000:	e92d4070 	push	{r4, r5, r6, lr}
   11004:	e0000091 	mul	r0, r1, r0
   11008:	eb002d40 	bl	1c510 <__aeabi_uidiv>
   1100c:	e1a06000 	mov	r6, r0
   11010:	ebfffc42 	bl	10120 <disable>
   11014:	e3560000 	cmp	r6, #0
   11018:	e1a04000 	mov	r4, r0
   1101c:	0a000012 	beq	1106c <sleep+0x70>
   11020:	e59f3058 	ldr	r3, [pc, #88]	; 11080 <sleep+0x84>
   11024:	e59f5058 	ldr	r5, [pc, #88]	; 11084 <sleep+0x88>
   11028:	e1a02006 	mov	r2, r6
   1102c:	e5950000 	ldr	r0, [r5]
   11030:	e5931000 	ldr	r1, [r3]
   11034:	ebffffba 	bl	10f24 <insertd>
   11038:	e3700001 	cmn	r0, #1
   1103c:	e1a06000 	mov	r6, r0
   11040:	1a000003 	bne	11054 <sleep+0x58>
   11044:	e1a00004 	mov	r0, r4
   11048:	ebfffc37 	bl	1012c <restore>
   1104c:	e1a00006 	mov	r0, r6
   11050:	e8bd8070 	pop	{r4, r5, r6, pc}
   11054:	e5953000 	ldr	r3, [r5]
   11058:	e3a02054 	mov	r2, #84	; 0x54
   1105c:	e0030392 	mul	r3, r2, r3
   11060:	e59f2020 	ldr	r2, [pc, #32]	; 11088 <sleep+0x8c>
   11064:	e3a01005 	mov	r1, #5
   11068:	e7c21003 	strb	r1, [r2, r3]
   1106c:	ebfffe6f 	bl	10a30 <resched>
   11070:	e1a00004 	mov	r0, r4
   11074:	ebfffc2c 	bl	1012c <restore>
   11078:	e3a00001 	mov	r0, #1
   1107c:	e8bd8070 	pop	{r4, r5, r6, pc}
   11080:	00023be4 	.word	0x00023be4
   11084:	0002281c 	.word	0x0002281c
   11088:	0002074c 	.word	0x0002074c

0001108c <unsleep>:
   1108c:	e92d4038 	push	{r3, r4, r5, lr}
   11090:	e1a04000 	mov	r4, r0
   11094:	ebfffc21 	bl	10120 <disable>
   11098:	e3540063 	cmp	r4, #99	; 0x63
   1109c:	e1a05000 	mov	r5, r0
   110a0:	8a000005 	bhi	110bc <unsleep+0x30>
   110a4:	e3a03054 	mov	r3, #84	; 0x54
   110a8:	e0030493 	mul	r3, r3, r4
   110ac:	e59f206c 	ldr	r2, [pc, #108]	; 11120 <unsleep+0x94>
   110b0:	e7d23003 	ldrb	r3, [r2, r3]
   110b4:	e3530002 	cmp	r3, #2
   110b8:	1a000001 	bne	110c4 <unsleep+0x38>
   110bc:	e1a00005 	mov	r0, r5
   110c0:	ea000002 	b	110d0 <unsleep+0x44>
   110c4:	e3530008 	cmp	r3, #8
   110c8:	13530005 	cmpne	r3, #5
   110cc:	0a000002 	beq	110dc <unsleep+0x50>
   110d0:	ebfffc15 	bl	1012c <restore>
   110d4:	e3e00000 	mvn	r0, #0
   110d8:	e8bd8038 	pop	{r3, r4, r5, pc}
   110dc:	e3a0000c 	mov	r0, #12
   110e0:	e0010490 	mul	r1, r0, r4
   110e4:	e59f3038 	ldr	r3, [pc, #56]	; 11124 <unsleep+0x98>
   110e8:	e0832001 	add	r2, r3, r1
   110ec:	e5922004 	ldr	r2, [r2, #4]
   110f0:	e3520063 	cmp	r2, #99	; 0x63
   110f4:	d0020290 	mulle	r2, r0, r2
   110f8:	d7930001 	ldrle	r0, [r3, r1]
   110fc:	d7931002 	ldrle	r1, [r3, r2]
   11100:	d0801001 	addle	r1, r0, r1
   11104:	d7831002 	strle	r1, [r3, r2]
   11108:	e1a00004 	mov	r0, r4
   1110c:	ebfffe9b 	bl	10b80 <getitem>
   11110:	e1a00005 	mov	r0, r5
   11114:	ebfffc04 	bl	1012c <restore>
   11118:	e3a00001 	mov	r0, #1
   1111c:	e8bd8038 	pop	{r3, r4, r5, pc}
   11120:	0002074c 	.word	0x0002074c
   11124:	00022d9c 	.word	0x00022d9c

00011128 <wakeup>:
   11128:	e92d4070 	push	{r4, r5, r6, lr}
   1112c:	e59f6040 	ldr	r6, [pc, #64]	; 11174 <wakeup+0x4c>
   11130:	e59f4040 	ldr	r4, [pc, #64]	; 11178 <wakeup+0x50>
   11134:	e3a0500c 	mov	r5, #12
   11138:	ea000002 	b	11148 <wakeup+0x20>
   1113c:	ebfffd57 	bl	106a0 <dequeue>
   11140:	e3a01000 	mov	r1, #0
   11144:	ebfffe1e 	bl	109c4 <ready>
   11148:	e5960000 	ldr	r0, [r6]
   1114c:	e0234095 	mla	r3, r5, r0, r4
   11150:	e5933004 	ldr	r3, [r3, #4]
   11154:	e3530063 	cmp	r3, #99	; 0x63
   11158:	ca000003 	bgt	1116c <wakeup+0x44>
   1115c:	e0030395 	mul	r3, r5, r3
   11160:	e7943003 	ldr	r3, [r4, r3]
   11164:	e3530000 	cmp	r3, #0
   11168:	dafffff3 	ble	1113c <wakeup+0x14>
   1116c:	e8bd4070 	pop	{r4, r5, r6, lr}
   11170:	eafffe2e 	b	10a30 <resched>
   11174:	00023be4 	.word	0x00023be4
   11178:	00022d9c 	.word	0x00022d9c

0001117c <semcreate>:
   1117c:	e92d41f0 	push	{r4, r5, r6, r7, r8, lr}
   11180:	e2506000 	subs	r6, r0, #0
   11184:	b3e04000 	mvnlt	r4, #0
   11188:	ba00001f 	blt	1120c <semcreate+0x90>
   1118c:	ebfffbe3 	bl	10120 <disable>
   11190:	e59f307c 	ldr	r3, [pc, #124]	; 11214 <semcreate+0x98>
   11194:	e59f507c 	ldr	r5, [pc, #124]	; 11218 <semcreate+0x9c>
   11198:	e5931000 	ldr	r1, [r3]
   1119c:	e1a07000 	mov	r7, r0
   111a0:	e3a04064 	mov	r4, #100	; 0x64
   111a4:	e3a0800c 	mov	r8, #12
   111a8:	e2810001 	add	r0, r1, #1
   111ac:	e3a01064 	mov	r1, #100	; 0x64
   111b0:	eb002d65 	bl	1c74c <__aeabi_idivmod>
   111b4:	e0020198 	mul	r2, r8, r1
   111b8:	e0853002 	add	r3, r5, r2
   111bc:	e7d52002 	ldrb	r2, [r5, r2]
   111c0:	e3520001 	cmp	r2, #1
   111c4:	1a000007 	bne	111e8 <semcreate+0x6c>
   111c8:	e59f2044 	ldr	r2, [pc, #68]	; 11214 <semcreate+0x98>
   111cc:	e3710001 	cmn	r1, #1
   111d0:	e5821000 	str	r1, [r2]
   111d4:	e3a02002 	mov	r2, #2
   111d8:	e5c32000 	strb	r2, [r3]
   111dc:	e1a04001 	mov	r4, r1
   111e0:	15836004 	strne	r6, [r3, #4]
   111e4:	ea000005 	b	11200 <semcreate+0x84>
   111e8:	e2544001 	subs	r4, r4, #1
   111ec:	1affffed 	bne	111a8 <semcreate+0x2c>
   111f0:	e59f301c 	ldr	r3, [pc, #28]	; 11214 <semcreate+0x98>
   111f4:	e3e04000 	mvn	r4, #0
   111f8:	e5831000 	str	r1, [r3]
   111fc:	eaffffff 	b	11200 <semcreate+0x84>
   11200:	e1a00007 	mov	r0, r7
   11204:	ebfffbc8 	bl	1012c <restore>
   11208:	eaffffff 	b	1120c <semcreate+0x90>
   1120c:	e1a00004 	mov	r0, r4
   11210:	e8bd81f0 	pop	{r4, r5, r6, r7, r8, pc}
   11214:	00023bf0 	.word	0x00023bf0
   11218:	00022820 	.word	0x00022820

0001121c <semfree>:
   1121c:	e92d45f8 	push	{r3, r4, r5, r6, r7, r8, sl, lr}
   11220:	e1a04000 	mov	r4, r0
   11224:	ebfffbbd 	bl	10120 <disable>
   11228:	e3540063 	cmp	r4, #99	; 0x63
   1122c:	e1a06000 	mov	r6, r0
   11230:	8a000008 	bhi	11258 <semfree+0x3c>
   11234:	e3a0300c 	mov	r3, #12
   11238:	e0040493 	mul	r4, r3, r4
   1123c:	e59f5068 	ldr	r5, [pc, #104]	; 112ac <semfree+0x90>
   11240:	e7d52004 	ldrb	r2, [r5, r4]
   11244:	e0857004 	add	r7, r5, r4
   11248:	e3520001 	cmp	r2, #1
   1124c:	159f805c 	ldrne	r8, [pc, #92]	; 112b0 <semfree+0x94>
   11250:	11a0a003 	movne	sl, r3
   11254:	1a000007 	bne	11278 <semfree+0x5c>
   11258:	e1a00006 	mov	r0, r6
   1125c:	ebfffbb2 	bl	1012c <restore>
   11260:	e3e00000 	mvn	r0, #0
   11264:	e8bd85f8 	pop	{r3, r4, r5, r6, r7, r8, sl, pc}
   11268:	ebfffd0c 	bl	106a0 <dequeue>
   1126c:	e3a01000 	mov	r1, #0
   11270:	ebfffdd3 	bl	109c4 <ready>
   11274:	eaffffff 	b	11278 <semfree+0x5c>
   11278:	e5970008 	ldr	r0, [r7, #8]
   1127c:	e023809a 	mla	r3, sl, r0, r8
   11280:	e5933004 	ldr	r3, [r3, #4]
   11284:	e3530063 	cmp	r3, #99	; 0x63
   11288:	dafffff6 	ble	11268 <semfree+0x4c>
   1128c:	e3a03000 	mov	r3, #0
   11290:	e5873004 	str	r3, [r7, #4]
   11294:	e1a00006 	mov	r0, r6
   11298:	e3a07001 	mov	r7, #1
   1129c:	e7c57004 	strb	r7, [r5, r4]
   112a0:	ebfffba1 	bl	1012c <restore>
   112a4:	e1a00007 	mov	r0, r7
   112a8:	e8bd85f8 	pop	{r3, r4, r5, r6, r7, r8, sl, pc}
   112ac:	00022820 	.word	0x00022820
   112b0:	00022d9c 	.word	0x00022d9c

000112b4 <semcount>:
   112b4:	e3500063 	cmp	r0, #99	; 0x63
   112b8:	8a000008 	bhi	112e0 <semcount+0x2c>
   112bc:	e3a0200c 	mov	r2, #12
   112c0:	e0000092 	mul	r0, r2, r0
   112c4:	e59f301c 	ldr	r3, [pc, #28]	; 112e8 <semcount+0x34>
   112c8:	e0832000 	add	r2, r3, r0
   112cc:	e7d33000 	ldrb	r3, [r3, r0]
   112d0:	e3530001 	cmp	r3, #1
   112d4:	0a000001 	beq	112e0 <semcount+0x2c>
   112d8:	e5920004 	ldr	r0, [r2, #4]
   112dc:	e12fff1e 	bx	lr
   112e0:	e3e00000 	mvn	r0, #0
   112e4:	e12fff1e 	bx	lr
   112e8:	00022820 	.word	0x00022820

000112ec <signal>:
   112ec:	e92d4038 	push	{r3, r4, r5, lr}
   112f0:	e1a05000 	mov	r5, r0
   112f4:	ebfffb89 	bl	10120 <disable>
   112f8:	e3550063 	cmp	r5, #99	; 0x63
   112fc:	e1a04000 	mov	r4, r0
   11300:	8a000006 	bhi	11320 <signal+0x34>
   11304:	e3a0300c 	mov	r3, #12
   11308:	e0050593 	mul	r5, r3, r5
   1130c:	e59f2050 	ldr	r2, [pc, #80]	; 11364 <signal+0x78>
   11310:	e0823005 	add	r3, r2, r5
   11314:	e7d22005 	ldrb	r2, [r2, r5]
   11318:	e3520001 	cmp	r2, #1
   1131c:	1a000003 	bne	11330 <signal+0x44>
   11320:	e1a00004 	mov	r0, r4
   11324:	ebfffb80 	bl	1012c <restore>
   11328:	e3e00000 	mvn	r0, #0
   1132c:	e8bd8038 	pop	{r3, r4, r5, pc}
   11330:	e5932004 	ldr	r2, [r3, #4]
   11334:	e2821001 	add	r1, r2, #1
   11338:	e3520000 	cmp	r2, #0
   1133c:	e5831004 	str	r1, [r3, #4]
   11340:	aa000003 	bge	11354 <signal+0x68>
   11344:	e5930008 	ldr	r0, [r3, #8]
   11348:	ebfffcd4 	bl	106a0 <dequeue>
   1134c:	e3a01001 	mov	r1, #1
   11350:	ebfffd9b 	bl	109c4 <ready>
   11354:	e1a00004 	mov	r0, r4
   11358:	ebfffb73 	bl	1012c <restore>
   1135c:	e3a00001 	mov	r0, #1
   11360:	e8bd8038 	pop	{r3, r4, r5, pc}
   11364:	00022820 	.word	0x00022820

00011368 <signaln>:
   11368:	e92d4070 	push	{r4, r5, r6, lr}
   1136c:	e1a05000 	mov	r5, r0
   11370:	e1a04001 	mov	r4, r1
   11374:	ebfffb69 	bl	10120 <disable>
   11378:	e3550063 	cmp	r5, #99	; 0x63
   1137c:	e1a06000 	mov	r6, r0
   11380:	8a000008 	bhi	113a8 <signaln+0x40>
   11384:	e3a0300c 	mov	r3, #12
   11388:	e0030593 	mul	r3, r3, r5
   1138c:	e59f2064 	ldr	r2, [pc, #100]	; 113f8 <signaln+0x90>
   11390:	e0825003 	add	r5, r2, r3
   11394:	e7d23003 	ldrb	r3, [r2, r3]
   11398:	e3530001 	cmp	r3, #1
   1139c:	0a000001 	beq	113a8 <signaln+0x40>
   113a0:	e3540000 	cmp	r4, #0
   113a4:	ca000003 	bgt	113b8 <signaln+0x50>
   113a8:	e1a00006 	mov	r0, r6
   113ac:	ebfffb5e 	bl	1012c <restore>
   113b0:	e3e00000 	mvn	r0, #0
   113b4:	e8bd8070 	pop	{r4, r5, r6, pc}
   113b8:	e5953004 	ldr	r3, [r5, #4]
   113bc:	e2832001 	add	r2, r3, #1
   113c0:	e3530000 	cmp	r3, #0
   113c4:	e5852004 	str	r2, [r5, #4]
   113c8:	aa000003 	bge	113dc <signaln+0x74>
   113cc:	e5950008 	ldr	r0, [r5, #8]
   113d0:	ebfffcb2 	bl	106a0 <dequeue>
   113d4:	e3a01000 	mov	r1, #0
   113d8:	ebfffd79 	bl	109c4 <ready>
   113dc:	e2544001 	subs	r4, r4, #1
   113e0:	1afffff4 	bne	113b8 <signaln+0x50>
   113e4:	ebfffd91 	bl	10a30 <resched>
   113e8:	e1a00006 	mov	r0, r6
   113ec:	ebfffb4e 	bl	1012c <restore>
   113f0:	e3a00001 	mov	r0, #1
   113f4:	e8bd8070 	pop	{r4, r5, r6, pc}
   113f8:	00022820 	.word	0x00022820

000113fc <wait>:
   113fc:	e92d4038 	push	{r3, r4, r5, lr}
   11400:	e1a04000 	mov	r4, r0
   11404:	ebfffb45 	bl	10120 <disable>
   11408:	e3540063 	cmp	r4, #99	; 0x63
   1140c:	e1a05000 	mov	r5, r0
   11410:	8a000006 	bhi	11430 <wait+0x34>
   11414:	e3a0200c 	mov	r2, #12
   11418:	e0020492 	mul	r2, r2, r4
   1141c:	e59f1070 	ldr	r1, [pc, #112]	; 11494 <wait+0x98>
   11420:	e0813002 	add	r3, r1, r2
   11424:	e7d12002 	ldrb	r2, [r1, r2]
   11428:	e3520001 	cmp	r2, #1
   1142c:	1a000003 	bne	11440 <wait+0x44>
   11430:	e1a00005 	mov	r0, r5
   11434:	ebfffb3c 	bl	1012c <restore>
   11438:	e3e00000 	mvn	r0, #0
   1143c:	e8bd8038 	pop	{r3, r4, r5, pc}
   11440:	e59f2050 	ldr	r2, [pc, #80]	; 11498 <wait+0x9c>
   11444:	e5920000 	ldr	r0, [r2]
   11448:	e5932004 	ldr	r2, [r3, #4]
   1144c:	e2422001 	sub	r2, r2, #1
   11450:	e3520000 	cmp	r2, #0
   11454:	e5832004 	str	r2, [r3, #4]
   11458:	aa000009 	bge	11484 <wait+0x88>
   1145c:	e3a01054 	mov	r1, #84	; 0x54
   11460:	e0010091 	mul	r1, r1, r0
   11464:	e59f2030 	ldr	r2, [pc, #48]	; 1149c <wait+0xa0>
   11468:	e3a0e007 	mov	lr, #7
   1146c:	e081c002 	add	ip, r1, r2
   11470:	e7c1e002 	strb	lr, [r1, r2]
   11474:	e58c4028 	str	r4, [ip, #40]	; 0x28
   11478:	e5931008 	ldr	r1, [r3, #8]
   1147c:	ebfffc6b 	bl	10630 <enqueue>
   11480:	ebfffd6a 	bl	10a30 <resched>
   11484:	e1a00005 	mov	r0, r5
   11488:	ebfffb27 	bl	1012c <restore>
   1148c:	e3a00001 	mov	r0, #1
   11490:	e8bd8038 	pop	{r3, r4, r5, pc}
   11494:	00022820 	.word	0x00022820
   11498:	0002281c 	.word	0x0002281c
   1149c:	0002074c 	.word	0x0002074c

000114a0 <memget>:
   114a0:	e3500000 	cmp	r0, #0
   114a4:	e92d4038 	push	{r3, r4, r5, lr}
   114a8:	0a00001d 	beq	11524 <memget+0x84>
   114ac:	e2805007 	add	r5, r0, #7
   114b0:	ebfffb1a 	bl	10120 <disable>
   114b4:	e59f3074 	ldr	r3, [pc, #116]	; 11530 <memget+0x90>
   114b8:	e3c55007 	bic	r5, r5, #7
   114bc:	e5934000 	ldr	r4, [r3]
   114c0:	ea000014 	b	11518 <memget+0x78>
   114c4:	e5942004 	ldr	r2, [r4, #4]
   114c8:	e1520005 	cmp	r2, r5
   114cc:	05942000 	ldreq	r2, [r4]
   114d0:	05832000 	streq	r2, [r3]
   114d4:	0a000007 	beq	114f8 <memget+0x58>
   114d8:	9a00000c 	bls	11510 <memget+0x70>
   114dc:	e0842005 	add	r2, r4, r5
   114e0:	e5832000 	str	r2, [r3]
   114e4:	e5943000 	ldr	r3, [r4]
   114e8:	e7843005 	str	r3, [r4, r5]
   114ec:	e5943004 	ldr	r3, [r4, #4]
   114f0:	e0653003 	rsb	r3, r5, r3
   114f4:	e5823004 	str	r3, [r2, #4]
   114f8:	e59f3030 	ldr	r3, [pc, #48]	; 11530 <memget+0x90>
   114fc:	e5932004 	ldr	r2, [r3, #4]
   11500:	e0655002 	rsb	r5, r5, r2
   11504:	e5835004 	str	r5, [r3, #4]
   11508:	ebfffb07 	bl	1012c <restore>
   1150c:	ea000005 	b	11528 <memget+0x88>
   11510:	e1a03004 	mov	r3, r4
   11514:	e5944000 	ldr	r4, [r4]
   11518:	e3540000 	cmp	r4, #0
   1151c:	1affffe8 	bne	114c4 <memget+0x24>
   11520:	ebfffb01 	bl	1012c <restore>
   11524:	e3e04000 	mvn	r4, #0
   11528:	e1a00004 	mov	r0, r4
   1152c:	e8bd8038 	pop	{r3, r4, r5, pc}
   11530:	00020744 	.word	0x00020744

00011534 <memfree>:
   11534:	e3510000 	cmp	r1, #0
   11538:	e92d4038 	push	{r3, r4, r5, lr}
   1153c:	e1a04000 	mov	r4, r0
   11540:	0a000038 	beq	11628 <memfree+0xf4>
   11544:	e59f30e4 	ldr	r3, [pc, #228]	; 11630 <memfree+0xfc>
   11548:	e5933000 	ldr	r3, [r3]
   1154c:	e1530000 	cmp	r3, r0
   11550:	8a000034 	bhi	11628 <memfree+0xf4>
   11554:	e59f30d8 	ldr	r3, [pc, #216]	; 11634 <memfree+0x100>
   11558:	e5933028 	ldr	r3, [r3, #40]	; 0x28
   1155c:	e1530000 	cmp	r3, r0
   11560:	3a000030 	bcc	11628 <memfree+0xf4>
   11564:	e2815007 	add	r5, r1, #7
   11568:	ebfffaec 	bl	10120 <disable>
   1156c:	e59f20c4 	ldr	r2, [pc, #196]	; 11638 <memfree+0x104>
   11570:	e3c55007 	bic	r5, r5, #7
   11574:	e5923000 	ldr	r3, [r2]
   11578:	ea000001 	b	11584 <memfree+0x50>
   1157c:	e1a02003 	mov	r2, r3
   11580:	e5933000 	ldr	r3, [r3]
   11584:	e3530000 	cmp	r3, #0
   11588:	11530004 	cmpne	r3, r4
   1158c:	23a01000 	movcs	r1, #0
   11590:	33a01001 	movcc	r1, #1
   11594:	3afffff8 	bcc	1157c <memfree+0x48>
   11598:	e59fc098 	ldr	ip, [pc, #152]	; 11638 <memfree+0x104>
   1159c:	e152000c 	cmp	r2, ip
   115a0:	0a000003 	beq	115b4 <memfree+0x80>
   115a4:	e5921004 	ldr	r1, [r2, #4]
   115a8:	e0821001 	add	r1, r2, r1
   115ac:	e1510004 	cmp	r1, r4
   115b0:	8a000004 	bhi	115c8 <memfree+0x94>
   115b4:	e3530000 	cmp	r3, #0
   115b8:	0a000004 	beq	115d0 <memfree+0x9c>
   115bc:	e084c005 	add	ip, r4, r5
   115c0:	e153000c 	cmp	r3, ip
   115c4:	2a000001 	bcs	115d0 <memfree+0x9c>
   115c8:	ebfffad7 	bl	1012c <restore>
   115cc:	ea000015 	b	11628 <memfree+0xf4>
   115d0:	e59fc060 	ldr	ip, [pc, #96]	; 11638 <memfree+0x104>
   115d4:	e1510004 	cmp	r1, r4
   115d8:	e59ce004 	ldr	lr, [ip, #4]
   115dc:	01a04002 	moveq	r4, r2
   115e0:	e085e00e 	add	lr, r5, lr
   115e4:	e58ce004 	str	lr, [ip, #4]
   115e8:	05921004 	ldreq	r1, [r2, #4]
   115ec:	18840028 	stmne	r4, {r3, r5}
   115f0:	00815005 	addeq	r5, r1, r5
   115f4:	05825004 	streq	r5, [r2, #4]
   115f8:	15824000 	strne	r4, [r2]
   115fc:	e5942004 	ldr	r2, [r4, #4]
   11600:	e0841002 	add	r1, r4, r2
   11604:	e1530001 	cmp	r3, r1
   11608:	05931004 	ldreq	r1, [r3, #4]
   1160c:	00812002 	addeq	r2, r1, r2
   11610:	05842004 	streq	r2, [r4, #4]
   11614:	05933000 	ldreq	r3, [r3]
   11618:	05843000 	streq	r3, [r4]
   1161c:	ebfffac2 	bl	1012c <restore>
   11620:	e3a00001 	mov	r0, #1
   11624:	e8bd8038 	pop	{r3, r4, r5, pc}
   11628:	e3e00000 	mvn	r0, #0
   1162c:	e8bd8038 	pop	{r3, r4, r5, pc}
   11630:	00020704 	.word	0x00020704
   11634:	00020708 	.word	0x00020708
   11638:	00020744 	.word	0x00020744

0001163c <stkget>:
   1163c:	e3500000 	cmp	r0, #0
   11640:	e92d4038 	push	{r3, r4, r5, lr}
   11644:	0a000022 	beq	116d4 <stkget+0x98>
   11648:	e2805007 	add	r5, r0, #7
   1164c:	ebfffab3 	bl	10120 <disable>
   11650:	e59f1084 	ldr	r1, [pc, #132]	; 116dc <stkget+0xa0>
   11654:	e3a02000 	mov	r2, #0
   11658:	e3c55007 	bic	r5, r5, #7
   1165c:	e5913000 	ldr	r3, [r1]
   11660:	e1a04002 	mov	r4, r2
   11664:	ea000005 	b	11680 <stkget+0x44>
   11668:	e593c004 	ldr	ip, [r3, #4]
   1166c:	e15c0005 	cmp	ip, r5
   11670:	21a02001 	movcs	r2, r1
   11674:	21a04003 	movcs	r4, r3
   11678:	e1a01003 	mov	r1, r3
   1167c:	e5933000 	ldr	r3, [r3]
   11680:	e3530000 	cmp	r3, #0
   11684:	1afffff7 	bne	11668 <stkget+0x2c>
   11688:	e3540000 	cmp	r4, #0
   1168c:	1a000001 	bne	11698 <stkget+0x5c>
   11690:	ebfffaa5 	bl	1012c <restore>
   11694:	ea00000e 	b	116d4 <stkget+0x98>
   11698:	e5943004 	ldr	r3, [r4, #4]
   1169c:	e1550003 	cmp	r5, r3
   116a0:	05943000 	ldreq	r3, [r4]
   116a4:	10653003 	rsbne	r3, r5, r3
   116a8:	15843004 	strne	r3, [r4, #4]
   116ac:	05823000 	streq	r3, [r2]
   116b0:	10844003 	addne	r4, r4, r3
   116b4:	e59f3020 	ldr	r3, [pc, #32]	; 116dc <stkget+0xa0>
   116b8:	e5932004 	ldr	r2, [r3, #4]
   116bc:	e0652002 	rsb	r2, r5, r2
   116c0:	e2455004 	sub	r5, r5, #4
   116c4:	e5832004 	str	r2, [r3, #4]
   116c8:	ebfffa97 	bl	1012c <restore>
   116cc:	e0840005 	add	r0, r4, r5
   116d0:	e8bd8038 	pop	{r3, r4, r5, pc}
   116d4:	e3e00000 	mvn	r0, #0
   116d8:	e8bd8038 	pop	{r3, r4, r5, pc}
   116dc:	00020744 	.word	0x00020744

000116e0 <bfpalloc>:
   116e0:	e92d45f8 	push	{r3, r4, r5, r6, r7, r8, sl, lr}
   116e4:	e2800003 	add	r0, r0, #3
   116e8:	e59f30f8 	ldr	r3, [pc, #248]	; 117e8 <bfpalloc+0x108>
   116ec:	e3c00003 	bic	r0, r0, #3
   116f0:	e1500003 	cmp	r0, r3
   116f4:	e1a07001 	mov	r7, r1
   116f8:	e280a008 	add	sl, r0, #8
   116fc:	8a00002c 	bhi	117b4 <bfpalloc+0xd4>
   11700:	e2413001 	sub	r3, r1, #1
   11704:	e3530a02 	cmp	r3, #8192	; 0x2000
   11708:	2a000029 	bcs	117b4 <bfpalloc+0xd4>
   1170c:	ebfffa83 	bl	10120 <disable>
   11710:	e59f30d4 	ldr	r3, [pc, #212]	; 117ec <bfpalloc+0x10c>
   11714:	e3a04000 	mov	r4, #0
   11718:	e3a01018 	mov	r1, #24
   1171c:	e0020491 	mul	r2, r1, r4
   11720:	e7d28003 	ldrb	r8, [r2, r3]
   11724:	e0825003 	add	r5, r2, r3
   11728:	e3580001 	cmp	r8, #1
   1172c:	0a000022 	beq	117bc <bfpalloc+0xdc>
   11730:	e2844001 	add	r4, r4, #1
   11734:	e3540008 	cmp	r4, #8
   11738:	1afffff7 	bne	1171c <bfpalloc+0x3c>
   1173c:	ea00001b 	b	117b0 <bfpalloc+0xd0>
   11740:	e5c58000 	strb	r8, [r5]
   11744:	e1a04000 	mov	r4, r0
   11748:	ea000024 	b	117e0 <bfpalloc+0x100>
   1174c:	e5857008 	str	r7, [r5, #8]
   11750:	e585a004 	str	sl, [r5, #4]
   11754:	e0000a97 	mul	r0, r7, sl
   11758:	ebffff50 	bl	114a0 <memget>
   1175c:	e3700001 	cmn	r0, #1
   11760:	e1a06000 	mov	r6, r0
   11764:	15850010 	strne	r0, [r5, #16]
   11768:	1585000c 	strne	r0, [r5, #12]
   1176c:	13a01000 	movne	r1, #0
   11770:	1a000004 	bne	11788 <bfpalloc+0xa8>
   11774:	e5950014 	ldr	r0, [r5, #20]
   11778:	ebfffea7 	bl	1121c <semfree>
   1177c:	e1a04006 	mov	r4, r6
   11780:	e5c58000 	strb	r8, [r5]
   11784:	ea000015 	b	117e0 <bfpalloc+0x100>
   11788:	e2811001 	add	r1, r1, #1
   1178c:	e086300a 	add	r3, r6, sl
   11790:	e1510007 	cmp	r1, r7
   11794:	e5864004 	str	r4, [r6, #4]
   11798:	e5863000 	str	r3, [r6]
   1179c:	e1a06003 	mov	r6, r3
   117a0:	1afffff8 	bne	11788 <bfpalloc+0xa8>
   117a4:	e5950014 	ldr	r0, [r5, #20]
   117a8:	ebfffeee 	bl	11368 <signaln>
   117ac:	ea00000b 	b	117e0 <bfpalloc+0x100>
   117b0:	ebfffa5d 	bl	1012c <restore>
   117b4:	e3e04000 	mvn	r4, #0
   117b8:	ea000008 	b	117e0 <bfpalloc+0x100>
   117bc:	e3a03002 	mov	r3, #2
   117c0:	e5c53000 	strb	r3, [r5]
   117c4:	ebfffa58 	bl	1012c <restore>
   117c8:	e3a00000 	mov	r0, #0
   117cc:	ebfffe6a 	bl	1117c <semcreate>
   117d0:	e3700001 	cmn	r0, #1
   117d4:	e5850014 	str	r0, [r5, #20]
   117d8:	1affffdb 	bne	1174c <bfpalloc+0x6c>
   117dc:	eaffffd7 	b	11740 <bfpalloc+0x60>
   117e0:	e1a00004 	mov	r0, r4
   117e4:	e8bd85f8 	pop	{r3, r4, r5, r6, r7, r8, sl, pc}
   117e8:	000007f8 	.word	0x000007f8
   117ec:	00022cd0 	.word	0x00022cd0

000117f0 <bfpfree>:
   117f0:	e3500007 	cmp	r0, #7
   117f4:	e92d41f0 	push	{r4, r5, r6, r7, r8, lr}
   117f8:	8a00001e 	bhi	11878 <bfpfree+0x88>
   117fc:	e3a06018 	mov	r6, #24
   11800:	e0060096 	mul	r6, r6, r0
   11804:	e59f7074 	ldr	r7, [pc, #116]	; 11880 <bfpfree+0x90>
   11808:	e7d73006 	ldrb	r3, [r7, r6]
   1180c:	e0874006 	add	r4, r7, r6
   11810:	e3530001 	cmp	r3, #1
   11814:	0a000017 	beq	11878 <bfpfree+0x88>
   11818:	ebfffa40 	bl	10120 <disable>
   1181c:	e3a08001 	mov	r8, #1
   11820:	e7c78006 	strb	r8, [r7, r6]
   11824:	e5943004 	ldr	r3, [r4, #4]
   11828:	e5941008 	ldr	r1, [r4, #8]
   1182c:	e1a05000 	mov	r5, r0
   11830:	e0010391 	mul	r1, r1, r3
   11834:	e594000c 	ldr	r0, [r4, #12]
   11838:	ebffff3d 	bl	11534 <memfree>
   1183c:	e3700001 	cmn	r0, #1
   11840:	e1a06000 	mov	r6, r0
   11844:	01a00005 	moveq	r0, r5
   11848:	0a000005 	beq	11864 <bfpfree+0x74>
   1184c:	e5940014 	ldr	r0, [r4, #20]
   11850:	ebfffe71 	bl	1121c <semfree>
   11854:	e1a04000 	mov	r4, r0
   11858:	e3740001 	cmn	r4, #1
   1185c:	e1a00005 	mov	r0, r5
   11860:	1a000001 	bne	1186c <bfpfree+0x7c>
   11864:	ebfffa30 	bl	1012c <restore>
   11868:	ea000002 	b	11878 <bfpfree+0x88>
   1186c:	ebfffa2e 	bl	1012c <restore>
   11870:	e1a00008 	mov	r0, r8
   11874:	e8bd81f0 	pop	{r4, r5, r6, r7, r8, pc}
   11878:	e3e00000 	mvn	r0, #0
   1187c:	e8bd81f0 	pop	{r4, r5, r6, r7, r8, pc}
   11880:	00022cd0 	.word	0x00022cd0

00011884 <bufget>:
   11884:	e3500007 	cmp	r0, #7
   11888:	e92d4070 	push	{r4, r5, r6, lr}
   1188c:	8a000012 	bhi	118dc <bufget+0x58>
   11890:	e3a02018 	mov	r2, #24
   11894:	e0000092 	mul	r0, r2, r0
   11898:	e59f3044 	ldr	r3, [pc, #68]	; 118e4 <bufget+0x60>
   1189c:	e0835000 	add	r5, r3, r0
   118a0:	e7d33000 	ldrb	r3, [r3, r0]
   118a4:	e3530001 	cmp	r3, #1
   118a8:	0a00000b 	beq	118dc <bufget+0x58>
   118ac:	ebfffa1b 	bl	10120 <disable>
   118b0:	e1a06000 	mov	r6, r0
   118b4:	e5950014 	ldr	r0, [r5, #20]
   118b8:	ebfffecf 	bl	113fc <wait>
   118bc:	e5954010 	ldr	r4, [r5, #16]
   118c0:	e1a00006 	mov	r0, r6
   118c4:	e5943000 	ldr	r3, [r4]
   118c8:	e5853010 	str	r3, [r5, #16]
   118cc:	ebfffa16 	bl	1012c <restore>
   118d0:	e5844000 	str	r4, [r4]
   118d4:	e2840008 	add	r0, r4, #8
   118d8:	e8bd8070 	pop	{r4, r5, r6, pc}
   118dc:	e3e00000 	mvn	r0, #0
   118e0:	e8bd8070 	pop	{r4, r5, r6, pc}
   118e4:	00022cd0 	.word	0x00022cd0

000118e8 <buffree>:
   118e8:	e92d4070 	push	{r4, r5, r6, lr}
   118ec:	e5103004 	ldr	r3, [r0, #-4]
   118f0:	e1a04000 	mov	r4, r0
   118f4:	e3530007 	cmp	r3, #7
   118f8:	e2401008 	sub	r1, r0, #8
   118fc:	8a000013 	bhi	11950 <buffree+0x68>
   11900:	e3a00018 	mov	r0, #24
   11904:	e0030390 	mul	r3, r0, r3
   11908:	e59f2048 	ldr	r2, [pc, #72]	; 11958 <buffree+0x70>
   1190c:	e0825003 	add	r5, r2, r3
   11910:	e7d23003 	ldrb	r3, [r2, r3]
   11914:	e3530001 	cmp	r3, #1
   11918:	0a00000c 	beq	11950 <buffree+0x68>
   1191c:	e5146008 	ldr	r6, [r4, #-8]
   11920:	e1560001 	cmp	r6, r1
   11924:	1a000009 	bne	11950 <buffree+0x68>
   11928:	ebfff9fc 	bl	10120 <disable>
   1192c:	e5953010 	ldr	r3, [r5, #16]
   11930:	e5043008 	str	r3, [r4, #-8]
   11934:	e5856010 	str	r6, [r5, #16]
   11938:	ebfff9fb 	bl	1012c <restore>
   1193c:	e5950014 	ldr	r0, [r5, #20]
   11940:	e3a01001 	mov	r1, #1
   11944:	ebfffe87 	bl	11368 <signaln>
   11948:	e3a00001 	mov	r0, #1
   1194c:	e8bd8070 	pop	{r4, r5, r6, pc}
   11950:	e3e00000 	mvn	r0, #0
   11954:	e8bd8070 	pop	{r4, r5, r6, pc}
   11958:	00022cd0 	.word	0x00022cd0

0001195c <send>:
   1195c:	e92d4070 	push	{r4, r5, r6, lr}
   11960:	e1a04000 	mov	r4, r0
   11964:	e1a05001 	mov	r5, r1
   11968:	ebfff9ec 	bl	10120 <disable>
   1196c:	e3540063 	cmp	r4, #99	; 0x63
   11970:	e1a06000 	mov	r6, r0
   11974:	8a000006 	bhi	11994 <send+0x38>
   11978:	e3a03054 	mov	r3, #84	; 0x54
   1197c:	e0030493 	mul	r3, r3, r4
   11980:	e59fc06c 	ldr	ip, [pc, #108]	; 119f4 <send+0x98>
   11984:	e08c2003 	add	r2, ip, r3
   11988:	e7dc3003 	ldrb	r3, [ip, r3]
   1198c:	e3530002 	cmp	r3, #2
   11990:	1a000001 	bne	1199c <send+0x40>
   11994:	e1a00006 	mov	r0, r6
   11998:	ea000002 	b	119a8 <send+0x4c>
   1199c:	e5d21034 	ldrb	r1, [r2, #52]	; 0x34
   119a0:	e3510000 	cmp	r1, #0
   119a4:	0a000002 	beq	119b4 <send+0x58>
   119a8:	ebfff9df 	bl	1012c <restore>
   119ac:	e3e00000 	mvn	r0, #0
   119b0:	e8bd8070 	pop	{r4, r5, r6, pc}
   119b4:	e5825030 	str	r5, [r2, #48]	; 0x30
   119b8:	e3530004 	cmp	r3, #4
   119bc:	e3a05001 	mov	r5, #1
   119c0:	e5c25034 	strb	r5, [r2, #52]	; 0x34
   119c4:	0a000003 	beq	119d8 <send+0x7c>
   119c8:	e3530008 	cmp	r3, #8
   119cc:	1a000004 	bne	119e4 <send+0x88>
   119d0:	e1a00004 	mov	r0, r4
   119d4:	ebfffdac 	bl	1108c <unsleep>
   119d8:	e1a00004 	mov	r0, r4
   119dc:	e1a01005 	mov	r1, r5
   119e0:	ebfffbf7 	bl	109c4 <ready>
   119e4:	e1a00006 	mov	r0, r6
   119e8:	ebfff9cf 	bl	1012c <restore>
   119ec:	e3a00001 	mov	r0, #1
   119f0:	e8bd8070 	pop	{r4, r5, r6, pc}
   119f4:	0002074c 	.word	0x0002074c

000119f8 <receive>:
   119f8:	e92d4070 	push	{r4, r5, r6, lr}
   119fc:	ebfff9c7 	bl	10120 <disable>
   11a00:	e59f3048 	ldr	r3, [pc, #72]	; 11a50 <receive+0x58>
   11a04:	e3a02054 	mov	r2, #84	; 0x54
   11a08:	e5933000 	ldr	r3, [r3]
   11a0c:	e1a06000 	mov	r6, r0
   11a10:	e0020392 	mul	r2, r2, r3
   11a14:	e59f3038 	ldr	r3, [pc, #56]	; 11a54 <receive+0x5c>
   11a18:	e0824003 	add	r4, r2, r3
   11a1c:	e5d41034 	ldrb	r1, [r4, #52]	; 0x34
   11a20:	e3510000 	cmp	r1, #0
   11a24:	1a000002 	bne	11a34 <receive+0x3c>
   11a28:	e3a01004 	mov	r1, #4
   11a2c:	e7c21003 	strb	r1, [r2, r3]
   11a30:	ebfffbfe 	bl	10a30 <resched>
   11a34:	e5945030 	ldr	r5, [r4, #48]	; 0x30
   11a38:	e3a03000 	mov	r3, #0
   11a3c:	e5c43034 	strb	r3, [r4, #52]	; 0x34
   11a40:	e1a00006 	mov	r0, r6
   11a44:	ebfff9b8 	bl	1012c <restore>
   11a48:	e1a00005 	mov	r0, r5
   11a4c:	e8bd8070 	pop	{r4, r5, r6, pc}
   11a50:	0002281c 	.word	0x0002281c
   11a54:	0002074c 	.word	0x0002074c

00011a58 <recvclr>:
   11a58:	e92d4010 	push	{r4, lr}
   11a5c:	ebfff9af 	bl	10120 <disable>
   11a60:	e59f3030 	ldr	r3, [pc, #48]	; 11a98 <recvclr+0x40>
   11a64:	e59f2030 	ldr	r2, [pc, #48]	; 11a9c <recvclr+0x44>
   11a68:	e5933000 	ldr	r3, [r3]
   11a6c:	e3a01054 	mov	r1, #84	; 0x54
   11a70:	e0232391 	mla	r3, r1, r3, r2
   11a74:	e5d32034 	ldrb	r2, [r3, #52]	; 0x34
   11a78:	e3520000 	cmp	r2, #0
   11a7c:	15934030 	ldrne	r4, [r3, #48]	; 0x30
   11a80:	e3a02000 	mov	r2, #0
   11a84:	03e04003 	mvneq	r4, #3
   11a88:	e5c32034 	strb	r2, [r3, #52]	; 0x34
   11a8c:	ebfff9a6 	bl	1012c <restore>
   11a90:	e1a00004 	mov	r0, r4
   11a94:	e8bd8010 	pop	{r4, pc}
   11a98:	0002281c 	.word	0x0002281c
   11a9c:	0002074c 	.word	0x0002074c

00011aa0 <recvtime>:
   11aa0:	e92d45f8 	push	{r3, r4, r5, r6, r7, r8, sl, lr}
   11aa4:	e2505000 	subs	r5, r0, #0
   11aa8:	ba00001e 	blt	11b28 <recvtime+0x88>
   11aac:	ebfff99b 	bl	10120 <disable>
   11ab0:	e59fa07c 	ldr	sl, [pc, #124]	; 11b34 <recvtime+0x94>
   11ab4:	e1a06000 	mov	r6, r0
   11ab8:	e59f7078 	ldr	r7, [pc, #120]	; 11b38 <recvtime+0x98>
   11abc:	e59a0000 	ldr	r0, [sl]
   11ac0:	e3a08054 	mov	r8, #84	; 0x54
   11ac4:	e0247098 	mla	r4, r8, r0, r7
   11ac8:	e5d43034 	ldrb	r3, [r4, #52]	; 0x34
   11acc:	e3530000 	cmp	r3, #0
   11ad0:	1a00000b 	bne	11b04 <recvtime+0x64>
   11ad4:	e59f3060 	ldr	r3, [pc, #96]	; 11b3c <recvtime+0x9c>
   11ad8:	e1a02005 	mov	r2, r5
   11adc:	e5931000 	ldr	r1, [r3]
   11ae0:	ebfffd0f 	bl	10f24 <insertd>
   11ae4:	e3700001 	cmn	r0, #1
   11ae8:	e1a05000 	mov	r5, r0
   11aec:	0a00000a 	beq	11b1c <recvtime+0x7c>
   11af0:	e59a3000 	ldr	r3, [sl]
   11af4:	e0080398 	mul	r8, r8, r3
   11af8:	e3a03008 	mov	r3, #8
   11afc:	e7c73008 	strb	r3, [r7, r8]
   11b00:	ebfffbca 	bl	10a30 <resched>
   11b04:	e5d43034 	ldrb	r3, [r4, #52]	; 0x34
   11b08:	e3530000 	cmp	r3, #0
   11b0c:	13a03000 	movne	r3, #0
   11b10:	15945030 	ldrne	r5, [r4, #48]	; 0x30
   11b14:	15c43034 	strbne	r3, [r4, #52]	; 0x34
   11b18:	03e05002 	mvneq	r5, #2
   11b1c:	e1a00006 	mov	r0, r6
   11b20:	ebfff981 	bl	1012c <restore>
   11b24:	ea000000 	b	11b2c <recvtime+0x8c>
   11b28:	e3e05000 	mvn	r5, #0
   11b2c:	e1a00005 	mov	r0, r5
   11b30:	e8bd85f8 	pop	{r3, r4, r5, r6, r7, r8, sl, pc}
   11b34:	0002281c 	.word	0x0002281c
   11b38:	0002074c 	.word	0x0002074c
   11b3c:	00023be4 	.word	0x00023be4

00011b40 <close>:
   11b40:	e3500004 	cmp	r0, #4
   11b44:	e92d4008 	push	{r3, lr}
   11b48:	8a000005 	bhi	11b64 <close+0x24>
   11b4c:	e59f3018 	ldr	r3, [pc, #24]	; 11b6c <close+0x2c>
   11b50:	e3a0203c 	mov	r2, #60	; 0x3c
   11b54:	e0203092 	mla	r0, r2, r0, r3
   11b58:	e5903014 	ldr	r3, [r0, #20]
   11b5c:	e12fff33 	blx	r3
   11b60:	e8bd8008 	pop	{r3, pc}
   11b64:	e3e00000 	mvn	r0, #0
   11b68:	e8bd8008 	pop	{r3, pc}
   11b6c:	0001fb88 	.word	0x0001fb88

00011b70 <control>:
   11b70:	e3500004 	cmp	r0, #4
   11b74:	e92d4008 	push	{r3, lr}
   11b78:	8a000005 	bhi	11b94 <control+0x24>
   11b7c:	e59fc018 	ldr	ip, [pc, #24]	; 11b9c <control+0x2c>
   11b80:	e3a0e03c 	mov	lr, #60	; 0x3c
   11b84:	e020c09e 	mla	r0, lr, r0, ip
   11b88:	e590c02c 	ldr	ip, [r0, #44]	; 0x2c
   11b8c:	e12fff3c 	blx	ip
   11b90:	e8bd8008 	pop	{r3, pc}
   11b94:	e3e00000 	mvn	r0, #0
   11b98:	e8bd8008 	pop	{r3, pc}
   11b9c:	0001fb88 	.word	0x0001fb88

00011ba0 <getc>:
   11ba0:	e3500004 	cmp	r0, #4
   11ba4:	e92d4008 	push	{r3, lr}
   11ba8:	8a000005 	bhi	11bc4 <getc+0x24>
   11bac:	e59f3018 	ldr	r3, [pc, #24]	; 11bcc <getc+0x2c>
   11bb0:	e3a0203c 	mov	r2, #60	; 0x3c
   11bb4:	e0203092 	mla	r0, r2, r0, r3
   11bb8:	e5903024 	ldr	r3, [r0, #36]	; 0x24
   11bbc:	e12fff33 	blx	r3
   11bc0:	e8bd8008 	pop	{r3, pc}
   11bc4:	e3e00000 	mvn	r0, #0
   11bc8:	e8bd8008 	pop	{r3, pc}
   11bcc:	0001fb88 	.word	0x0001fb88

00011bd0 <open>:
   11bd0:	e92d000f 	push	{r0, r1, r2, r3}
   11bd4:	e92d4007 	push	{r0, r1, r2, lr}
   11bd8:	e59d3010 	ldr	r3, [sp, #16]
   11bdc:	e3530004 	cmp	r3, #4
   11be0:	8a000007 	bhi	11c04 <open+0x34>
   11be4:	e59f2028 	ldr	r2, [pc, #40]	; 11c14 <open+0x44>
   11be8:	e3a0003c 	mov	r0, #60	; 0x3c
   11bec:	e0202390 	mla	r0, r0, r3, r2
   11bf0:	e28d1014 	add	r1, sp, #20
   11bf4:	e5903010 	ldr	r3, [r0, #16]
   11bf8:	e58d1004 	str	r1, [sp, #4]
   11bfc:	e12fff33 	blx	r3
   11c00:	ea000000 	b	11c08 <open+0x38>
   11c04:	e3e00000 	mvn	r0, #0
   11c08:	e8bd400e 	pop	{r1, r2, r3, lr}
   11c0c:	e28dd010 	add	sp, sp, #16
   11c10:	e12fff1e 	bx	lr
   11c14:	0001fb88 	.word	0x0001fb88

00011c18 <ioerr>:
   11c18:	e3e00000 	mvn	r0, #0
   11c1c:	e12fff1e 	bx	lr

00011c20 <ionull>:
   11c20:	e3a00001 	mov	r0, #1
   11c24:	e12fff1e 	bx	lr

00011c28 <read>:
   11c28:	e3500004 	cmp	r0, #4
   11c2c:	e92d4008 	push	{r3, lr}
   11c30:	8a000005 	bhi	11c4c <read+0x24>
   11c34:	e59f3018 	ldr	r3, [pc, #24]	; 11c54 <read+0x2c>
   11c38:	e3a0c03c 	mov	ip, #60	; 0x3c
   11c3c:	e020309c 	mla	r0, ip, r0, r3
   11c40:	e5903018 	ldr	r3, [r0, #24]
   11c44:	e12fff33 	blx	r3
   11c48:	e8bd8008 	pop	{r3, pc}
   11c4c:	e3e00000 	mvn	r0, #0
   11c50:	e8bd8008 	pop	{r3, pc}
   11c54:	0001fb88 	.word	0x0001fb88

00011c58 <putc>:
   11c58:	e3500004 	cmp	r0, #4
   11c5c:	e92d4008 	push	{r3, lr}
   11c60:	8a000005 	bhi	11c7c <putc+0x24>
   11c64:	e59f3018 	ldr	r3, [pc, #24]	; 11c84 <putc+0x2c>
   11c68:	e3a0203c 	mov	r2, #60	; 0x3c
   11c6c:	e0203092 	mla	r0, r2, r0, r3
   11c70:	e5903028 	ldr	r3, [r0, #40]	; 0x28
   11c74:	e12fff33 	blx	r3
   11c78:	e8bd8008 	pop	{r3, pc}
   11c7c:	e3e00000 	mvn	r0, #0
   11c80:	e8bd8008 	pop	{r3, pc}
   11c84:	0001fb88 	.word	0x0001fb88

00011c88 <write>:
   11c88:	e3500004 	cmp	r0, #4
   11c8c:	e92d4008 	push	{r3, lr}
   11c90:	8a000005 	bhi	11cac <write+0x24>
   11c94:	e59f3018 	ldr	r3, [pc, #24]	; 11cb4 <write+0x2c>
   11c98:	e3a0c03c 	mov	ip, #60	; 0x3c
   11c9c:	e020309c 	mla	r0, ip, r0, r3
   11ca0:	e590301c 	ldr	r3, [r0, #28]
   11ca4:	e12fff33 	blx	r3
   11ca8:	e8bd8008 	pop	{r3, pc}
   11cac:	e3e00000 	mvn	r0, #0
   11cb0:	e8bd8008 	pop	{r3, pc}
   11cb4:	0001fb88 	.word	0x0001fb88

00011cb8 <getdev>:
   11cb8:	e92d4070 	push	{r4, r5, r6, lr}
   11cbc:	e59f5038 	ldr	r5, [pc, #56]	; 11cfc <getdev+0x44>
   11cc0:	e1a06000 	mov	r6, r0
   11cc4:	e3a04000 	mov	r4, #0
   11cc8:	e1a00006 	mov	r0, r6
   11ccc:	e5951008 	ldr	r1, [r5, #8]
   11cd0:	e3a02014 	mov	r2, #20
   11cd4:	eb002851 	bl	1be20 <strncmp>
   11cd8:	e3500000 	cmp	r0, #0
   11cdc:	0a000004 	beq	11cf4 <getdev+0x3c>
   11ce0:	e2844001 	add	r4, r4, #1
   11ce4:	e3540005 	cmp	r4, #5
   11ce8:	e285503c 	add	r5, r5, #60	; 0x3c
   11cec:	1afffff5 	bne	11cc8 <getdev+0x10>
   11cf0:	e3e04000 	mvn	r4, #0
   11cf4:	e1a00004 	mov	r0, r4
   11cf8:	e8bd8070 	pop	{r4, r5, r6, pc}
   11cfc:	0001fb88 	.word	0x0001fb88

00011d00 <hexdump_print.part.0>:
   11d00:	e59f3028 	ldr	r3, [pc, #40]	; 11d30 <hexdump_print.part.0+0x30>
   11d04:	e2402020 	sub	r2, r0, #32
   11d08:	e352005e 	cmp	r2, #94	; 0x5e
   11d0c:	e5933000 	ldr	r3, [r3]
   11d10:	e59f101c 	ldr	r1, [pc, #28]	; 11d34 <hexdump_print.part.0+0x34>
   11d14:	91a02000 	movls	r2, r0
   11d18:	e3a00054 	mov	r0, #84	; 0x54
   11d1c:	e0231390 	mla	r3, r0, r3, r1
   11d20:	e59f1010 	ldr	r1, [pc, #16]	; 11d38 <hexdump_print.part.0+0x38>
   11d24:	e5930044 	ldr	r0, [r3, #68]	; 0x44
   11d28:	83a0202e 	movhi	r2, #46	; 0x2e
   11d2c:	ea0026f7 	b	1b910 <fprintf>
   11d30:	0002281c 	.word	0x0002281c
   11d34:	0002074c 	.word	0x0002074c
   11d38:	0001f4da 	.word	0x0001f4da

00011d3c <hexdump>:
   11d3c:	e92d4ff7 	push	{r0, r1, r2, r4, r5, r6, r7, r8, r9, sl, fp, lr}
   11d40:	e1a08001 	mov	r8, r1
   11d44:	e58d0000 	str	r0, [sp]
   11d48:	e58d2004 	str	r2, [sp, #4]
   11d4c:	e261a010 	rsb	sl, r1, #16
   11d50:	e1a06000 	mov	r6, r0
   11d54:	e1a07001 	mov	r7, r1
   11d58:	e59f4168 	ldr	r4, [pc, #360]	; 11ec8 <hexdump+0x18c>
   11d5c:	e59f5168 	ldr	r5, [pc, #360]	; 11ecc <hexdump+0x190>
   11d60:	ea000053 	b	11eb4 <hexdump+0x178>
   11d64:	e5953000 	ldr	r3, [r5]
   11d68:	e3a0b054 	mov	fp, #84	; 0x54
   11d6c:	e023439b 	mla	r3, fp, r3, r4
   11d70:	e59f1158 	ldr	r1, [pc, #344]	; 11ed0 <hexdump+0x194>
   11d74:	e5930044 	ldr	r0, [r3, #68]	; 0x44
   11d78:	e1a02006 	mov	r2, r6
   11d7c:	eb0026e3 	bl	1b910 <fprintf>
   11d80:	e3a09000 	mov	r9, #0
   11d84:	ea00000d 	b	11dc0 <hexdump+0x84>
   11d88:	e3190007 	tst	r9, #7
   11d8c:	1a000004 	bne	11da4 <hexdump+0x68>
   11d90:	e5952000 	ldr	r2, [r5]
   11d94:	e59f1138 	ldr	r1, [pc, #312]	; 11ed4 <hexdump+0x198>
   11d98:	e022429b 	mla	r2, fp, r2, r4
   11d9c:	e5920044 	ldr	r0, [r2, #68]	; 0x44
   11da0:	eb0026da 	bl	1b910 <fprintf>
   11da4:	e5952000 	ldr	r2, [r5]
   11da8:	e59f1128 	ldr	r1, [pc, #296]	; 11ed8 <hexdump+0x19c>
   11dac:	e022429b 	mla	r2, fp, r2, r4
   11db0:	e5920044 	ldr	r0, [r2, #68]	; 0x44
   11db4:	e7d62009 	ldrb	r2, [r6, r9]
   11db8:	eb0026d4 	bl	1b910 <fprintf>
   11dbc:	e2899001 	add	r9, r9, #1
   11dc0:	e359000f 	cmp	r9, #15
   11dc4:	91590007 	cmpls	r9, r7
   11dc8:	23a02000 	movcs	r2, #0
   11dcc:	33a02001 	movcc	r2, #1
   11dd0:	3affffec 	bcc	11d88 <hexdump+0x4c>
   11dd4:	e357000f 	cmp	r7, #15
   11dd8:	9a000013 	bls	11e2c <hexdump+0xf0>
   11ddc:	e59d3004 	ldr	r3, [sp, #4]
   11de0:	e3530001 	cmp	r3, #1
   11de4:	1a000029 	bne	11e90 <hexdump+0x154>
   11de8:	ea000014 	b	11e40 <hexdump+0x104>
   11dec:	e3590000 	cmp	r9, #0
   11df0:	0a000006 	beq	11e10 <hexdump+0xd4>
   11df4:	e3190007 	tst	r9, #7
   11df8:	1a000004 	bne	11e10 <hexdump+0xd4>
   11dfc:	e5952000 	ldr	r2, [r5]
   11e00:	e59f10cc 	ldr	r1, [pc, #204]	; 11ed4 <hexdump+0x198>
   11e04:	e022429b 	mla	r2, fp, r2, r4
   11e08:	e5920044 	ldr	r0, [r2, #68]	; 0x44
   11e0c:	eb0026bf 	bl	1b910 <fprintf>
   11e10:	e5952000 	ldr	r2, [r5]
   11e14:	e59f10c0 	ldr	r1, [pc, #192]	; 11edc <hexdump+0x1a0>
   11e18:	e022429b 	mla	r2, fp, r2, r4
   11e1c:	e5920044 	ldr	r0, [r2, #68]	; 0x44
   11e20:	eb0026ba 	bl	1b910 <fprintf>
   11e24:	e2899001 	add	r9, r9, #1
   11e28:	ea000001 	b	11e34 <hexdump+0xf8>
   11e2c:	e1a09002 	mov	r9, r2
   11e30:	e3a0b054 	mov	fp, #84	; 0x54
   11e34:	e159000a 	cmp	r9, sl
   11e38:	3affffeb 	bcc	11dec <hexdump+0xb0>
   11e3c:	eaffffe6 	b	11ddc <hexdump+0xa0>
   11e40:	e5953000 	ldr	r3, [r5]
   11e44:	e3a02054 	mov	r2, #84	; 0x54
   11e48:	e0234392 	mla	r3, r2, r3, r4
   11e4c:	e59f108c 	ldr	r1, [pc, #140]	; 11ee0 <hexdump+0x1a4>
   11e50:	e5930044 	ldr	r0, [r3, #68]	; 0x44
   11e54:	eb0026ad 	bl	1b910 <fprintf>
   11e58:	e3a0b000 	mov	fp, #0
   11e5c:	ea000002 	b	11e6c <hexdump+0x130>
   11e60:	e7d6000b 	ldrb	r0, [r6, fp]
   11e64:	ebffffa5 	bl	11d00 <hexdump_print.part.0>
   11e68:	e28bb001 	add	fp, fp, #1
   11e6c:	e35b000f 	cmp	fp, #15
   11e70:	915b0007 	cmpls	fp, r7
   11e74:	3afffff9 	bcc	11e60 <hexdump+0x124>
   11e78:	e5953000 	ldr	r3, [r5]
   11e7c:	e3a02054 	mov	r2, #84	; 0x54
   11e80:	e0234392 	mla	r3, r2, r3, r4
   11e84:	e59f1058 	ldr	r1, [pc, #88]	; 11ee4 <hexdump+0x1a8>
   11e88:	e5930044 	ldr	r0, [r3, #68]	; 0x44
   11e8c:	eb00269f 	bl	1b910 <fprintf>
   11e90:	e5953000 	ldr	r3, [r5]
   11e94:	e3a02054 	mov	r2, #84	; 0x54
   11e98:	e0234392 	mla	r3, r2, r3, r4
   11e9c:	e59f1044 	ldr	r1, [pc, #68]	; 11ee8 <hexdump+0x1ac>
   11ea0:	e5930044 	ldr	r0, [r3, #68]	; 0x44
   11ea4:	eb002699 	bl	1b910 <fprintf>
   11ea8:	e2477010 	sub	r7, r7, #16
   11eac:	e2866010 	add	r6, r6, #16
   11eb0:	e28aa010 	add	sl, sl, #16
   11eb4:	e59d2000 	ldr	r2, [sp]
   11eb8:	e0623006 	rsb	r3, r2, r6
   11ebc:	e1530008 	cmp	r3, r8
   11ec0:	3affffa7 	bcc	11d64 <hexdump+0x28>
   11ec4:	e8bd8ffe 	pop	{r1, r2, r3, r4, r5, r6, r7, r8, r9, sl, fp, pc}
   11ec8:	0002074c 	.word	0x0002074c
   11ecc:	0002281c 	.word	0x0002281c
   11ed0:	0001c7d9 	.word	0x0001c7d9
   11ed4:	0001f3e6 	.word	0x0001f3e6
   11ed8:	0001c7e0 	.word	0x0001c7e0
   11edc:	0001f3e4 	.word	0x0001f3e4
   11ee0:	0001c7e6 	.word	0x0001c7e6
   11ee4:	0001c7e7 	.word	0x0001c7e7
   11ee8:	0001d561 	.word	0x0001d561

00011eec <loopbackGetc>:
   11eec:	e92d4070 	push	{r4, r5, r6, lr}
   11ef0:	e59f3084 	ldr	r3, [pc, #132]	; 11f7c <loopbackGetc+0x90>
   11ef4:	e5902004 	ldr	r2, [r0, #4]
   11ef8:	e3a04e41 	mov	r4, #1040	; 0x410
   11efc:	e0243294 	mla	r4, r4, r2, r3
   11f00:	ebfff886 	bl	10120 <disable>
   11f04:	e5943008 	ldr	r3, [r4, #8]
   11f08:	e1a05000 	mov	r5, r0
   11f0c:	e3130001 	tst	r3, #1
   11f10:	0a000007 	beq	11f34 <loopbackGetc+0x48>
   11f14:	e594000c 	ldr	r0, [r4, #12]
   11f18:	ebfffce5 	bl	112b4 <semcount>
   11f1c:	e3500000 	cmp	r0, #0
   11f20:	ca000003 	bgt	11f34 <loopbackGetc+0x48>
   11f24:	e1a00005 	mov	r0, r5
   11f28:	ebfff87f 	bl	1012c <restore>
   11f2c:	e3e00001 	mvn	r0, #1
   11f30:	e8bd8070 	pop	{r4, r5, r6, pc}
   11f34:	e594000c 	ldr	r0, [r4, #12]
   11f38:	ebfffd2f 	bl	113fc <wait>
   11f3c:	e5943004 	ldr	r3, [r4, #4]
   11f40:	e1a00005 	mov	r0, r5
   11f44:	e0842003 	add	r2, r4, r3
   11f48:	e5d26010 	ldrb	r6, [r2, #16]
   11f4c:	e2832001 	add	r2, r3, #1
   11f50:	e59f3028 	ldr	r3, [pc, #40]	; 11f80 <loopbackGetc+0x94>
   11f54:	e0023003 	and	r3, r2, r3
   11f58:	e3530000 	cmp	r3, #0
   11f5c:	b2433001 	sublt	r3, r3, #1
   11f60:	b1e03b03 	mvnlt	r3, r3, lsl #22
   11f64:	b1e03b23 	mvnlt	r3, r3, lsr #22
   11f68:	b2833001 	addlt	r3, r3, #1
   11f6c:	e5843004 	str	r3, [r4, #4]
   11f70:	ebfff86d 	bl	1012c <restore>
   11f74:	e1a00006 	mov	r0, r6
   11f78:	e8bd8070 	pop	{r4, r5, r6, pc}
   11f7c:	00023bf4 	.word	0x00023bf4
   11f80:	800003ff 	.word	0x800003ff

00011f84 <loopbackClose>:
   11f84:	e92d41f0 	push	{r4, r5, r6, r7, r8, lr}
   11f88:	e5903004 	ldr	r3, [r0, #4]
   11f8c:	e3a05e41 	mov	r5, #1040	; 0x410
   11f90:	e0050395 	mul	r5, r5, r3
   11f94:	ebfff861 	bl	10120 <disable>
   11f98:	e59f403c 	ldr	r4, [pc, #60]	; 11fdc <loopbackClose+0x58>
   11f9c:	e1a07000 	mov	r7, r0
   11fa0:	e7956004 	ldr	r6, [r5, r4]
   11fa4:	e0858004 	add	r8, r5, r4
   11fa8:	e3560001 	cmp	r6, #1
   11fac:	0a000002 	beq	11fbc <loopbackClose+0x38>
   11fb0:	ebfff85d 	bl	1012c <restore>
   11fb4:	e3e00000 	mvn	r0, #0
   11fb8:	e8bd81f0 	pop	{r4, r5, r6, r7, r8, pc}
   11fbc:	e598000c 	ldr	r0, [r8, #12]
   11fc0:	ebfffc95 	bl	1121c <semfree>
   11fc4:	e3a03000 	mov	r3, #0
   11fc8:	e1a00007 	mov	r0, r7
   11fcc:	e7853004 	str	r3, [r5, r4]
   11fd0:	ebfff855 	bl	1012c <restore>
   11fd4:	e1a00006 	mov	r0, r6
   11fd8:	e8bd81f0 	pop	{r4, r5, r6, r7, r8, pc}
   11fdc:	00023bf4 	.word	0x00023bf4

00011fe0 <loopbackOpen>:
   11fe0:	e92d45f8 	push	{r3, r4, r5, r6, r7, r8, sl, lr}
   11fe4:	e5903004 	ldr	r3, [r0, #4]
   11fe8:	e3a05e41 	mov	r5, #1040	; 0x410
   11fec:	e0050395 	mul	r5, r5, r3
   11ff0:	ebfff84a 	bl	10120 <disable>
   11ff4:	e59f4060 	ldr	r4, [pc, #96]	; 1205c <loopbackOpen+0x7c>
   11ff8:	e1a0a000 	mov	sl, r0
   11ffc:	e7957004 	ldr	r7, [r5, r4]
   12000:	e0856004 	add	r6, r5, r4
   12004:	e3570000 	cmp	r7, #0
   12008:	0a000002 	beq	12018 <loopbackOpen+0x38>
   1200c:	ebfff846 	bl	1012c <restore>
   12010:	e3e00000 	mvn	r0, #0
   12014:	e8bd85f8 	pop	{r3, r4, r5, r6, r7, r8, sl, pc}
   12018:	e1a00007 	mov	r0, r7
   1201c:	ebfffc56 	bl	1117c <semcreate>
   12020:	e3700001 	cmn	r0, #1
   12024:	e1a08000 	mov	r8, r0
   12028:	e586000c 	str	r0, [r6, #12]
   1202c:	01a0000a 	moveq	r0, sl
   12030:	0afffff5 	beq	1200c <loopbackOpen+0x2c>
   12034:	e2860010 	add	r0, r6, #16
   12038:	e3a01b01 	mov	r1, #1024	; 0x400
   1203c:	eb0024b9 	bl	1b328 <bzero>
   12040:	e3a08001 	mov	r8, #1
   12044:	e5867008 	str	r7, [r6, #8]
   12048:	e1a0000a 	mov	r0, sl
   1204c:	e7858004 	str	r8, [r5, r4]
   12050:	ebfff835 	bl	1012c <restore>
   12054:	e1a00008 	mov	r0, r8
   12058:	e8bd85f8 	pop	{r3, r4, r5, r6, r7, r8, sl, pc}
   1205c:	00023bf4 	.word	0x00023bf4

00012060 <loopbackPutc>:
   12060:	e92d40f8 	push	{r3, r4, r5, r6, r7, lr}
   12064:	e59f3080 	ldr	r3, [pc, #128]	; 120ec <loopbackPutc+0x8c>
   12068:	e5902004 	ldr	r2, [r0, #4]
   1206c:	e3a04e41 	mov	r4, #1040	; 0x410
   12070:	e0243294 	mla	r4, r4, r2, r3
   12074:	e1a05001 	mov	r5, r1
   12078:	ebfff828 	bl	10120 <disable>
   1207c:	e1a06000 	mov	r6, r0
   12080:	e594000c 	ldr	r0, [r4, #12]
   12084:	ebfffc8a 	bl	112b4 <semcount>
   12088:	e3500b01 	cmp	r0, #1024	; 0x400
   1208c:	ba000003 	blt	120a0 <loopbackPutc+0x40>
   12090:	e1a00006 	mov	r0, r6
   12094:	ebfff824 	bl	1012c <restore>
   12098:	e3e00000 	mvn	r0, #0
   1209c:	e8bd80f8 	pop	{r3, r4, r5, r6, r7, pc}
   120a0:	e594000c 	ldr	r0, [r4, #12]
   120a4:	e5947004 	ldr	r7, [r4, #4]
   120a8:	ebfffc81 	bl	112b4 <semcount>
   120ac:	e59f303c 	ldr	r3, [pc, #60]	; 120f0 <loopbackPutc+0x90>
   120b0:	e0800007 	add	r0, r0, r7
   120b4:	e0003003 	and	r3, r0, r3
   120b8:	e3530000 	cmp	r3, #0
   120bc:	b2433001 	sublt	r3, r3, #1
   120c0:	b1e03b03 	mvnlt	r3, r3, lsl #22
   120c4:	b1e03b23 	mvnlt	r3, r3, lsr #22
   120c8:	b2833001 	addlt	r3, r3, #1
   120cc:	e0843003 	add	r3, r4, r3
   120d0:	e5c35010 	strb	r5, [r3, #16]
   120d4:	e594000c 	ldr	r0, [r4, #12]
   120d8:	ebfffc83 	bl	112ec <signal>
   120dc:	e1a00006 	mov	r0, r6
   120e0:	ebfff811 	bl	1012c <restore>
   120e4:	e1a00005 	mov	r0, r5
   120e8:	e8bd80f8 	pop	{r3, r4, r5, r6, r7, pc}
   120ec:	00023bf4 	.word	0x00023bf4
   120f0:	800003ff 	.word	0x800003ff

000120f4 <loopbackWrite>:
   120f4:	e92d40f8 	push	{r3, r4, r5, r6, r7, lr}
   120f8:	e5903004 	ldr	r3, [r0, #4]
   120fc:	e1a07002 	mov	r7, r2
   12100:	e3a02e41 	mov	r2, #1040	; 0x410
   12104:	e0020392 	mul	r2, r2, r3
   12108:	e59f3054 	ldr	r3, [pc, #84]	; 12164 <loopbackWrite+0x70>
   1210c:	e1a05000 	mov	r5, r0
   12110:	e7923003 	ldr	r3, [r2, r3]
   12114:	e1a06001 	mov	r6, r1
   12118:	e3530001 	cmp	r3, #1
   1211c:	1a00000e 	bne	1215c <loopbackWrite+0x68>
   12120:	e3a04000 	mov	r4, #0
   12124:	ea000008 	b	1214c <loopbackWrite+0x58>
   12128:	e1a00005 	mov	r0, r5
   1212c:	e7d61004 	ldrb	r1, [r6, r4]
   12130:	ebffffca 	bl	12060 <loopbackPutc>
   12134:	e3700001 	cmn	r0, #1
   12138:	1a000002 	bne	12148 <loopbackWrite+0x54>
   1213c:	e3540000 	cmp	r4, #0
   12140:	03e04000 	mvneq	r4, #0
   12144:	ea000002 	b	12154 <loopbackWrite+0x60>
   12148:	e2844001 	add	r4, r4, #1
   1214c:	e1540007 	cmp	r4, r7
   12150:	1afffff4 	bne	12128 <loopbackWrite+0x34>
   12154:	e1a00004 	mov	r0, r4
   12158:	e8bd80f8 	pop	{r3, r4, r5, r6, r7, pc}
   1215c:	e3e00000 	mvn	r0, #0
   12160:	e8bd80f8 	pop	{r3, r4, r5, r6, r7, pc}
   12164:	00023bf4 	.word	0x00023bf4

00012168 <loopbackRead>:
   12168:	e92d40f8 	push	{r3, r4, r5, r6, r7, lr}
   1216c:	e5903004 	ldr	r3, [r0, #4]
   12170:	e1a07002 	mov	r7, r2
   12174:	e3a02e41 	mov	r2, #1040	; 0x410
   12178:	e0020392 	mul	r2, r2, r3
   1217c:	e59f304c 	ldr	r3, [pc, #76]	; 121d0 <loopbackRead+0x68>
   12180:	e1a05000 	mov	r5, r0
   12184:	e7923003 	ldr	r3, [r2, r3]
   12188:	e1a06001 	mov	r6, r1
   1218c:	e3530001 	cmp	r3, #1
   12190:	1a00000c 	bne	121c8 <loopbackRead+0x60>
   12194:	e3a04000 	mov	r4, #0
   12198:	ea000007 	b	121bc <loopbackRead+0x54>
   1219c:	e1a00005 	mov	r0, r5
   121a0:	ebffff51 	bl	11eec <loopbackGetc>
   121a4:	e3700002 	cmn	r0, #2
   121a8:	1a000001 	bne	121b4 <loopbackRead+0x4c>
   121ac:	e1a00004 	mov	r0, r4
   121b0:	e8bd80f8 	pop	{r3, r4, r5, r6, r7, pc}
   121b4:	e7c60004 	strb	r0, [r6, r4]
   121b8:	e2844001 	add	r4, r4, #1
   121bc:	e1540007 	cmp	r4, r7
   121c0:	1afffff5 	bne	1219c <loopbackRead+0x34>
   121c4:	eafffff8 	b	121ac <loopbackRead+0x44>
   121c8:	e3e00000 	mvn	r0, #0
   121cc:	e8bd80f8 	pop	{r3, r4, r5, r6, r7, pc}
   121d0:	00023bf4 	.word	0x00023bf4

000121d4 <loopbackControl>:
   121d4:	e5903004 	ldr	r3, [r0, #4]
   121d8:	e3a0ce41 	mov	ip, #1040	; 0x410
   121dc:	e00c039c 	mul	ip, ip, r3
   121e0:	e59f0048 	ldr	r0, [pc, #72]	; 12230 <loopbackControl+0x5c>
   121e4:	e08c3000 	add	r3, ip, r0
   121e8:	e79c0000 	ldr	r0, [ip, r0]
   121ec:	e3500001 	cmp	r0, #1
   121f0:	1a00000c 	bne	12228 <loopbackControl+0x54>
   121f4:	e3510001 	cmp	r1, #1
   121f8:	0a000002 	beq	12208 <loopbackControl+0x34>
   121fc:	e3510002 	cmp	r1, #2
   12200:	1a000008 	bne	12228 <loopbackControl+0x54>
   12204:	ea000002 	b	12214 <loopbackControl+0x40>
   12208:	e5930008 	ldr	r0, [r3, #8]
   1220c:	e1822000 	orr	r2, r2, r0
   12210:	ea000002 	b	12220 <loopbackControl+0x4c>
   12214:	e5931008 	ldr	r1, [r3, #8]
   12218:	e0020001 	and	r0, r2, r1
   1221c:	e1c12002 	bic	r2, r1, r2
   12220:	e5832008 	str	r2, [r3, #8]
   12224:	e12fff1e 	bx	lr
   12228:	e3e00000 	mvn	r0, #0
   1222c:	e12fff1e 	bx	lr
   12230:	00023bf4 	.word	0x00023bf4

00012234 <loopbackInit>:
   12234:	e5902004 	ldr	r2, [r0, #4]
   12238:	e3a01e41 	mov	r1, #1040	; 0x410
   1223c:	e0010291 	mul	r1, r1, r2
   12240:	e59f3014 	ldr	r3, [pc, #20]	; 1225c <loopbackInit+0x28>
   12244:	e3a02000 	mov	r2, #0
   12248:	e0830001 	add	r0, r3, r1
   1224c:	e7832001 	str	r2, [r3, r1]
   12250:	e5802004 	str	r2, [r0, #4]
   12254:	e3a00001 	mov	r0, #1
   12258:	e12fff1e 	bx	lr
   1225c:	00023bf4 	.word	0x00023bf4

00012260 <ttyControl>:
   12260:	e5903004 	ldr	r3, [r0, #4]
   12264:	e59fc08c 	ldr	ip, [pc, #140]	; 122f8 <ttyControl+0x98>
   12268:	e59f008c 	ldr	r0, [pc, #140]	; 122fc <ttyControl+0x9c>
   1226c:	e00c039c 	mul	ip, ip, r3
   12270:	e08c3000 	add	r3, ip, r0
   12274:	e79c0000 	ldr	r0, [ip, r0]
   12278:	e3500000 	cmp	r0, #0
   1227c:	0a00001b 	beq	122f0 <ttyControl+0x90>
   12280:	e2411020 	sub	r1, r1, #32
   12284:	e3510003 	cmp	r1, #3
   12288:	979ff101 	ldrls	pc, [pc, r1, lsl #2]
   1228c:	ea000017 	b	122f0 <ttyControl+0x90>
   12290:	000122a0 	.word	0x000122a0
   12294:	000122b4 	.word	0x000122b4
   12298:	000122c4 	.word	0x000122c4
   1229c:	000122dc 	.word	0x000122dc
   122a0:	e5d31004 	ldrb	r1, [r3, #4]
   122a4:	e6ef2072 	uxtb	r2, r2
   122a8:	e1820001 	orr	r0, r2, r1
   122ac:	e5c30004 	strb	r0, [r3, #4]
   122b0:	ea000007 	b	122d4 <ttyControl+0x74>
   122b4:	e5d30004 	ldrb	r0, [r3, #4]
   122b8:	e1c01002 	bic	r1, r0, r2
   122bc:	e5c31004 	strb	r1, [r3, #4]
   122c0:	ea000008 	b	122e8 <ttyControl+0x88>
   122c4:	e5d31410 	ldrb	r1, [r3, #1040]	; 0x410
   122c8:	e6ef2072 	uxtb	r2, r2
   122cc:	e1820001 	orr	r0, r2, r1
   122d0:	e5c30410 	strb	r0, [r3, #1040]	; 0x410
   122d4:	e0020001 	and	r0, r2, r1
   122d8:	e12fff1e 	bx	lr
   122dc:	e5d30410 	ldrb	r0, [r3, #1040]	; 0x410
   122e0:	e1c01002 	bic	r1, r0, r2
   122e4:	e5c31410 	strb	r1, [r3, #1040]	; 0x410
   122e8:	e0020000 	and	r0, r2, r0
   122ec:	e12fff1e 	bx	lr
   122f0:	e3e00000 	mvn	r0, #0
   122f4:	e12fff1e 	bx	lr
   122f8:	00000414 	.word	0x00000414
   122fc:	00024004 	.word	0x00024004

00012300 <ttyOpen>:
   12300:	e92d41f0 	push	{r4, r5, r6, r7, r8, lr}
   12304:	e5918000 	ldr	r8, [r1]
   12308:	e3580004 	cmp	r8, #4
   1230c:	8a000019 	bhi	12378 <ttyOpen+0x78>
   12310:	e5903004 	ldr	r3, [r0, #4]
   12314:	e59f6064 	ldr	r6, [pc, #100]	; 12380 <ttyOpen+0x80>
   12318:	e59f5064 	ldr	r5, [pc, #100]	; 12384 <ttyOpen+0x84>
   1231c:	e0060396 	mul	r6, r6, r3
   12320:	ebfff77e 	bl	10120 <disable>
   12324:	e7963005 	ldr	r3, [r6, r5]
   12328:	e0864005 	add	r4, r6, r5
   1232c:	e3530000 	cmp	r3, #0
   12330:	0a000001 	beq	1233c <ttyOpen+0x3c>
   12334:	ebfff77c 	bl	1012c <restore>
   12338:	ea00000e 	b	12378 <ttyOpen+0x78>
   1233c:	e5843408 	str	r3, [r4, #1032]	; 0x408
   12340:	e584340c 	str	r3, [r4, #1036]	; 0x40c
   12344:	e5c43006 	strb	r3, [r4, #6]
   12348:	e5c43005 	strb	r3, [r4, #5]
   1234c:	e3a02008 	mov	r2, #8
   12350:	e59f3030 	ldr	r3, [pc, #48]	; 12388 <ttyOpen+0x88>
   12354:	e5c42004 	strb	r2, [r4, #4]
   12358:	e3a0203c 	mov	r2, #60	; 0x3c
   1235c:	e0283892 	mla	r8, r2, r8, r3
   12360:	e3a07001 	mov	r7, #1
   12364:	e5c47410 	strb	r7, [r4, #1040]	; 0x410
   12368:	e7868005 	str	r8, [r6, r5]
   1236c:	ebfff76e 	bl	1012c <restore>
   12370:	e1a00007 	mov	r0, r7
   12374:	e8bd81f0 	pop	{r4, r5, r6, r7, r8, pc}
   12378:	e3e00000 	mvn	r0, #0
   1237c:	e8bd81f0 	pop	{r4, r5, r6, r7, r8, pc}
   12380:	00000414 	.word	0x00000414
   12384:	00024004 	.word	0x00024004
   12388:	0001fb88 	.word	0x0001fb88

0001238c <ttyEcho>:
   1238c:	e3510008 	cmp	r1, #8
   12390:	1351007f 	cmpne	r1, #127	; 0x7f
   12394:	e92d4010 	push	{r4, lr}
   12398:	e1a04000 	mov	r4, r0
   1239c:	1a000007 	bne	123c0 <ttyEcho+0x34>
   123a0:	e3a01008 	mov	r1, #8
   123a4:	eb0000e3 	bl	12738 <ttyPutc>
   123a8:	e3a01020 	mov	r1, #32
   123ac:	e1a00004 	mov	r0, r4
   123b0:	eb0000e0 	bl	12738 <ttyPutc>
   123b4:	e1a00004 	mov	r0, r4
   123b8:	e3a01008 	mov	r1, #8
   123bc:	ea000003 	b	123d0 <ttyEcho+0x44>
   123c0:	e59f2010 	ldr	r2, [pc, #16]	; 123d8 <ttyEcho+0x4c>
   123c4:	e7d23001 	ldrb	r3, [r2, r1]
   123c8:	e313001f 	tst	r3, #31
   123cc:	08bd8010 	popeq	{r4, pc}
   123d0:	e8bd4010 	pop	{r4, lr}
   123d4:	ea0000d7 	b	12738 <ttyPutc>
   123d8:	0001fe0b 	.word	0x0001fe0b

000123dc <ttyRead>:
   123dc:	e92d4ff8 	push	{r3, r4, r5, r6, r7, r8, r9, sl, fp, lr}
   123e0:	e1a07002 	mov	r7, r2
   123e4:	e5903004 	ldr	r3, [r0, #4]
   123e8:	e59f22b8 	ldr	r2, [pc, #696]	; 126a8 <ttyRead+0x2cc>
   123ec:	e1a08000 	mov	r8, r0
   123f0:	e0020392 	mul	r2, r2, r3
   123f4:	e59f32b0 	ldr	r3, [pc, #688]	; 126ac <ttyRead+0x2d0>
   123f8:	e1a0b001 	mov	fp, r1
   123fc:	e7926003 	ldr	r6, [r2, r3]
   12400:	e0824003 	add	r4, r2, r3
   12404:	e3560000 	cmp	r6, #0
   12408:	1a000001 	bne	12414 <ttyRead+0x38>
   1240c:	e3e05000 	mvn	r5, #0
   12410:	ea0000a2 	b	126a0 <ttyRead+0x2c4>
   12414:	e5d45005 	ldrb	r5, [r4, #5]
   12418:	e3550000 	cmp	r5, #0
   1241c:	13a03000 	movne	r3, #0
   12420:	15c43005 	strbne	r3, [r4, #5]
   12424:	1a000099 	bne	12690 <ttyRead+0x2b4>
   12428:	e5d43004 	ldrb	r3, [r4, #4]
   1242c:	e3130001 	tst	r3, #1
   12430:	0a000074 	beq	12608 <ttyRead+0x22c>
   12434:	ea00000c 	b	1246c <ttyRead+0x90>
   12438:	e5943408 	ldr	r3, [r4, #1032]	; 0x408
   1243c:	e0843003 	add	r3, r4, r3
   12440:	e5d33007 	ldrb	r3, [r3, #7]
   12444:	e7cb3005 	strb	r3, [fp, r5]
   12448:	e594340c 	ldr	r3, [r4, #1036]	; 0x40c
   1244c:	e2855001 	add	r5, r5, #1
   12450:	e2433001 	sub	r3, r3, #1
   12454:	e584340c 	str	r3, [r4, #1036]	; 0x40c
   12458:	e5943408 	ldr	r3, [r4, #1032]	; 0x408
   1245c:	e2833001 	add	r3, r3, #1
   12460:	e1a03b03 	lsl	r3, r3, #22
   12464:	e1a03b23 	lsr	r3, r3, #22
   12468:	e5843408 	str	r3, [r4, #1032]	; 0x408
   1246c:	e594340c 	ldr	r3, [r4, #1036]	; 0x40c
   12470:	e08ba005 	add	sl, fp, r5
   12474:	e3530000 	cmp	r3, #0
   12478:	0a000012 	beq	124c8 <ttyRead+0xec>
   1247c:	e1550007 	cmp	r5, r7
   12480:	1affffec 	bne	12438 <ttyRead+0x5c>
   12484:	ea00000f 	b	124c8 <ttyRead+0xec>
   12488:	e5963024 	ldr	r3, [r6, #36]	; 0x24
   1248c:	e1a00006 	mov	r0, r6
   12490:	e12fff33 	blx	r3
   12494:	e3700001 	cmn	r0, #1
   12498:	0affffdb 	beq	1240c <ttyRead+0x30>
   1249c:	e6ef1070 	uxtb	r1, r0
   124a0:	e7ca1005 	strb	r1, [sl, r5]
   124a4:	e5d43004 	ldrb	r3, [r4, #4]
   124a8:	e2855001 	add	r5, r5, #1
   124ac:	e2033010 	and	r3, r3, #16
   124b0:	e6ef3073 	uxtb	r3, r3
   124b4:	e3530000 	cmp	r3, #0
   124b8:	0a000003 	beq	124cc <ttyRead+0xf0>
   124bc:	e1a00008 	mov	r0, r8
   124c0:	ebffffb1 	bl	1238c <ttyEcho>
   124c4:	ea000000 	b	124cc <ttyRead+0xf0>
   124c8:	e065a00a 	rsb	sl, r5, sl
   124cc:	e1550007 	cmp	r5, r7
   124d0:	3affffec 	bcc	12488 <ttyRead+0xac>
   124d4:	ea000071 	b	126a0 <ttyRead+0x2c4>
   124d8:	e5963024 	ldr	r3, [r6, #36]	; 0x24
   124dc:	e1a00006 	mov	r0, r6
   124e0:	e12fff33 	blx	r3
   124e4:	e3700001 	cmn	r0, #1
   124e8:	e1a03000 	mov	r3, r0
   124ec:	0affffc6 	beq	1240c <ttyRead+0x30>
   124f0:	e350000a 	cmp	r0, #10
   124f4:	0a00000d 	beq	12530 <ttyRead+0x154>
   124f8:	ca000003 	bgt	1250c <ttyRead+0x130>
   124fc:	e3500004 	cmp	r0, #4
   12500:	0a000024 	beq	12598 <ttyRead+0x1bc>
   12504:	e3500008 	cmp	r0, #8
   12508:	ea000002 	b	12518 <ttyRead+0x13c>
   1250c:	e350000d 	cmp	r0, #13
   12510:	0a00000d 	beq	1254c <ttyRead+0x170>
   12514:	e350007f 	cmp	r0, #127	; 0x7f
   12518:	1a000021 	bne	125a4 <ttyRead+0x1c8>
   1251c:	e594240c 	ldr	r2, [r4, #1036]	; 0x40c
   12520:	e3520000 	cmp	r2, #0
   12524:	12422001 	subne	r2, r2, #1
   12528:	1a000028 	bne	125d0 <ttyRead+0x1f4>
   1252c:	ea000038 	b	12614 <ttyRead+0x238>
   12530:	e5d43004 	ldrb	r3, [r4, #4]
   12534:	e2033002 	and	r3, r3, #2
   12538:	e6ef3073 	uxtb	r3, r3
   1253c:	e3530000 	cmp	r3, #0
   12540:	03a0300a 	moveq	r3, #10
   12544:	13a0300d 	movne	r3, #13
   12548:	ea000009 	b	12574 <ttyRead+0x198>
   1254c:	e5d43004 	ldrb	r3, [r4, #4]
   12550:	e2032004 	and	r2, r3, #4
   12554:	e6ef2072 	uxtb	r2, r2
   12558:	e3520000 	cmp	r2, #0
   1255c:	1a00002c 	bne	12614 <ttyRead+0x238>
   12560:	e2033008 	and	r3, r3, #8
   12564:	e6ef3073 	uxtb	r3, r3
   12568:	e3530000 	cmp	r3, #0
   1256c:	03a0300d 	moveq	r3, #13
   12570:	13a0300a 	movne	r3, #10
   12574:	e594240c 	ldr	r2, [r4, #1036]	; 0x40c
   12578:	e5941408 	ldr	r1, [r4, #1032]	; 0x408
   1257c:	e0821001 	add	r1, r2, r1
   12580:	e1a01b01 	lsl	r1, r1, #22
   12584:	e0841b21 	add	r1, r4, r1, lsr #22
   12588:	e2822001 	add	r2, r2, #1
   1258c:	e5c13007 	strb	r3, [r1, #7]
   12590:	e584240c 	str	r2, [r4, #1036]	; 0x40c
   12594:	ea000000 	b	1259c <ttyRead+0x1c0>
   12598:	e5c45005 	strb	r5, [r4, #5]
   1259c:	e5c45006 	strb	r5, [r4, #6]
   125a0:	ea00000b 	b	125d4 <ttyRead+0x1f8>
   125a4:	e6ef2073 	uxtb	r2, r3
   125a8:	e7d92002 	ldrb	r2, [r9, r2]
   125ac:	e312001f 	tst	r2, #31
   125b0:	0a000017 	beq	12614 <ttyRead+0x238>
   125b4:	e594240c 	ldr	r2, [r4, #1036]	; 0x40c
   125b8:	e5941408 	ldr	r1, [r4, #1032]	; 0x408
   125bc:	e0821001 	add	r1, r2, r1
   125c0:	e1a01b01 	lsl	r1, r1, #22
   125c4:	e0841b21 	add	r1, r4, r1, lsr #22
   125c8:	e5c13007 	strb	r3, [r1, #7]
   125cc:	e2822001 	add	r2, r2, #1
   125d0:	e584240c 	str	r2, [r4, #1036]	; 0x40c
   125d4:	e5d42004 	ldrb	r2, [r4, #4]
   125d8:	e2022010 	and	r2, r2, #16
   125dc:	e6ef2072 	uxtb	r2, r2
   125e0:	e3520000 	cmp	r2, #0
   125e4:	0a000002 	beq	125f4 <ttyRead+0x218>
   125e8:	e1a00008 	mov	r0, r8
   125ec:	e6ef1073 	uxtb	r1, r3
   125f0:	ebffff65 	bl	1238c <ttyEcho>
   125f4:	e5d43004 	ldrb	r3, [r4, #4]
   125f8:	e3130001 	tst	r3, #1
   125fc:	0a000004 	beq	12614 <ttyRead+0x238>
   12600:	e3a05000 	mov	r5, #0
   12604:	ea000016 	b	12664 <ttyRead+0x288>
   12608:	e59fa0a0 	ldr	sl, [pc, #160]	; 126b0 <ttyRead+0x2d4>
   1260c:	e59f90a0 	ldr	r9, [pc, #160]	; 126b4 <ttyRead+0x2d8>
   12610:	e3a05001 	mov	r5, #1
   12614:	e594340c 	ldr	r3, [r4, #1036]	; 0x40c
   12618:	e153000a 	cmp	r3, sl
   1261c:	8afffff7 	bhi	12600 <ttyRead+0x224>
   12620:	e5d43006 	ldrb	r3, [r4, #6]
   12624:	e3530000 	cmp	r3, #0
   12628:	0affffaa 	beq	124d8 <ttyRead+0xfc>
   1262c:	eafffff3 	b	12600 <ttyRead+0x224>
   12630:	e5943408 	ldr	r3, [r4, #1032]	; 0x408
   12634:	e0843003 	add	r3, r4, r3
   12638:	e5d33007 	ldrb	r3, [r3, #7]
   1263c:	e7cb3005 	strb	r3, [fp, r5]
   12640:	e594340c 	ldr	r3, [r4, #1036]	; 0x40c
   12644:	e2855001 	add	r5, r5, #1
   12648:	e2433001 	sub	r3, r3, #1
   1264c:	e584340c 	str	r3, [r4, #1036]	; 0x40c
   12650:	e5943408 	ldr	r3, [r4, #1032]	; 0x408
   12654:	e2833001 	add	r3, r3, #1
   12658:	e1a03b03 	lsl	r3, r3, #22
   1265c:	e1a03b23 	lsr	r3, r3, #22
   12660:	e5843408 	str	r3, [r4, #1032]	; 0x408
   12664:	e594340c 	ldr	r3, [r4, #1036]	; 0x40c
   12668:	e3530000 	cmp	r3, #0
   1266c:	0a000009 	beq	12698 <ttyRead+0x2bc>
   12670:	e1550007 	cmp	r5, r7
   12674:	1affffed 	bne	12630 <ttyRead+0x254>
   12678:	e3550000 	cmp	r5, #0
   1267c:	1a000007 	bne	126a0 <ttyRead+0x2c4>
   12680:	e5d43005 	ldrb	r3, [r4, #5]
   12684:	e3530000 	cmp	r3, #0
   12688:	0a000004 	beq	126a0 <ttyRead+0x2c4>
   1268c:	e5c45005 	strb	r5, [r4, #5]
   12690:	e3e05001 	mvn	r5, #1
   12694:	ea000001 	b	126a0 <ttyRead+0x2c4>
   12698:	e5c43006 	strb	r3, [r4, #6]
   1269c:	eafffff5 	b	12678 <ttyRead+0x29c>
   126a0:	e1a00005 	mov	r0, r5
   126a4:	e8bd8ff8 	pop	{r3, r4, r5, r6, r7, r8, r9, sl, fp, pc}
   126a8:	00000414 	.word	0x00000414
   126ac:	00024004 	.word	0x00024004
   126b0:	000003ff 	.word	0x000003ff
   126b4:	0001fe0b 	.word	0x0001fe0b

000126b8 <ttyClose>:
   126b8:	e92d4038 	push	{r3, r4, r5, lr}
   126bc:	e1a05000 	mov	r5, r0
   126c0:	ebfff696 	bl	10120 <disable>
   126c4:	e59f1020 	ldr	r1, [pc, #32]	; 126ec <ttyClose+0x34>
   126c8:	e59f3020 	ldr	r3, [pc, #32]	; 126f0 <ttyClose+0x38>
   126cc:	e1a04000 	mov	r4, r0
   126d0:	e5950004 	ldr	r0, [r5, #4]
   126d4:	e0203091 	mla	r0, r1, r0, r3
   126d8:	eb002312 	bl	1b328 <bzero>
   126dc:	e1a00004 	mov	r0, r4
   126e0:	ebfff691 	bl	1012c <restore>
   126e4:	e3a00001 	mov	r0, #1
   126e8:	e8bd8038 	pop	{r3, r4, r5, pc}
   126ec:	00000414 	.word	0x00000414
   126f0:	00024004 	.word	0x00024004

000126f4 <ttyGetc>:
   126f4:	e92d4007 	push	{r0, r1, r2, lr}
   126f8:	e3a02001 	mov	r2, #1
   126fc:	e28d1007 	add	r1, sp, #7
   12700:	ebffff35 	bl	123dc <ttyRead>
   12704:	e3500001 	cmp	r0, #1
   12708:	05dd0007 	ldrbeq	r0, [sp, #7]
   1270c:	e8bd800e 	pop	{r1, r2, r3, pc}

00012710 <ttyInit>:
   12710:	e92d4008 	push	{r3, lr}
   12714:	e59f1014 	ldr	r1, [pc, #20]	; 12730 <ttyInit+0x20>
   12718:	e59f3014 	ldr	r3, [pc, #20]	; 12734 <ttyInit+0x24>
   1271c:	e5900004 	ldr	r0, [r0, #4]
   12720:	e0203091 	mla	r0, r1, r0, r3
   12724:	eb0022ff 	bl	1b328 <bzero>
   12728:	e3a00001 	mov	r0, #1
   1272c:	e8bd8008 	pop	{r3, pc}
   12730:	00000414 	.word	0x00000414
   12734:	00024004 	.word	0x00024004

00012738 <ttyPutc>:
   12738:	e92d4038 	push	{r3, r4, r5, lr}
   1273c:	e1a05001 	mov	r5, r1
   12740:	e5903004 	ldr	r3, [r0, #4]
   12744:	e59f1084 	ldr	r1, [pc, #132]	; 127d0 <ttyPutc+0x98>
   12748:	e59f2084 	ldr	r2, [pc, #132]	; 127d4 <ttyPutc+0x9c>
   1274c:	e0010391 	mul	r1, r1, r3
   12750:	e7914002 	ldr	r4, [r1, r2]
   12754:	e0813002 	add	r3, r1, r2
   12758:	e3540000 	cmp	r4, #0
   1275c:	1a000001 	bne	12768 <ttyPutc+0x30>
   12760:	e3e00000 	mvn	r0, #0
   12764:	e8bd8038 	pop	{r3, r4, r5, pc}
   12768:	e355000a 	cmp	r5, #10
   1276c:	0a000002 	beq	1277c <ttyPutc+0x44>
   12770:	e355000d 	cmp	r5, #13
   12774:	1a000010 	bne	127bc <ttyPutc+0x84>
   12778:	ea000009 	b	127a4 <ttyPutc+0x6c>
   1277c:	e5d33410 	ldrb	r3, [r3, #1040]	; 0x410
   12780:	e3130001 	tst	r3, #1
   12784:	0a00000c 	beq	127bc <ttyPutc+0x84>
   12788:	e5943028 	ldr	r3, [r4, #40]	; 0x28
   1278c:	e1a00004 	mov	r0, r4
   12790:	e3a0100d 	mov	r1, #13
   12794:	e12fff33 	blx	r3
   12798:	e3700001 	cmn	r0, #1
   1279c:	1a000006 	bne	127bc <ttyPutc+0x84>
   127a0:	eaffffee 	b	12760 <ttyPutc+0x28>
   127a4:	e5d35410 	ldrb	r5, [r3, #1040]	; 0x410
   127a8:	e2055002 	and	r5, r5, #2
   127ac:	e6ef5075 	uxtb	r5, r5
   127b0:	e3550000 	cmp	r5, #0
   127b4:	03a0500d 	moveq	r5, #13
   127b8:	13a0500a 	movne	r5, #10
   127bc:	e5943028 	ldr	r3, [r4, #40]	; 0x28
   127c0:	e1a00004 	mov	r0, r4
   127c4:	e1a01005 	mov	r1, r5
   127c8:	e12fff33 	blx	r3
   127cc:	e8bd8038 	pop	{r3, r4, r5, pc}
   127d0:	00000414 	.word	0x00000414
   127d4:	00024004 	.word	0x00024004

000127d8 <ttyWrite>:
   127d8:	e92d40f8 	push	{r3, r4, r5, r6, r7, lr}
   127dc:	e1a05000 	mov	r5, r0
   127e0:	e1a06001 	mov	r6, r1
   127e4:	e1a07002 	mov	r7, r2
   127e8:	e3a04000 	mov	r4, #0
   127ec:	ea000005 	b	12808 <ttyWrite+0x30>
   127f0:	e1a00005 	mov	r0, r5
   127f4:	e7d61004 	ldrb	r1, [r6, r4]
   127f8:	ebffffce 	bl	12738 <ttyPutc>
   127fc:	e3700001 	cmn	r0, #1
   12800:	08bd80f8 	popeq	{r3, r4, r5, r6, r7, pc}
   12804:	e2844001 	add	r4, r4, #1
   12808:	e1540007 	cmp	r4, r7
   1280c:	1afffff7 	bne	127f0 <ttyWrite+0x18>
   12810:	e1a00004 	mov	r0, r4
   12814:	e8bd80f8 	pop	{r3, r4, r5, r6, r7, pc}

00012818 <kputc>:
   12818:	e5912004 	ldr	r2, [r1, #4]
   1281c:	e59f3038 	ldr	r3, [pc, #56]	; 1285c <kputc+0x44>
   12820:	e59fc038 	ldr	ip, [pc, #56]	; 12860 <kputc+0x48>
   12824:	e022329c 	mla	r2, ip, r2, r3
   12828:	e5913030 	ldr	r3, [r1, #48]	; 0x30
   1282c:	e3a0c000 	mov	ip, #0
   12830:	e5931038 	ldr	r1, [r3, #56]	; 0x38
   12834:	e583c038 	str	ip, [r3, #56]	; 0x38
   12838:	e593c018 	ldr	ip, [r3, #24]
   1283c:	e31c0020 	tst	ip, #32
   12840:	1afffffc 	bne	12838 <kputc+0x20>
   12844:	e5830000 	str	r0, [r3]
   12848:	e592c008 	ldr	ip, [r2, #8]
   1284c:	e28cc001 	add	ip, ip, #1
   12850:	e582c008 	str	ip, [r2, #8]
   12854:	e5831038 	str	r1, [r3, #56]	; 0x38
   12858:	e12fff1e 	bx	lr
   1285c:	0002482c 	.word	0x0002482c
   12860:	0000083c 	.word	0x0000083c

00012864 <uartControl>:
   12864:	e5903004 	ldr	r3, [r0, #4]
   12868:	e59fc0a0 	ldr	ip, [pc, #160]	; 12910 <uartControl+0xac>
   1286c:	e59f00a0 	ldr	r0, [pc, #160]	; 12914 <uartControl+0xb0>
   12870:	e2411010 	sub	r1, r1, #16
   12874:	e023039c 	mla	r3, ip, r3, r0
   12878:	e3510006 	cmp	r1, #6
   1287c:	979ff101 	ldrls	pc, [pc, r1, lsl #2]
   12880:	ea000020 	b	12908 <uartControl+0xa4>
   12884:	000128a0 	.word	0x000128a0
   12888:	000128b4 	.word	0x000128b4
   1288c:	000128c4 	.word	0x000128c4
   12890:	000128cc 	.word	0x000128cc
   12894:	000128e4 	.word	0x000128e4
   12898:	000128f8 	.word	0x000128f8
   1289c:	00012900 	.word	0x00012900
   128a0:	e5d31020 	ldrb	r1, [r3, #32]
   128a4:	e6ef0072 	uxtb	r0, r2
   128a8:	e1802001 	orr	r2, r0, r1
   128ac:	e5c32020 	strb	r2, [r3, #32]
   128b0:	ea000009 	b	128dc <uartControl+0x78>
   128b4:	e5d30020 	ldrb	r0, [r3, #32]
   128b8:	e1c01002 	bic	r1, r0, r2
   128bc:	e5c31020 	strb	r1, [r3, #32]
   128c0:	ea00000a 	b	128f0 <uartControl+0x8c>
   128c4:	e5d30020 	ldrb	r0, [r3, #32]
   128c8:	e12fff1e 	bx	lr
   128cc:	e5d3142c 	ldrb	r1, [r3, #1068]	; 0x42c
   128d0:	e6ef0072 	uxtb	r0, r2
   128d4:	e1802001 	orr	r2, r0, r1
   128d8:	e5c3242c 	strb	r2, [r3, #1068]	; 0x42c
   128dc:	e0000001 	and	r0, r0, r1
   128e0:	e12fff1e 	bx	lr
   128e4:	e5d3042c 	ldrb	r0, [r3, #1068]	; 0x42c
   128e8:	e1c01002 	bic	r1, r0, r2
   128ec:	e5c3142c 	strb	r1, [r3, #1068]	; 0x42c
   128f0:	e0020000 	and	r0, r2, r0
   128f4:	e12fff1e 	bx	lr
   128f8:	e5d3042c 	ldrb	r0, [r3, #1068]	; 0x42c
   128fc:	e12fff1e 	bx	lr
   12900:	e5d30838 	ldrb	r0, [r3, #2104]	; 0x838
   12904:	e12fff1e 	bx	lr
   12908:	e3e00000 	mvn	r0, #0
   1290c:	e12fff1e 	bx	lr
   12910:	0000083c 	.word	0x0000083c
   12914:	0002482c 	.word	0x0002482c

00012918 <uartGetc>:
   12918:	e92d4007 	push	{r0, r1, r2, lr}
   1291c:	e3a02001 	mov	r2, #1
   12920:	e28d1007 	add	r1, sp, #7
   12924:	eb0000ef 	bl	12ce8 <uartRead>
   12928:	e3500001 	cmp	r0, #1
   1292c:	05dd0007 	ldrbeq	r0, [sp, #7]
   12930:	13e00000 	mvnne	r0, #0
   12934:	e8bd800e 	pop	{r1, r2, r3, pc}

00012938 <uartHwInit>:
   12938:	e92d4070 	push	{r4, r5, r6, lr}
   1293c:	e1a05000 	mov	r5, r0
   12940:	e5904030 	ldr	r4, [r0, #48]	; 0x30
   12944:	e59f0070 	ldr	r0, [pc, #112]	; 129bc <uartHwInit+0x84>
   12948:	ebfff95b 	bl	10ebc <udelay>
   1294c:	e3a03000 	mov	r3, #0
   12950:	e5843030 	str	r3, [r4, #48]	; 0x30
   12954:	e5943018 	ldr	r3, [r4, #24]
   12958:	e3130008 	tst	r3, #8
   1295c:	1afffffc 	bne	12954 <uartHwInit+0x1c>
   12960:	e594302c 	ldr	r3, [r4, #44]	; 0x2c
   12964:	e3a06001 	mov	r6, #1
   12968:	e3c33010 	bic	r3, r3, #16
   1296c:	e584302c 	str	r3, [r4, #44]	; 0x2c
   12970:	e59f3048 	ldr	r3, [pc, #72]	; 129c0 <uartHwInit+0x88>
   12974:	e5843044 	str	r3, [r4, #68]	; 0x44
   12978:	e3a03028 	mov	r3, #40	; 0x28
   1297c:	e5846024 	str	r6, [r4, #36]	; 0x24
   12980:	e5843028 	str	r3, [r4, #40]	; 0x28
   12984:	e3a03060 	mov	r3, #96	; 0x60
   12988:	e584302c 	str	r3, [r4, #44]	; 0x2c
   1298c:	e3a03030 	mov	r3, #48	; 0x30
   12990:	e5843038 	str	r3, [r4, #56]	; 0x38
   12994:	e59f3028 	ldr	r3, [pc, #40]	; 129c4 <uartHwInit+0x8c>
   12998:	e5843030 	str	r3, [r4, #48]	; 0x30
   1299c:	e5951034 	ldr	r1, [r5, #52]	; 0x34
   129a0:	e5d52038 	ldrb	r2, [r5, #56]	; 0x38
   129a4:	e59f301c 	ldr	r3, [pc, #28]	; 129c8 <uartHwInit+0x90>
   129a8:	e7831102 	str	r1, [r3, r2, lsl #2]
   129ac:	e5d50038 	ldrb	r0, [r5, #56]	; 0x38
   129b0:	ebfff635 	bl	1028c <enable_irq>
   129b4:	e1a00006 	mov	r0, r6
   129b8:	e8bd8070 	pop	{r4, r5, r6, pc}
   129bc:	000005dc 	.word	0x000005dc
   129c0:	000007f2 	.word	0x000007f2
   129c4:	00000301 	.word	0x00000301
   129c8:	00020680 	.word	0x00020680

000129cc <uartHwPutc>:
   129cc:	e5801000 	str	r1, [r0]
   129d0:	e12fff1e 	bx	lr

000129d4 <uartHwStat>:
   129d4:	e92d4038 	push	{r3, r4, r5, lr}
   129d8:	e1a04000 	mov	r4, r0
   129dc:	e59f0040 	ldr	r0, [pc, #64]	; 12a24 <uartHwStat+0x50>
   129e0:	eb00243f 	bl	1bae4 <printf>
   129e4:	e59f003c 	ldr	r0, [pc, #60]	; 12a28 <uartHwStat+0x54>
   129e8:	eb00243d 	bl	1bae4 <printf>
   129ec:	e5943038 	ldr	r3, [r4, #56]	; 0x38
   129f0:	e59f5034 	ldr	r5, [pc, #52]	; 12a2c <uartHwStat+0x58>
   129f4:	e1a03223 	lsr	r3, r3, #4
   129f8:	e2033001 	and	r3, r3, #1
   129fc:	e7951103 	ldr	r1, [r5, r3, lsl #2]
   12a00:	e59f0028 	ldr	r0, [pc, #40]	; 12a30 <uartHwStat+0x5c>
   12a04:	eb002436 	bl	1bae4 <printf>
   12a08:	e5943038 	ldr	r3, [r4, #56]	; 0x38
   12a0c:	e59f0020 	ldr	r0, [pc, #32]	; 12a34 <uartHwStat+0x60>
   12a10:	e1a032a3 	lsr	r3, r3, #5
   12a14:	e2033001 	and	r3, r3, #1
   12a18:	e7951103 	ldr	r1, [r5, r3, lsl #2]
   12a1c:	e8bd4038 	pop	{r3, r4, r5, lr}
   12a20:	ea00242f 	b	1bae4 <printf>
   12a24:	0001c7f4 	.word	0x0001c7f4
   12a28:	0001c809 	.word	0x0001c809
   12a2c:	0001c7ec 	.word	0x0001c7ec
   12a30:	0001c836 	.word	0x0001c836
   12a34:	0001c860 	.word	0x0001c860

00012a38 <uartInit>:
   12a38:	e92d4ff8 	push	{r3, r4, r5, r6, r7, r8, r9, sl, fp, lr}
   12a3c:	e59f70ec 	ldr	r7, [pc, #236]	; 12b30 <uartInit+0xf8>
   12a40:	e5903004 	ldr	r3, [r0, #4]
   12a44:	e59f80e8 	ldr	r8, [pc, #232]	; 12b34 <uartInit+0xfc>
   12a48:	e0070397 	mul	r7, r7, r3
   12a4c:	e3a05000 	mov	r5, #0
   12a50:	e0884007 	add	r4, r8, r7
   12a54:	e1a06000 	mov	r6, r0
   12a58:	e5845008 	str	r5, [r4, #8]
   12a5c:	e584500c 	str	r5, [r4, #12]
   12a60:	e5845010 	str	r5, [r4, #16]
   12a64:	e5845014 	str	r5, [r4, #20]
   12a68:	e5845018 	str	r5, [r4, #24]
   12a6c:	e584501c 	str	r5, [r4, #28]
   12a70:	e1a00005 	mov	r0, r5
   12a74:	ebfff9c0 	bl	1117c <semcreate>
   12a78:	e3500063 	cmp	r0, #99	; 0x63
   12a7c:	e5840024 	str	r0, [r4, #36]	; 0x24
   12a80:	e5c45020 	strb	r5, [r4, #32]
   12a84:	e1a0b005 	mov	fp, r5
   12a88:	e1c452b8 	strh	r5, [r4, #40]	; 0x28
   12a8c:	e1c452ba 	strh	r5, [r4, #42]	; 0x2a
   12a90:	8a000024 	bhi	12b28 <uartInit+0xf0>
   12a94:	e3a0900c 	mov	r9, #12
   12a98:	e0000099 	mul	r0, r9, r0
   12a9c:	e59fa094 	ldr	sl, [pc, #148]	; 12b38 <uartInit+0x100>
   12aa0:	e7da3000 	ldrb	r3, [sl, r0]
   12aa4:	e3530001 	cmp	r3, #1
   12aa8:	0a00001e 	beq	12b28 <uartInit+0xf0>
   12aac:	e3a00b01 	mov	r0, #1024	; 0x400
   12ab0:	ebfff9b1 	bl	1117c <semcreate>
   12ab4:	e59f3080 	ldr	r3, [pc, #128]	; 12b3c <uartInit+0x104>
   12ab8:	e5840430 	str	r0, [r4, #1072]	; 0x430
   12abc:	e5c4542c 	strb	r5, [r4, #1068]	; 0x42c
   12ac0:	e18450b3 	strh	r5, [r4, r3]
   12ac4:	e2833002 	add	r3, r3, #2
   12ac8:	e18450b3 	strh	r5, [r4, r3]
   12acc:	e3500063 	cmp	r0, #99	; 0x63
   12ad0:	e3a03001 	mov	r3, #1
   12ad4:	e5c43838 	strb	r3, [r4, #2104]	; 0x838
   12ad8:	8a000003 	bhi	12aec <uartInit+0xb4>
   12adc:	e0000099 	mul	r0, r9, r0
   12ae0:	e7da3000 	ldrb	r3, [sl, r0]
   12ae4:	e3530001 	cmp	r3, #1
   12ae8:	1a000001 	bne	12af4 <uartInit+0xbc>
   12aec:	e5940024 	ldr	r0, [r4, #36]	; 0x24
   12af0:	ea000006 	b	12b10 <uartInit+0xd8>
   12af4:	e1a00006 	mov	r0, r6
   12af8:	ebffff8e 	bl	12938 <uartHwInit>
   12afc:	e3500001 	cmp	r0, #1
   12b00:	0a000004 	beq	12b18 <uartInit+0xe0>
   12b04:	e5940024 	ldr	r0, [r4, #36]	; 0x24
   12b08:	ebfff9c3 	bl	1121c <semfree>
   12b0c:	e5940430 	ldr	r0, [r4, #1072]	; 0x430
   12b10:	ebfff9c1 	bl	1121c <semfree>
   12b14:	ea000003 	b	12b28 <uartInit+0xf0>
   12b18:	e5846004 	str	r6, [r4, #4]
   12b1c:	e5963030 	ldr	r3, [r6, #48]	; 0x30
   12b20:	e7883007 	str	r3, [r8, r7]
   12b24:	e8bd8ff8 	pop	{r3, r4, r5, r6, r7, r8, r9, sl, fp, pc}
   12b28:	e3e00000 	mvn	r0, #0
   12b2c:	e8bd8ff8 	pop	{r3, r4, r5, r6, r7, r8, r9, sl, fp, pc}
   12b30:	0000083c 	.word	0x0000083c
   12b34:	0002482c 	.word	0x0002482c
   12b38:	00022820 	.word	0x00022820
   12b3c:	00000434 	.word	0x00000434

00012b40 <uartInterrupt>:
   12b40:	e92d4038 	push	{r3, r4, r5, lr}
   12b44:	e59f3160 	ldr	r3, [pc, #352]	; 12cac <uartInterrupt+0x16c>
   12b48:	e3a02001 	mov	r2, #1
   12b4c:	e5832000 	str	r2, [r3]
   12b50:	e59f3158 	ldr	r3, [pc, #344]	; 12cb0 <uartInterrupt+0x170>
   12b54:	e5934000 	ldr	r4, [r3]
   12b58:	e5945040 	ldr	r5, [r4, #64]	; 0x40
   12b5c:	e3150020 	tst	r5, #32
   12b60:	0a000025 	beq	12bfc <uartInterrupt+0xbc>
   12b64:	e593101c 	ldr	r1, [r3, #28]
   12b68:	e59fc144 	ldr	ip, [pc, #324]	; 12cb4 <uartInterrupt+0x174>
   12b6c:	e0811002 	add	r1, r1, r2
   12b70:	e583101c 	str	r1, [r3, #28]
   12b74:	e3a01020 	mov	r1, #32
   12b78:	e5841044 	str	r1, [r4, #68]	; 0x44
   12b7c:	e19310bc 	ldrh	r1, [r3, ip]
   12b80:	e3510000 	cmp	r1, #0
   12b84:	05c32838 	strbeq	r2, [r3, #2104]	; 0x838
   12b88:	0a00001b 	beq	12bfc <uartInterrupt+0xbc>
   12b8c:	e59f0124 	ldr	r0, [pc, #292]	; 12cb8 <uartInterrupt+0x178>
   12b90:	e3a01000 	mov	r1, #0
   12b94:	e19320b0 	ldrh	r2, [r3, r0]
   12b98:	e2811001 	add	r1, r1, #1
   12b9c:	e0832002 	add	r2, r3, r2
   12ba0:	e5d22438 	ldrb	r2, [r2, #1080]	; 0x438
   12ba4:	e5842000 	str	r2, [r4]
   12ba8:	e19320b0 	ldrh	r2, [r3, r0]
   12bac:	e2822001 	add	r2, r2, #1
   12bb0:	e3c22b3f 	bic	r2, r2, #64512	; 0xfc00
   12bb4:	e18320b0 	strh	r2, [r3, r0]
   12bb8:	e193e0bc 	ldrh	lr, [r3, ip]
   12bbc:	e24ee001 	sub	lr, lr, #1
   12bc0:	e6ffe07e 	uxth	lr, lr
   12bc4:	e183e0bc 	strh	lr, [r3, ip]
   12bc8:	e5942018 	ldr	r2, [r4, #24]
   12bcc:	e3120020 	tst	r2, #32
   12bd0:	e59f20d8 	ldr	r2, [pc, #216]	; 12cb0 <uartInterrupt+0x170>
   12bd4:	0a000005 	beq	12bf0 <uartInterrupt+0xb0>
   12bd8:	e5923008 	ldr	r3, [r2, #8]
   12bdc:	e5920430 	ldr	r0, [r2, #1072]	; 0x430
   12be0:	e0813003 	add	r3, r1, r3
   12be4:	e5823008 	str	r3, [r2, #8]
   12be8:	ebfff9de 	bl	11368 <signaln>
   12bec:	ea000002 	b	12bfc <uartInterrupt+0xbc>
   12bf0:	e35e0000 	cmp	lr, #0
   12bf4:	1affffe6 	bne	12b94 <uartInterrupt+0x54>
   12bf8:	eafffff6 	b	12bd8 <uartInterrupt+0x98>
   12bfc:	e3150010 	tst	r5, #16
   12c00:	0a00001f 	beq	12c84 <uartInterrupt+0x144>
   12c04:	e59f30a4 	ldr	r3, [pc, #164]	; 12cb0 <uartInterrupt+0x170>
   12c08:	e59fc0ac 	ldr	ip, [pc, #172]	; 12cbc <uartInterrupt+0x17c>
   12c0c:	e5932018 	ldr	r2, [r3, #24]
   12c10:	e1d302b8 	ldrh	r0, [r3, #40]	; 0x28
   12c14:	e2822001 	add	r2, r2, #1
   12c18:	e5832018 	str	r2, [r3, #24]
   12c1c:	e3a01000 	mov	r1, #0
   12c20:	e1d322ba 	ldrh	r2, [r3, #42]	; 0x2a
   12c24:	e594e000 	ldr	lr, [r4]
   12c28:	e152000c 	cmp	r2, ip
   12c2c:	8a000008 	bhi	12c54 <uartInterrupt+0x114>
   12c30:	e0822000 	add	r2, r2, r0
   12c34:	e1a02b02 	lsl	r2, r2, #22
   12c38:	e0832b22 	add	r2, r3, r2, lsr #22
   12c3c:	e5c2e02c 	strb	lr, [r2, #44]	; 0x2c
   12c40:	e1d322ba 	ldrh	r2, [r3, #42]	; 0x2a
   12c44:	e2811001 	add	r1, r1, #1
   12c48:	e2822001 	add	r2, r2, #1
   12c4c:	e1c322ba 	strh	r2, [r3, #42]	; 0x2a
   12c50:	ea000002 	b	12c60 <uartInterrupt+0x120>
   12c54:	e5932014 	ldr	r2, [r3, #20]
   12c58:	e2822001 	add	r2, r2, #1
   12c5c:	e5832014 	str	r2, [r3, #20]
   12c60:	e5942018 	ldr	r2, [r4, #24]
   12c64:	e3120010 	tst	r2, #16
   12c68:	0affffec 	beq	12c20 <uartInterrupt+0xe0>
   12c6c:	e59f303c 	ldr	r3, [pc, #60]	; 12cb0 <uartInterrupt+0x170>
   12c70:	e593200c 	ldr	r2, [r3, #12]
   12c74:	e5930024 	ldr	r0, [r3, #36]	; 0x24
   12c78:	e0812002 	add	r2, r1, r2
   12c7c:	e583200c 	str	r2, [r3, #12]
   12c80:	ebfff9b8 	bl	11368 <signaln>
   12c84:	e59f3020 	ldr	r3, [pc, #32]	; 12cac <uartInterrupt+0x16c>
   12c88:	e5932000 	ldr	r2, [r3]
   12c8c:	e2422001 	sub	r2, r2, #1
   12c90:	e3520000 	cmp	r2, #0
   12c94:	d5832000 	strle	r2, [r3]
   12c98:	d8bd8038 	pople	{r3, r4, r5, pc}
   12c9c:	e3a02000 	mov	r2, #0
   12ca0:	e5832000 	str	r2, [r3]
   12ca4:	e8bd4038 	pop	{r3, r4, r5, lr}
   12ca8:	eafff760 	b	10a30 <resched>
   12cac:	00023be0 	.word	0x00023be0
   12cb0:	0002482c 	.word	0x0002482c
   12cb4:	00000436 	.word	0x00000436
   12cb8:	00000434 	.word	0x00000434
   12cbc:	000003ff 	.word	0x000003ff

00012cc0 <uartPutc>:
   12cc0:	e92d4007 	push	{r0, r1, r2, lr}
   12cc4:	e28d3008 	add	r3, sp, #8
   12cc8:	e5631001 	strb	r1, [r3, #-1]!
   12ccc:	e1a01003 	mov	r1, r3
   12cd0:	e3a02001 	mov	r2, #1
   12cd4:	eb00003a 	bl	12dc4 <uartWrite>
   12cd8:	e3500001 	cmp	r0, #1
   12cdc:	05dd0007 	ldrbeq	r0, [sp, #7]
   12ce0:	13e00000 	mvnne	r0, #0
   12ce4:	e8bd800e 	pop	{r1, r2, r3, pc}

00012ce8 <uartRead>:
   12ce8:	e92d41f0 	push	{r4, r5, r6, r7, r8, lr}
   12cec:	e1a04000 	mov	r4, r0
   12cf0:	e1a08001 	mov	r8, r1
   12cf4:	e1a07002 	mov	r7, r2
   12cf8:	ebfff508 	bl	10120 <disable>
   12cfc:	e5943004 	ldr	r3, [r4, #4]
   12d00:	e59fc0b4 	ldr	ip, [pc, #180]	; 12dbc <uartRead+0xd4>
   12d04:	e1a06000 	mov	r6, r0
   12d08:	e00c039c 	mul	ip, ip, r3
   12d0c:	e59f30ac 	ldr	r3, [pc, #172]	; 12dc0 <uartRead+0xd8>
   12d10:	e08c4003 	add	r4, ip, r3
   12d14:	e79c3003 	ldr	r3, [ip, r3]
   12d18:	e3530000 	cmp	r3, #0
   12d1c:	13a05000 	movne	r5, #0
   12d20:	1a000022 	bne	12db0 <uartRead+0xc8>
   12d24:	ebfff500 	bl	1012c <restore>
   12d28:	e3e00000 	mvn	r0, #0
   12d2c:	e8bd81f0 	pop	{r4, r5, r6, r7, r8, pc}
   12d30:	e5d43020 	ldrb	r3, [r4, #32]
   12d34:	e3130001 	tst	r3, #1
   12d38:	0a000006 	beq	12d58 <uartRead+0x70>
   12d3c:	e1d432ba 	ldrh	r3, [r4, #42]	; 0x2a
   12d40:	e3530000 	cmp	r3, #0
   12d44:	1a000003 	bne	12d58 <uartRead+0x70>
   12d48:	e1a00006 	mov	r0, r6
   12d4c:	ebfff4f6 	bl	1012c <restore>
   12d50:	e1a00005 	mov	r0, r5
   12d54:	e8bd81f0 	pop	{r4, r5, r6, r7, r8, pc}
   12d58:	e5940024 	ldr	r0, [r4, #36]	; 0x24
   12d5c:	ebfff9a6 	bl	113fc <wait>
   12d60:	e1d432b8 	ldrh	r3, [r4, #40]	; 0x28
   12d64:	e0843003 	add	r3, r4, r3
   12d68:	e5d3102c 	ldrb	r1, [r3, #44]	; 0x2c
   12d6c:	e7c81005 	strb	r1, [r8, r5]
   12d70:	e1d422ba 	ldrh	r2, [r4, #42]	; 0x2a
   12d74:	e2422001 	sub	r2, r2, #1
   12d78:	e1c422ba 	strh	r2, [r4, #42]	; 0x2a
   12d7c:	e1d422b8 	ldrh	r2, [r4, #40]	; 0x28
   12d80:	e2822001 	add	r2, r2, #1
   12d84:	e3c22b3f 	bic	r2, r2, #64512	; 0xfc00
   12d88:	e1c422b8 	strh	r2, [r4, #40]	; 0x28
   12d8c:	e5d42020 	ldrb	r2, [r4, #32]
   12d90:	e2022002 	and	r2, r2, #2
   12d94:	e6ef2072 	uxtb	r2, r2
   12d98:	e3520000 	cmp	r2, #0
   12d9c:	0a000001 	beq	12da8 <uartRead+0xc0>
   12da0:	e5940004 	ldr	r0, [r4, #4]
   12da4:	ebffffc5 	bl	12cc0 <uartPutc>
   12da8:	e2855001 	add	r5, r5, #1
   12dac:	eaffffff 	b	12db0 <uartRead+0xc8>
   12db0:	e1550007 	cmp	r5, r7
   12db4:	1affffdd 	bne	12d30 <uartRead+0x48>
   12db8:	eaffffe2 	b	12d48 <uartRead+0x60>
   12dbc:	0000083c 	.word	0x0000083c
   12dc0:	0002482c 	.word	0x0002482c

00012dc4 <uartWrite>:
   12dc4:	e92d4ff7 	push	{r0, r1, r2, r4, r5, r6, r7, r8, r9, sl, fp, lr}
   12dc8:	e1a04000 	mov	r4, r0
   12dcc:	e1a08002 	mov	r8, r2
   12dd0:	e1a0a001 	mov	sl, r1
   12dd4:	ebfff4d1 	bl	10120 <disable>
   12dd8:	e5943004 	ldr	r3, [r4, #4]
   12ddc:	e59f20d0 	ldr	r2, [pc, #208]	; 12eb4 <uartWrite+0xf0>
   12de0:	e1a07000 	mov	r7, r0
   12de4:	e0020392 	mul	r2, r2, r3
   12de8:	e59f30c8 	ldr	r3, [pc, #200]	; 12eb8 <uartWrite+0xf4>
   12dec:	e0824003 	add	r4, r2, r3
   12df0:	e7923003 	ldr	r3, [r2, r3]
   12df4:	e3530000 	cmp	r3, #0
   12df8:	1a000025 	bne	12e94 <uartWrite+0xd0>
   12dfc:	ebfff4ca 	bl	1012c <restore>
   12e00:	e3e00000 	mvn	r0, #0
   12e04:	ea000029 	b	12eb0 <uartWrite+0xec>
   12e08:	e5d43838 	ldrb	r3, [r4, #2104]	; 0x838
   12e0c:	e7da1005 	ldrb	r1, [sl, r5]
   12e10:	e3530000 	cmp	r3, #0
   12e14:	0a000006 	beq	12e34 <uartWrite+0x70>
   12e18:	e5940000 	ldr	r0, [r4]
   12e1c:	ebfffeea 	bl	129cc <uartHwPutc>
   12e20:	e5943008 	ldr	r3, [r4, #8]
   12e24:	e5c4b838 	strb	fp, [r4, #2104]	; 0x838
   12e28:	e2833001 	add	r3, r3, #1
   12e2c:	e5843008 	str	r3, [r4, #8]
   12e30:	ea000015 	b	12e8c <uartWrite+0xc8>
   12e34:	e5d4342c 	ldrb	r3, [r4, #1068]	; 0x42c
   12e38:	e3130001 	tst	r3, #1
   12e3c:	0a000006 	beq	12e5c <uartWrite+0x98>
   12e40:	e19430b6 	ldrh	r3, [r4, r6]
   12e44:	e3530b01 	cmp	r3, #1024	; 0x400
   12e48:	1a000003 	bne	12e5c <uartWrite+0x98>
   12e4c:	e1a00007 	mov	r0, r7
   12e50:	ebfff4b5 	bl	1012c <restore>
   12e54:	e1a00005 	mov	r0, r5
   12e58:	ea000014 	b	12eb0 <uartWrite+0xec>
   12e5c:	e5940430 	ldr	r0, [r4, #1072]	; 0x430
   12e60:	e58d1004 	str	r1, [sp, #4]
   12e64:	ebfff964 	bl	113fc <wait>
   12e68:	e19430b6 	ldrh	r3, [r4, r6]
   12e6c:	e19420b9 	ldrh	r2, [r4, r9]
   12e70:	e59d1004 	ldr	r1, [sp, #4]
   12e74:	e0832002 	add	r2, r3, r2
   12e78:	e1a02b02 	lsl	r2, r2, #22
   12e7c:	e0842b22 	add	r2, r4, r2, lsr #22
   12e80:	e2833001 	add	r3, r3, #1
   12e84:	e5c21438 	strb	r1, [r2, #1080]	; 0x438
   12e88:	e18430b6 	strh	r3, [r4, r6]
   12e8c:	e2855001 	add	r5, r5, #1
   12e90:	ea000003 	b	12ea4 <uartWrite+0xe0>
   12e94:	e3a05000 	mov	r5, #0
   12e98:	e59f601c 	ldr	r6, [pc, #28]	; 12ebc <uartWrite+0xf8>
   12e9c:	e59f901c 	ldr	r9, [pc, #28]	; 12ec0 <uartWrite+0xfc>
   12ea0:	e1a0b005 	mov	fp, r5
   12ea4:	e1550008 	cmp	r5, r8
   12ea8:	1affffd6 	bne	12e08 <uartWrite+0x44>
   12eac:	eaffffe6 	b	12e4c <uartWrite+0x88>
   12eb0:	e8bd8ffe 	pop	{r1, r2, r3, r4, r5, r6, r7, r8, r9, sl, fp, pc}
   12eb4:	0000083c 	.word	0x0000083c
   12eb8:	0002482c 	.word	0x0002482c
   12ebc:	00000436 	.word	0x00000436
   12ec0:	00000434 	.word	0x00000434

00012ec4 <uartStat>:
   12ec4:	e92d4070 	push	{r4, r5, r6, lr}
   12ec8:	e59f6094 	ldr	r6, [pc, #148]	; 12f64 <uartStat+0xa0>
   12ecc:	e59f5094 	ldr	r5, [pc, #148]	; 12f68 <uartStat+0xa4>
   12ed0:	e0060096 	mul	r6, r6, r0
   12ed4:	e0864005 	add	r4, r6, r5
   12ed8:	e5943004 	ldr	r3, [r4, #4]
   12edc:	e3530000 	cmp	r3, #0
   12ee0:	08bd8070 	popeq	{r4, r5, r6, pc}
   12ee4:	e5931008 	ldr	r1, [r3, #8]
   12ee8:	e59f007c 	ldr	r0, [pc, #124]	; 12f6c <uartStat+0xa8>
   12eec:	eb0022fc 	bl	1bae4 <printf>
   12ef0:	e59f0078 	ldr	r0, [pc, #120]	; 12f70 <uartStat+0xac>
   12ef4:	eb0022fa 	bl	1bae4 <printf>
   12ef8:	e59f0074 	ldr	r0, [pc, #116]	; 12f74 <uartStat+0xb0>
   12efc:	eb0022f8 	bl	1bae4 <printf>
   12f00:	e5941008 	ldr	r1, [r4, #8]
   12f04:	e59f006c 	ldr	r0, [pc, #108]	; 12f78 <uartStat+0xb4>
   12f08:	eb0022f5 	bl	1bae4 <printf>
   12f0c:	e594100c 	ldr	r1, [r4, #12]
   12f10:	e59f0064 	ldr	r0, [pc, #100]	; 12f7c <uartStat+0xb8>
   12f14:	eb0022f2 	bl	1bae4 <printf>
   12f18:	e5941014 	ldr	r1, [r4, #20]
   12f1c:	e59f005c 	ldr	r0, [pc, #92]	; 12f80 <uartStat+0xbc>
   12f20:	eb0022ef 	bl	1bae4 <printf>
   12f24:	e5941010 	ldr	r1, [r4, #16]
   12f28:	e59f0054 	ldr	r0, [pc, #84]	; 12f84 <uartStat+0xc0>
   12f2c:	eb0022ec 	bl	1bae4 <printf>
   12f30:	e594101c 	ldr	r1, [r4, #28]
   12f34:	e59f004c 	ldr	r0, [pc, #76]	; 12f88 <uartStat+0xc4>
   12f38:	eb0022e9 	bl	1bae4 <printf>
   12f3c:	e59f0048 	ldr	r0, [pc, #72]	; 12f8c <uartStat+0xc8>
   12f40:	e5941018 	ldr	r1, [r4, #24]
   12f44:	eb0022e6 	bl	1bae4 <printf>
   12f48:	e7960005 	ldr	r0, [r6, r5]
   12f4c:	e3500000 	cmp	r0, #0
   12f50:	0a000000 	beq	12f58 <uartStat+0x94>
   12f54:	ebfffe9e 	bl	129d4 <uartHwStat>
   12f58:	e59f0030 	ldr	r0, [pc, #48]	; 12f90 <uartStat+0xcc>
   12f5c:	e8bd4070 	pop	{r4, r5, r6, lr}
   12f60:	ea0022df 	b	1bae4 <printf>
   12f64:	0000083c 	.word	0x0000083c
   12f68:	0002482c 	.word	0x0002482c
   12f6c:	0001c885 	.word	0x0001c885
   12f70:	0001c88a 	.word	0x0001c88a
   12f74:	0001c809 	.word	0x0001c809
   12f78:	0001c898 	.word	0x0001c898
   12f7c:	0001c8b0 	.word	0x0001c8b0
   12f80:	0001c8c7 	.word	0x0001c8c7
   12f84:	0001c8e0 	.word	0x0001c8e0
   12f88:	0001c8fb 	.word	0x0001c8fb
   12f8c:	0001c912 	.word	0x0001c912
   12f90:	0001d561 	.word	0x0001d561

00012f94 <kprintf>:
   12f94:	e92d000f 	push	{r0, r1, r2, r3}
   12f98:	e92d4007 	push	{r0, r1, r2, lr}
   12f9c:	e59d0010 	ldr	r0, [sp, #16]
   12fa0:	e28d1014 	add	r1, sp, #20
   12fa4:	e58d1004 	str	r1, [sp, #4]
   12fa8:	eb000002 	bl	12fb8 <kvprintf>
   12fac:	e8bd400e 	pop	{r1, r2, r3, lr}
   12fb0:	e28dd010 	add	sp, sp, #16
   12fb4:	e12fff1e 	bx	lr

00012fb8 <kvprintf>:
   12fb8:	e92d4070 	push	{r4, r5, r6, lr}
   12fbc:	e1a05000 	mov	r5, r0
   12fc0:	e1a06001 	mov	r6, r1
   12fc4:	ebfff455 	bl	10120 <disable>
   12fc8:	e1a01006 	mov	r1, r6
   12fcc:	e1a04000 	mov	r4, r0
   12fd0:	e59f201c 	ldr	r2, [pc, #28]	; 12ff4 <kvprintf+0x3c>
   12fd4:	e59f301c 	ldr	r3, [pc, #28]	; 12ff8 <kvprintf+0x40>
   12fd8:	e1a00005 	mov	r0, r5
   12fdc:	eb0020d4 	bl	1b334 <_doprnt>
   12fe0:	e1a05000 	mov	r5, r0
   12fe4:	e1a00004 	mov	r0, r4
   12fe8:	ebfff44f 	bl	1012c <restore>
   12fec:	e1a00005 	mov	r0, r5
   12ff0:	e8bd8070 	pop	{r4, r5, r6, pc}
   12ff4:	00012818 	.word	0x00012818
   12ff8:	0001fb88 	.word	0x0001fb88

00012ffc <get_datetime>:
   12ffc:	e59f3010 	ldr	r3, [pc, #16]	; 13014 <get_datetime+0x18>
   13000:	e5930000 	ldr	r0, [r3]
   13004:	e59f300c 	ldr	r3, [pc, #12]	; 13018 <get_datetime+0x1c>
   13008:	e5933000 	ldr	r3, [r3]
   1300c:	e0800003 	add	r0, r0, r3
   13010:	e12fff1e 	bx	lr
   13014:	00023bec 	.word	0x00023bec
   13018:	00025068 	.word	0x00025068

0001301c <convertDate>:
   1301c:	e92d4ff8 	push	{r3, r4, r5, r6, r7, r8, r9, sl, fp, lr}
   13020:	e1a06001 	mov	r6, r1
   13024:	e1a04000 	mov	r4, r0
   13028:	e1a00001 	mov	r0, r1
   1302c:	e59f1290 	ldr	r1, [pc, #656]	; 132c4 <convertDate+0x2a8>
   13030:	eb002536 	bl	1c510 <__aeabi_uidiv>
   13034:	e3a01007 	mov	r1, #7
   13038:	e2800001 	add	r0, r0, #1
   1303c:	eb002570 	bl	1c604 <__aeabi_uidivmod>
   13040:	e1a00006 	mov	r0, r6
   13044:	e5841014 	str	r1, [r4, #20]
   13048:	e59f1278 	ldr	r1, [pc, #632]	; 132c8 <convertDate+0x2ac>
   1304c:	eb00252f 	bl	1c510 <__aeabi_uidiv>
   13050:	e2405001 	sub	r5, r0, #1
   13054:	e1a07000 	mov	r7, r0
   13058:	e3a01064 	mov	r1, #100	; 0x64
   1305c:	e1a00005 	mov	r0, r5
   13060:	eb00256f 	bl	1c624 <__aeabi_idiv>
   13064:	e3550000 	cmp	r5, #0
   13068:	b2875002 	addlt	r5, r7, #2
   1306c:	e0805145 	add	r5, r0, r5, asr #2
   13070:	e59f024c 	ldr	r0, [pc, #588]	; 132c4 <convertDate+0x2a8>
   13074:	e59f124c 	ldr	r1, [pc, #588]	; 132c8 <convertDate+0x2ac>
   13078:	e0000590 	mul	r0, r0, r5
   1307c:	e0600006 	rsb	r0, r0, r6
   13080:	eb002522 	bl	1c510 <__aeabi_uidiv>
   13084:	e59fa240 	ldr	sl, [pc, #576]	; 132cc <convertDate+0x2b0>
   13088:	e3100003 	tst	r0, #3
   1308c:	e02a609a 	mla	sl, sl, r0, r6
   13090:	e2806e76 	add	r6, r0, #1888	; 0x760
   13094:	e1a05000 	mov	r5, r0
   13098:	e5840018 	str	r0, [r4, #24]
   1309c:	e286600c 	add	r6, r6, #12
   130a0:	1a000004 	bne	130b8 <convertDate+0x9c>
   130a4:	e3a01064 	mov	r1, #100	; 0x64
   130a8:	eb0025a7 	bl	1c74c <__aeabi_idivmod>
   130ac:	e3510000 	cmp	r1, #0
   130b0:	13a07001 	movne	r7, #1
   130b4:	1a000005 	bne	130d0 <convertDate+0xb4>
   130b8:	e1a00006 	mov	r0, r6
   130bc:	e3a01e19 	mov	r1, #400	; 0x190
   130c0:	eb0025a1 	bl	1c74c <__aeabi_idivmod>
   130c4:	e2717001 	rsbs	r7, r1, #1
   130c8:	33a07000 	movcc	r7, #0
   130cc:	eaffffff 	b	130d0 <convertDate+0xb4>
   130d0:	e1a0000a 	mov	r0, sl
   130d4:	e59f11e8 	ldr	r1, [pc, #488]	; 132c4 <convertDate+0x2a8>
   130d8:	eb00250c 	bl	1c510 <__aeabi_uidiv>
   130dc:	e59f31ec 	ldr	r3, [pc, #492]	; 132d0 <convertDate+0x2b4>
   130e0:	e1a09000 	mov	r9, r0
   130e4:	e02aa093 	mla	sl, r3, r0, sl
   130e8:	e3a01064 	mov	r1, #100	; 0x64
   130ec:	e1a00005 	mov	r0, r5
   130f0:	eb00254b 	bl	1c624 <__aeabi_idiv>
   130f4:	e1a08145 	asr	r8, r5, #2
   130f8:	e2800004 	add	r0, r0, #4
   130fc:	e068b000 	rsb	fp, r8, r0
   13100:	e3a01e19 	mov	r1, #400	; 0x190
   13104:	e1a00006 	mov	r0, r6
   13108:	eb002545 	bl	1c624 <__aeabi_idiv>
   1310c:	e060000b 	rsb	r0, r0, fp
   13110:	e0809009 	add	r9, r0, r9
   13114:	e0899007 	add	r9, r9, r7
   13118:	e3a03000 	mov	r3, #0
   1311c:	e584901c 	str	r9, [r4, #28]
   13120:	e584900c 	str	r9, [r4, #12]
   13124:	e5843010 	str	r3, [r4, #16]
   13128:	e59f11a4 	ldr	r1, [pc, #420]	; 132d4 <convertDate+0x2b8>
   1312c:	ea000026 	b	131cc <convertDate+0x1b0>
   13130:	e3570001 	cmp	r7, #1
   13134:	13a03000 	movne	r3, #0
   13138:	1a000003 	bne	1314c <convertDate+0x130>
   1313c:	e2562001 	subs	r2, r6, #1
   13140:	e2723000 	rsbs	r3, r2, #0
   13144:	e0b33002 	adcs	r3, r3, r2
   13148:	eaffffff 	b	1314c <convertDate+0x130>
   1314c:	e7d10006 	ldrb	r0, [r1, r6]
   13150:	e594200c 	ldr	r2, [r4, #12]
   13154:	e0833000 	add	r3, r3, r0
   13158:	e1520003 	cmp	r2, r3
   1315c:	aa000016 	bge	131bc <convertDate+0x1a0>
   13160:	e594900c 	ldr	r9, [r4, #12]
   13164:	e1a0000a 	mov	r0, sl
   13168:	e2899001 	add	r9, r9, #1
   1316c:	e3a01ee1 	mov	r1, #3600	; 0xe10
   13170:	e584900c 	str	r9, [r4, #12]
   13174:	eb0024e5 	bl	1c510 <__aeabi_uidiv>
   13178:	e59f3158 	ldr	r3, [pc, #344]	; 132d8 <convertDate+0x2bc>
   1317c:	e5840008 	str	r0, [r4, #8]
   13180:	e02aa093 	mla	sl, r3, r0, sl
   13184:	e1a07000 	mov	r7, r0
   13188:	e3a0103c 	mov	r1, #60	; 0x3c
   1318c:	e1a0000a 	mov	r0, sl
   13190:	eb0024de 	bl	1c510 <__aeabi_uidiv>
   13194:	e3e0303b 	mvn	r3, #59	; 0x3b
   13198:	e02aa093 	mla	sl, r3, r0, sl
   1319c:	e3a03000 	mov	r3, #0
   131a0:	e5843020 	str	r3, [r4, #32]
   131a4:	e2453037 	sub	r3, r5, #55	; 0x37
   131a8:	e3530033 	cmp	r3, #51	; 0x33
   131ac:	e5840004 	str	r0, [r4, #4]
   131b0:	e584a000 	str	sl, [r4]
   131b4:	9a000008 	bls	131dc <convertDate+0x1c0>
   131b8:	ea00001c 	b	13230 <convertDate+0x214>
   131bc:	e0633002 	rsb	r3, r3, r2
   131c0:	e2866001 	add	r6, r6, #1
   131c4:	e584300c 	str	r3, [r4, #12]
   131c8:	e5846010 	str	r6, [r4, #16]
   131cc:	e5946010 	ldr	r6, [r4, #16]
   131d0:	e356000a 	cmp	r6, #10
   131d4:	9affffd5 	bls	13130 <convertDate+0x114>
   131d8:	eaffffe0 	b	13160 <convertDate+0x144>
   131dc:	e2463005 	sub	r3, r6, #5
   131e0:	e3530002 	cmp	r3, #2
   131e4:	9a000016 	bls	13244 <convertDate+0x228>
   131e8:	e3560004 	cmp	r6, #4
   131ec:	1a000007 	bne	13210 <convertDate+0x1f4>
   131f0:	e3a00006 	mov	r0, #6
   131f4:	e0050590 	mul	r5, r0, r5
   131f8:	e2850002 	add	r0, r5, #2
   131fc:	e0680000 	rsb	r0, r8, r0
   13200:	e3a01007 	mov	r1, #7
   13204:	eb002550 	bl	1c74c <__aeabi_idivmod>
   13208:	e2811001 	add	r1, r1, #1
   1320c:	ea000023 	b	132a0 <convertDate+0x284>
   13210:	e3560008 	cmp	r6, #8
   13214:	1a000020 	bne	1329c <convertDate+0x280>
   13218:	e0855105 	add	r5, r5, r5, lsl #2
   1321c:	e1e00145 	mvn	r0, r5, asr #2
   13220:	e280001f 	add	r0, r0, #31
   13224:	e3a01007 	mov	r1, #7
   13228:	eb002547 	bl	1c74c <__aeabi_idivmod>
   1322c:	ea00001b 	b	132a0 <convertDate+0x284>
   13230:	e355006a 	cmp	r5, #106	; 0x6a
   13234:	da000016 	ble	13294 <convertDate+0x278>
   13238:	e2463004 	sub	r3, r6, #4
   1323c:	e3530004 	cmp	r3, #4
   13240:	8a000001 	bhi	1324c <convertDate+0x230>
   13244:	e3a03001 	mov	r3, #1
   13248:	ea000012 	b	13298 <convertDate+0x27c>
   1324c:	e3560003 	cmp	r6, #3
   13250:	1a000006 	bne	13270 <convertDate+0x254>
   13254:	e0855105 	add	r5, r5, r5, lsl #2
   13258:	e1a00145 	asr	r0, r5, #2
   1325c:	e2800001 	add	r0, r0, #1
   13260:	e3a01007 	mov	r1, #7
   13264:	eb002538 	bl	1c74c <__aeabi_idivmod>
   13268:	e261100e 	rsb	r1, r1, #14
   1326c:	ea00000b 	b	132a0 <convertDate+0x284>
   13270:	e3560009 	cmp	r6, #9
   13274:	1a000008 	bne	1329c <convertDate+0x280>
   13278:	e0855105 	add	r5, r5, r5, lsl #2
   1327c:	e1a00145 	asr	r0, r5, #2
   13280:	e2800001 	add	r0, r0, #1
   13284:	e3a01007 	mov	r1, #7
   13288:	eb00252f 	bl	1c74c <__aeabi_idivmod>
   1328c:	e2611007 	rsb	r1, r1, #7
   13290:	ea000002 	b	132a0 <convertDate+0x284>
   13294:	e3e03000 	mvn	r3, #0
   13298:	e5843020 	str	r3, [r4, #32]
   1329c:	e59f1038 	ldr	r1, [pc, #56]	; 132dc <convertDate+0x2c0>
   132a0:	e1590001 	cmp	r9, r1
   132a4:	1a000002 	bne	132b4 <convertDate+0x298>
   132a8:	e3570001 	cmp	r7, #1
   132ac:	d8bd8ff8 	pople	{r3, r4, r5, r6, r7, r8, r9, sl, fp, pc}
   132b0:	ea000000 	b	132b8 <convertDate+0x29c>
   132b4:	d8bd8ff8 	pople	{r3, r4, r5, r6, r7, r8, r9, sl, fp, pc}
   132b8:	e3a03001 	mov	r3, #1
   132bc:	e5843020 	str	r3, [r4, #32]
   132c0:	e8bd8ff8 	pop	{r3, r4, r5, r6, r7, r8, r9, sl, fp, pc}
   132c4:	00015180 	.word	0x00015180
   132c8:	01e13380 	.word	0x01e13380
   132cc:	fe1ecc80 	.word	0xfe1ecc80
   132d0:	fffeae80 	.word	0xfffeae80
   132d4:	0001ff48 	.word	0x0001ff48
   132d8:	fffff1f0 	.word	0xfffff1f0
   132dc:	0000016e 	.word	0x0000016e

000132e0 <printDateTZ>:
   132e0:	e92d4070 	push	{r4, r5, r6, lr}
   132e4:	e1a05000 	mov	r5, r0
   132e8:	e24dd040 	sub	sp, sp, #64	; 0x40
   132ec:	e3a06ee1 	mov	r6, #3600	; 0xe10
   132f0:	e1a04001 	mov	r4, r1
   132f4:	e28d001c 	add	r0, sp, #28
   132f8:	e0215196 	mla	r1, r6, r1, r5
   132fc:	ebffff46 	bl	1301c <convertDate>
   13300:	e59d303c 	ldr	r3, [sp, #60]	; 0x3c
   13304:	e3530001 	cmp	r3, #1
   13308:	1a000003 	bne	1331c <printDateTZ+0x3c>
   1330c:	e2841001 	add	r1, r4, #1
   13310:	e28d001c 	add	r0, sp, #28
   13314:	e0215196 	mla	r1, r6, r1, r5
   13318:	ebffff3f 	bl	1301c <convertDate>
   1331c:	e59f3070 	ldr	r3, [pc, #112]	; 13394 <printDateTZ+0xb4>
   13320:	e59dc03c 	ldr	ip, [sp, #60]	; 0x3c
   13324:	e0834104 	add	r4, r3, r4, lsl #2
   13328:	e59f0068 	ldr	r0, [pc, #104]	; 13398 <printDateTZ+0xb8>
   1332c:	e594100c 	ldr	r1, [r4, #12]
   13330:	e59f2064 	ldr	r2, [pc, #100]	; 1339c <printDateTZ+0xbc>
   13334:	e35c0001 	cmp	ip, #1
   13338:	01a02000 	moveq	r2, r0
   1333c:	e88d0006 	stm	sp, {r1, r2}
   13340:	e59d2030 	ldr	r2, [sp, #48]	; 0x30
   13344:	e59d1024 	ldr	r1, [sp, #36]	; 0x24
   13348:	e0832102 	add	r2, r3, r2, lsl #2
   1334c:	e592206c 	ldr	r2, [r2, #108]	; 0x6c
   13350:	e59f0048 	ldr	r0, [pc, #72]	; 133a0 <printDateTZ+0xc0>
   13354:	e58d2008 	str	r2, [sp, #8]
   13358:	e59d202c 	ldr	r2, [sp, #44]	; 0x2c
   1335c:	e0833102 	add	r3, r3, r2, lsl #2
   13360:	e5933088 	ldr	r3, [r3, #136]	; 0x88
   13364:	e59d2020 	ldr	r2, [sp, #32]
   13368:	e58d300c 	str	r3, [sp, #12]
   1336c:	e59d3028 	ldr	r3, [sp, #40]	; 0x28
   13370:	e58d3010 	str	r3, [sp, #16]
   13374:	e59d3034 	ldr	r3, [sp, #52]	; 0x34
   13378:	e2833e76 	add	r3, r3, #1888	; 0x760
   1337c:	e283300c 	add	r3, r3, #12
   13380:	e58d3014 	str	r3, [sp, #20]
   13384:	e59d301c 	ldr	r3, [sp, #28]
   13388:	eb0021d5 	bl	1bae4 <printf>
   1338c:	e28dd040 	add	sp, sp, #64	; 0x40
   13390:	e8bd8070 	pop	{r4, r5, r6, pc}
   13394:	0001ff48 	.word	0x0001ff48
   13398:	0001c928 	.word	0x0001c928
   1339c:	0001c92b 	.word	0x0001c92b
   133a0:	0001c92e 	.word	0x0001c92e

000133a4 <printDate>:
   133a4:	e3a010fa 	mov	r1, #250	; 0xfa
   133a8:	eaffffcc 	b	132e0 <printDateTZ>

000133ac <mailboxAlloc>:
   133ac:	e92d45f8 	push	{r3, r4, r5, r6, r7, r8, sl, lr}
   133b0:	e59f30e8 	ldr	r3, [pc, #232]	; 134a0 <mailboxAlloc+0xf4>
   133b4:	e1a06000 	mov	r6, r0
   133b8:	e5930000 	ldr	r0, [r3]
   133bc:	ebfff80e 	bl	113fc <wait>
   133c0:	e59f30dc 	ldr	r3, [pc, #220]	; 134a4 <mailboxAlloc+0xf8>
   133c4:	e59fa0dc 	ldr	sl, [pc, #220]	; 134a8 <mailboxAlloc+0xfc>
   133c8:	e5931000 	ldr	r1, [r3]
   133cc:	e3a0700f 	mov	r7, #15
   133d0:	e3a0801c 	mov	r8, #28
   133d4:	e2810001 	add	r0, r1, #1
   133d8:	e3a0100f 	mov	r1, #15
   133dc:	eb002488 	bl	1c604 <__aeabi_uidivmod>
   133e0:	e024a198 	mla	r4, r8, r1, sl
   133e4:	e5d45014 	ldrb	r5, [r4, #20]
   133e8:	e3550000 	cmp	r5, #0
   133ec:	1a000021 	bne	13478 <mailboxAlloc+0xcc>
   133f0:	e59f70ac 	ldr	r7, [pc, #172]	; 134a4 <mailboxAlloc+0xf8>
   133f4:	e1a00106 	lsl	r0, r6, #2
   133f8:	e5871000 	str	r1, [r7]
   133fc:	ebfff827 	bl	114a0 <memget>
   13400:	e3700001 	cmn	r0, #1
   13404:	e5840018 	str	r0, [r4, #24]
   13408:	0a000018 	beq	13470 <mailboxAlloc+0xc4>
   1340c:	e584500c 	str	r5, [r4, #12]
   13410:	e5845010 	str	r5, [r4, #16]
   13414:	e5846008 	str	r6, [r4, #8]
   13418:	e1a00006 	mov	r0, r6
   1341c:	ebfff756 	bl	1117c <semcreate>
   13420:	e5840000 	str	r0, [r4]
   13424:	e1a00005 	mov	r0, r5
   13428:	ebfff753 	bl	1117c <semcreate>
   1342c:	e5943000 	ldr	r3, [r4]
   13430:	e5840004 	str	r0, [r4, #4]
   13434:	e3730001 	cmn	r3, #1
   13438:	0a000004 	beq	13450 <mailboxAlloc+0xa4>
   1343c:	e3700001 	cmn	r0, #1
   13440:	13a03001 	movne	r3, #1
   13444:	15c43014 	strbne	r3, [r4, #20]
   13448:	15974000 	ldrne	r4, [r7]
   1344c:	1a00000e 	bne	1348c <mailboxAlloc+0xe0>
   13450:	e5941008 	ldr	r1, [r4, #8]
   13454:	e5940018 	ldr	r0, [r4, #24]
   13458:	e1a01101 	lsl	r1, r1, #2
   1345c:	ebfff834 	bl	11534 <memfree>
   13460:	e5940000 	ldr	r0, [r4]
   13464:	ebfff76c 	bl	1121c <semfree>
   13468:	e5940004 	ldr	r0, [r4, #4]
   1346c:	ebfff76a 	bl	1121c <semfree>
   13470:	e3e04000 	mvn	r4, #0
   13474:	ea000004 	b	1348c <mailboxAlloc+0xe0>
   13478:	e2577001 	subs	r7, r7, #1
   1347c:	1affffd4 	bne	133d4 <mailboxAlloc+0x28>
   13480:	e59f301c 	ldr	r3, [pc, #28]	; 134a4 <mailboxAlloc+0xf8>
   13484:	e5831000 	str	r1, [r3]
   13488:	eafffff8 	b	13470 <mailboxAlloc+0xc4>
   1348c:	e59f300c 	ldr	r3, [pc, #12]	; 134a0 <mailboxAlloc+0xf4>
   13490:	e5930000 	ldr	r0, [r3]
   13494:	ebfff794 	bl	112ec <signal>
   13498:	e1a00004 	mov	r0, r4
   1349c:	e8bd85f8 	pop	{r3, r4, r5, r6, r7, r8, sl, pc}
   134a0:	00025214 	.word	0x00025214
   134a4:	0002506c 	.word	0x0002506c
   134a8:	00025070 	.word	0x00025070

000134ac <mailboxFree>:
   134ac:	e350000e 	cmp	r0, #14
   134b0:	e92d40f8 	push	{r3, r4, r5, r6, r7, lr}
   134b4:	8a00001a 	bhi	13524 <mailboxFree+0x78>
   134b8:	e3a0701c 	mov	r7, #28
   134bc:	e0070097 	mul	r7, r7, r0
   134c0:	e59f3068 	ldr	r3, [pc, #104]	; 13530 <mailboxFree+0x84>
   134c4:	e59f6068 	ldr	r6, [pc, #104]	; 13534 <mailboxFree+0x88>
   134c8:	e5930000 	ldr	r0, [r3]
   134cc:	e0874006 	add	r4, r7, r6
   134d0:	ebfff7c9 	bl	113fc <wait>
   134d4:	e5d45014 	ldrb	r5, [r4, #20]
   134d8:	e3550001 	cmp	r5, #1
   134dc:	13e04000 	mvnne	r4, #0
   134e0:	1a00000b 	bne	13514 <mailboxFree+0x68>
   134e4:	e3a03000 	mov	r3, #0
   134e8:	e5c43014 	strb	r3, [r4, #20]
   134ec:	e7970006 	ldr	r0, [r7, r6]
   134f0:	ebfff749 	bl	1121c <semfree>
   134f4:	e5940004 	ldr	r0, [r4, #4]
   134f8:	ebfff747 	bl	1121c <semfree>
   134fc:	e5941008 	ldr	r1, [r4, #8]
   13500:	e5940018 	ldr	r0, [r4, #24]
   13504:	e1a01101 	lsl	r1, r1, #2
   13508:	ebfff809 	bl	11534 <memfree>
   1350c:	e1a04005 	mov	r4, r5
   13510:	eaffffff 	b	13514 <mailboxFree+0x68>
   13514:	e59f3014 	ldr	r3, [pc, #20]	; 13530 <mailboxFree+0x84>
   13518:	e5930000 	ldr	r0, [r3]
   1351c:	ebfff772 	bl	112ec <signal>
   13520:	ea000000 	b	13528 <mailboxFree+0x7c>
   13524:	e3e04000 	mvn	r4, #0
   13528:	e1a00004 	mov	r0, r4
   1352c:	e8bd80f8 	pop	{r3, r4, r5, r6, r7, pc}
   13530:	00025214 	.word	0x00025214
   13534:	00025070 	.word	0x00025070

00013538 <mailboxInit>:
   13538:	e92d4008 	push	{r3, lr}
   1353c:	e59f3034 	ldr	r3, [pc, #52]	; 13578 <mailboxInit+0x40>
   13540:	e3a01000 	mov	r1, #0
   13544:	e2832f69 	add	r2, r3, #420	; 0x1a4
   13548:	e5c31014 	strb	r1, [r3, #20]
   1354c:	e283301c 	add	r3, r3, #28
   13550:	e1530002 	cmp	r3, r2
   13554:	1afffffb 	bne	13548 <mailboxInit+0x10>
   13558:	e3a00001 	mov	r0, #1
   1355c:	ebfff706 	bl	1117c <semcreate>
   13560:	e59f3010 	ldr	r3, [pc, #16]	; 13578 <mailboxInit+0x40>
   13564:	e3700001 	cmn	r0, #1
   13568:	e58301a4 	str	r0, [r3, #420]	; 0x1a4
   1356c:	13a00001 	movne	r0, #1
   13570:	03e00000 	mvneq	r0, #0
   13574:	e8bd8008 	pop	{r3, pc}
   13578:	00025070 	.word	0x00025070

0001357c <mailboxReceive>:
   1357c:	e350000e 	cmp	r0, #14
   13580:	e92d41f0 	push	{r4, r5, r6, r7, r8, lr}
   13584:	8a00001e 	bhi	13604 <mailboxReceive+0x88>
   13588:	e3a0701c 	mov	r7, #28
   1358c:	e0070097 	mul	r7, r7, r0
   13590:	ebfff2e2 	bl	10120 <disable>
   13594:	e59f6074 	ldr	r6, [pc, #116]	; 13610 <mailboxReceive+0x94>
   13598:	e1a08000 	mov	r8, r0
   1359c:	e0874006 	add	r4, r7, r6
   135a0:	e5d43014 	ldrb	r3, [r4, #20]
   135a4:	e3530001 	cmp	r3, #1
   135a8:	0a000001 	beq	135b4 <mailboxReceive+0x38>
   135ac:	e3e05000 	mvn	r5, #0
   135b0:	ea000010 	b	135f8 <mailboxReceive+0x7c>
   135b4:	e5940004 	ldr	r0, [r4, #4]
   135b8:	ebfff78f 	bl	113fc <wait>
   135bc:	e5d43014 	ldrb	r3, [r4, #20]
   135c0:	e3530001 	cmp	r3, #1
   135c4:	1afffff8 	bne	135ac <mailboxReceive+0x30>
   135c8:	e5940010 	ldr	r0, [r4, #16]
   135cc:	e5942018 	ldr	r2, [r4, #24]
   135d0:	e5941008 	ldr	r1, [r4, #8]
   135d4:	e7925100 	ldr	r5, [r2, r0, lsl #2]
   135d8:	e2800001 	add	r0, r0, #1
   135dc:	eb002408 	bl	1c604 <__aeabi_uidivmod>
   135e0:	e594300c 	ldr	r3, [r4, #12]
   135e4:	e5841010 	str	r1, [r4, #16]
   135e8:	e2433001 	sub	r3, r3, #1
   135ec:	e584300c 	str	r3, [r4, #12]
   135f0:	e7970006 	ldr	r0, [r7, r6]
   135f4:	ebfff73c 	bl	112ec <signal>
   135f8:	e1a00008 	mov	r0, r8
   135fc:	ebfff2ca 	bl	1012c <restore>
   13600:	ea000000 	b	13608 <mailboxReceive+0x8c>
   13604:	e3e05000 	mvn	r5, #0
   13608:	e1a00005 	mov	r0, r5
   1360c:	e8bd81f0 	pop	{r4, r5, r6, r7, r8, pc}
   13610:	00025070 	.word	0x00025070

00013614 <mailboxSend>:
   13614:	e350000e 	cmp	r0, #14
   13618:	e92d41f0 	push	{r4, r5, r6, r7, r8, lr}
   1361c:	e1a08001 	mov	r8, r1
   13620:	8a00001f 	bhi	136a4 <mailboxSend+0x90>
   13624:	e3a0601c 	mov	r6, #28
   13628:	e0060096 	mul	r6, r6, r0
   1362c:	ebfff2bb 	bl	10120 <disable>
   13630:	e59f5078 	ldr	r5, [pc, #120]	; 136b0 <mailboxSend+0x9c>
   13634:	e1a07000 	mov	r7, r0
   13638:	e0864005 	add	r4, r6, r5
   1363c:	e5d43014 	ldrb	r3, [r4, #20]
   13640:	e3530001 	cmp	r3, #1
   13644:	0a000001 	beq	13650 <mailboxSend+0x3c>
   13648:	e3e04000 	mvn	r4, #0
   1364c:	ea000011 	b	13698 <mailboxSend+0x84>
   13650:	e7960005 	ldr	r0, [r6, r5]
   13654:	ebfff768 	bl	113fc <wait>
   13658:	e5d45014 	ldrb	r5, [r4, #20]
   1365c:	e3550001 	cmp	r5, #1
   13660:	1afffff8 	bne	13648 <mailboxSend+0x34>
   13664:	e5943010 	ldr	r3, [r4, #16]
   13668:	e594000c 	ldr	r0, [r4, #12]
   1366c:	e5941008 	ldr	r1, [r4, #8]
   13670:	e0800003 	add	r0, r0, r3
   13674:	eb0023e2 	bl	1c604 <__aeabi_uidivmod>
   13678:	e5943018 	ldr	r3, [r4, #24]
   1367c:	e7838101 	str	r8, [r3, r1, lsl #2]
   13680:	e594300c 	ldr	r3, [r4, #12]
   13684:	e5940004 	ldr	r0, [r4, #4]
   13688:	e2833001 	add	r3, r3, #1
   1368c:	e584300c 	str	r3, [r4, #12]
   13690:	ebfff715 	bl	112ec <signal>
   13694:	e1a04005 	mov	r4, r5
   13698:	e1a00007 	mov	r0, r7
   1369c:	ebfff2a2 	bl	1012c <restore>
   136a0:	ea000000 	b	136a8 <mailboxSend+0x94>
   136a4:	e3e04000 	mvn	r4, #0
   136a8:	e1a00004 	mov	r0, r4
   136ac:	e8bd81f0 	pop	{r4, r5, r6, r7, r8, pc}
   136b0:	00025070 	.word	0x00025070

000136b4 <shell>:
   136b4:	e92d4ff0 	push	{r4, r5, r6, r7, r8, r9, sl, fp, lr}
   136b8:	e59f344c 	ldr	r3, [pc, #1100]	; 13b0c <shell+0x458>
   136bc:	e59f444c 	ldr	r4, [pc, #1100]	; 13b10 <shell+0x45c>
   136c0:	e5933000 	ldr	r3, [r3]
   136c4:	e3a0c054 	mov	ip, #84	; 0x54
   136c8:	e023439c 	mla	r3, ip, r3, r4
   136cc:	e24ddf7f 	sub	sp, sp, #508	; 0x1fc
   136d0:	e5830040 	str	r0, [r3, #64]	; 0x40
   136d4:	e5831044 	str	r1, [r3, #68]	; 0x44
   136d8:	e5832048 	str	r2, [r3, #72]	; 0x48
   136dc:	e59f0430 	ldr	r0, [pc, #1072]	; 13b14 <shell+0x460>
   136e0:	eb0020ff 	bl	1bae4 <printf>
   136e4:	e59f042c 	ldr	r0, [pc, #1068]	; 13b18 <shell+0x464>
   136e8:	eb0020fd 	bl	1bae4 <printf>
   136ec:	e59f8428 	ldr	r8, [pc, #1064]	; 13b1c <shell+0x468>
   136f0:	e59f6414 	ldr	r6, [pc, #1044]	; 13b0c <shell+0x458>
   136f4:	e59f0424 	ldr	r0, [pc, #1060]	; 13b20 <shell+0x46c>
   136f8:	eb0020f9 	bl	1bae4 <printf>
   136fc:	e59f0420 	ldr	r0, [pc, #1056]	; 13b24 <shell+0x470>
   13700:	eb0020f7 	bl	1bae4 <printf>
   13704:	e5963000 	ldr	r3, [r6]
   13708:	e3a05054 	mov	r5, #84	; 0x54
   1370c:	e0234395 	mla	r3, r5, r3, r4
   13710:	e3a01021 	mov	r1, #33	; 0x21
   13714:	e5930040 	ldr	r0, [r3, #64]	; 0x40
   13718:	e3a02001 	mov	r2, #1
   1371c:	e3a03000 	mov	r3, #0
   13720:	ebfff912 	bl	11b70 <control>
   13724:	e5963000 	ldr	r3, [r6]
   13728:	e3a01020 	mov	r1, #32
   1372c:	e0234395 	mla	r3, r5, r3, r4
   13730:	e3a02010 	mov	r2, #16
   13734:	e5930040 	ldr	r0, [r3, #64]	; 0x40
   13738:	e3a03000 	mov	r3, #0
   1373c:	ebfff90b 	bl	11b70 <control>
   13740:	e5963000 	ldr	r3, [r6]
   13744:	e28d1098 	add	r1, sp, #152	; 0x98
   13748:	e0234395 	mla	r3, r5, r3, r4
   1374c:	e3a0209f 	mov	r2, #159	; 0x9f
   13750:	e5930040 	ldr	r0, [r3, #64]	; 0x40
   13754:	ebfff933 	bl	11c28 <read>
   13758:	e6bf3070 	sxth	r3, r0
   1375c:	e3730002 	cmn	r3, #2
   13760:	e1a01000 	mov	r1, r0
   13764:	0a0000dd 	beq	13ae0 <shell+0x42c>
   13768:	e28d2f4e 	add	r2, sp, #312	; 0x138
   1376c:	e28d0098 	add	r0, sp, #152	; 0x98
   13770:	e6ff1071 	uxth	r1, r1
   13774:	e28d3018 	add	r3, sp, #24
   13778:	eb0000ef 	bl	13b3c <lexan>
   1377c:	e3700001 	cmn	r0, #1
   13780:	e1a02000 	mov	r2, r0
   13784:	05963000 	ldreq	r3, [r6]
   13788:	00254395 	mlaeq	r5, r5, r3, r4
   1378c:	05950048 	ldreq	r0, [r5, #72]	; 0x48
   13790:	0a000051 	beq	138dc <shell+0x228>
   13794:	e3500000 	cmp	r0, #0
   13798:	0affffd4 	beq	136f0 <shell+0x3c>
   1379c:	e2403001 	sub	r3, r0, #1
   137a0:	e28d0f7e 	add	r0, sp, #504	; 0x1f8
   137a4:	e0801103 	add	r1, r0, r3, lsl #2
   137a8:	e51111e0 	ldr	r1, [r1, #-480]	; 0x1e0
   137ac:	e5d11000 	ldrb	r1, [r1]
   137b0:	e3510026 	cmp	r1, #38	; 0x26
   137b4:	06ff2073 	uxtheq	r2, r3
   137b8:	e3a03000 	mov	r3, #0
   137bc:	03a07001 	moveq	r7, #1
   137c0:	13a07000 	movne	r7, #0
   137c4:	e1a0a003 	mov	sl, r3
   137c8:	e1a06003 	mov	r6, r3
   137cc:	ea000035 	b	138a8 <shell+0x1f4>
   137d0:	e28def7e 	add	lr, sp, #504	; 0x1f8
   137d4:	e08e1103 	add	r1, lr, r3, lsl #2
   137d8:	e51111e0 	ldr	r1, [r1, #-480]	; 0x1e0
   137dc:	e5d11000 	ldrb	r1, [r1]
   137e0:	e3510026 	cmp	r1, #38	; 0x26
   137e4:	0a000037 	beq	138c8 <shell+0x214>
   137e8:	e351003e 	cmp	r1, #62	; 0x3e
   137ec:	1a000014 	bne	13844 <shell+0x190>
   137f0:	e3560000 	cmp	r6, #0
   137f4:	1a000033 	bne	138c8 <shell+0x214>
   137f8:	e2455001 	sub	r5, r5, #1
   137fc:	e1530005 	cmp	r3, r5
   13800:	aa000030 	bge	138c8 <shell+0x214>
   13804:	e2422002 	sub	r2, r2, #2
   13808:	e08e1103 	add	r1, lr, r3, lsl #2
   1380c:	e6ff2072 	uxth	r2, r2
   13810:	e51161dc 	ldr	r6, [r1, #-476]	; 0x1dc
   13814:	e6bf0072 	sxth	r0, r2
   13818:	e1a01003 	mov	r1, r3
   1381c:	ea000005 	b	13838 <shell+0x184>
   13820:	e28d5f7e 	add	r5, sp, #504	; 0x1f8
   13824:	e085c101 	add	ip, r5, r1, lsl #2
   13828:	e51ce1d8 	ldr	lr, [ip, #-472]	; 0x1d8
   1382c:	e2811001 	add	r1, r1, #1
   13830:	e50ce1e0 	str	lr, [ip, #-480]	; 0x1e0
   13834:	e6ff1071 	uxth	r1, r1
   13838:	e1510000 	cmp	r1, r0
   1383c:	bafffff7 	blt	13820 <shell+0x16c>
   13840:	ea000016 	b	138a0 <shell+0x1ec>
   13844:	e351003c 	cmp	r1, #60	; 0x3c
   13848:	1a000014 	bne	138a0 <shell+0x1ec>
   1384c:	e35a0000 	cmp	sl, #0
   13850:	1a00001c 	bne	138c8 <shell+0x214>
   13854:	e2455001 	sub	r5, r5, #1
   13858:	e1530005 	cmp	r3, r5
   1385c:	aa000019 	bge	138c8 <shell+0x214>
   13860:	e28def7e 	add	lr, sp, #504	; 0x1f8
   13864:	e2422002 	sub	r2, r2, #2
   13868:	e08e1103 	add	r1, lr, r3, lsl #2
   1386c:	e6ff2072 	uxth	r2, r2
   13870:	e511a1dc 	ldr	sl, [r1, #-476]	; 0x1dc
   13874:	e6bf0072 	sxth	r0, r2
   13878:	e1a01003 	mov	r1, r3
   1387c:	ea000005 	b	13898 <shell+0x1e4>
   13880:	e28d5f7e 	add	r5, sp, #504	; 0x1f8
   13884:	e085c101 	add	ip, r5, r1, lsl #2
   13888:	e51ce1d8 	ldr	lr, [ip, #-472]	; 0x1d8
   1388c:	e2811001 	add	r1, r1, #1
   13890:	e50ce1e0 	str	lr, [ip, #-480]	; 0x1e0
   13894:	e6ff1071 	uxth	r1, r1
   13898:	e1510000 	cmp	r1, r0
   1389c:	bafffff7 	blt	13880 <shell+0x1cc>
   138a0:	e2833001 	add	r3, r3, #1
   138a4:	e6ff3073 	uxth	r3, r3
   138a8:	e6bf5072 	sxth	r5, r2
   138ac:	e1530005 	cmp	r3, r5
   138b0:	baffffc6 	blt	137d0 <shell+0x11c>
   138b4:	e3550000 	cmp	r5, #0
   138b8:	c3a09000 	movgt	r9, #0
   138bc:	c59fb264 	ldrgt	fp, [pc, #612]	; 13b28 <shell+0x474>
   138c0:	c3a0300c 	movgt	r3, #12
   138c4:	ca000015 	bgt	13920 <shell+0x26c>
   138c8:	e59f323c 	ldr	r3, [pc, #572]	; 13b0c <shell+0x458>
   138cc:	e3a02054 	mov	r2, #84	; 0x54
   138d0:	e5933000 	ldr	r3, [r3]
   138d4:	e0234392 	mla	r3, r2, r3, r4
   138d8:	e5930048 	ldr	r0, [r3, #72]	; 0x48
   138dc:	e59f1248 	ldr	r1, [pc, #584]	; 13b2c <shell+0x478>
   138e0:	ea00003e 	b	139e0 <shell+0x32c>
   138e4:	e0020993 	mul	r2, r3, r9
   138e8:	e59d1018 	ldr	r1, [sp, #24]
   138ec:	e79b0002 	ldr	r0, [fp, r2]
   138f0:	e58d3014 	str	r3, [sp, #20]
   138f4:	eb00210f 	bl	1bd38 <strcmp>
   138f8:	e3500000 	cmp	r0, #0
   138fc:	e59d3014 	ldr	r3, [sp, #20]
   13900:	1a000003 	bne	13914 <shell+0x260>
   13904:	e5983000 	ldr	r3, [r8]
   13908:	e1590003 	cmp	r9, r3
   1390c:	3a000010 	bcc	13954 <shell+0x2a0>
   13910:	ea000006 	b	13930 <shell+0x27c>
   13914:	e2899001 	add	r9, r9, #1
   13918:	e6ff9079 	uxth	r9, r9
   1391c:	eaffffff 	b	13920 <shell+0x26c>
   13920:	e5982000 	ldr	r2, [r8]
   13924:	e1590002 	cmp	r9, r2
   13928:	3affffed 	bcc	138e4 <shell+0x230>
   1392c:	eafffff4 	b	13904 <shell+0x250>
   13930:	e59f31d4 	ldr	r3, [pc, #468]	; 13b0c <shell+0x458>
   13934:	e3a02054 	mov	r2, #84	; 0x54
   13938:	e5933000 	ldr	r3, [r3]
   1393c:	e59f11ec 	ldr	r1, [pc, #492]	; 13b30 <shell+0x47c>
   13940:	e0234392 	mla	r3, r2, r3, r4
   13944:	e59d2018 	ldr	r2, [sp, #24]
   13948:	e5930048 	ldr	r0, [r3, #72]	; 0x48
   1394c:	eb001fef 	bl	1b910 <fprintf>
   13950:	eaffff66 	b	136f0 <shell+0x3c>
   13954:	e3a0300c 	mov	r3, #12
   13958:	e0090993 	mul	r9, r3, r9
   1395c:	e59fc1c4 	ldr	ip, [pc, #452]	; 13b28 <shell+0x474>
   13960:	e08c3009 	add	r3, ip, r9
   13964:	e5d32004 	ldrb	r2, [r3, #4]
   13968:	e3520000 	cmp	r2, #0
   1396c:	0a000009 	beq	13998 <shell+0x2e4>
   13970:	e35a0000 	cmp	sl, #0
   13974:	03560000 	cmpeq	r6, #0
   13978:	1affffd2 	bne	138c8 <shell+0x214>
   1397c:	e3570000 	cmp	r7, #0
   13980:	1affffd0 	bne	138c8 <shell+0x214>
   13984:	e5933008 	ldr	r3, [r3, #8]
   13988:	e1a00005 	mov	r0, r5
   1398c:	e28d1018 	add	r1, sp, #24
   13990:	e12fff33 	blx	r3
   13994:	eaffff55 	b	136f0 <shell+0x3c>
   13998:	e3a02002 	mov	r2, #2
   1399c:	e88d0024 	stm	sp, {r2, r5}
   139a0:	e28d2018 	add	r2, sp, #24
   139a4:	e58d2008 	str	r2, [sp, #8]
   139a8:	e5930008 	ldr	r0, [r3, #8]
   139ac:	e3a01a02 	mov	r1, #8192	; 0x2000
   139b0:	e79c3009 	ldr	r3, [ip, r9]
   139b4:	e3a02014 	mov	r2, #20
   139b8:	ebfff357 	bl	1071c <create>
   139bc:	e3700001 	cmn	r0, #1
   139c0:	e1a05000 	mov	r5, r0
   139c4:	e59f3140 	ldr	r3, [pc, #320]	; 13b0c <shell+0x458>
   139c8:	1a000006 	bne	139e8 <shell+0x334>
   139cc:	e5933000 	ldr	r3, [r3]
   139d0:	e3a02054 	mov	r2, #84	; 0x54
   139d4:	e0234392 	mla	r3, r2, r3, r4
   139d8:	e59f1154 	ldr	r1, [pc, #340]	; 13b34 <shell+0x480>
   139dc:	e5930048 	ldr	r0, [r3, #72]	; 0x48
   139e0:	eb001fca 	bl	1b910 <fprintf>
   139e4:	eaffff41 	b	136f0 <shell+0x3c>
   139e8:	e35a0000 	cmp	sl, #0
   139ec:	1a000006 	bne	13a0c <shell+0x358>
   139f0:	e5932000 	ldr	r2, [r3]
   139f4:	e3a03054 	mov	r3, #84	; 0x54
   139f8:	e0224293 	mla	r2, r3, r2, r4
   139fc:	e0234093 	mla	r3, r3, r0, r4
   13a00:	e5922040 	ldr	r2, [r2, #64]	; 0x40
   13a04:	e5832040 	str	r2, [r3, #64]	; 0x40
   13a08:	ea000004 	b	13a20 <shell+0x36c>
   13a0c:	e1a0000a 	mov	r0, sl
   13a10:	ebfff8a8 	bl	11cb8 <getdev>
   13a14:	e3a03054 	mov	r3, #84	; 0x54
   13a18:	e0234593 	mla	r3, r3, r5, r4
   13a1c:	e5830040 	str	r0, [r3, #64]	; 0x40
   13a20:	e3560000 	cmp	r6, #0
   13a24:	1a000007 	bne	13a48 <shell+0x394>
   13a28:	e59f30dc 	ldr	r3, [pc, #220]	; 13b0c <shell+0x458>
   13a2c:	e5932000 	ldr	r2, [r3]
   13a30:	e3a03054 	mov	r3, #84	; 0x54
   13a34:	e0224293 	mla	r2, r3, r2, r4
   13a38:	e0234593 	mla	r3, r3, r5, r4
   13a3c:	e5922044 	ldr	r2, [r2, #68]	; 0x44
   13a40:	e5832044 	str	r2, [r3, #68]	; 0x44
   13a44:	ea000004 	b	13a5c <shell+0x3a8>
   13a48:	e1a00006 	mov	r0, r6
   13a4c:	ebfff899 	bl	11cb8 <getdev>
   13a50:	e3a03054 	mov	r3, #84	; 0x54
   13a54:	e0234593 	mla	r3, r3, r5, r4
   13a58:	e5830044 	str	r0, [r3, #68]	; 0x44
   13a5c:	e59f30a8 	ldr	r3, [pc, #168]	; 13b0c <shell+0x458>
   13a60:	e3570000 	cmp	r7, #0
   13a64:	e5932000 	ldr	r2, [r3]
   13a68:	e3a03054 	mov	r3, #84	; 0x54
   13a6c:	e0224293 	mla	r2, r3, r2, r4
   13a70:	e0234593 	mla	r3, r3, r5, r4
   13a74:	e5922048 	ldr	r2, [r2, #72]	; 0x48
   13a78:	e5832048 	str	r2, [r3, #72]	; 0x48
   13a7c:	0a000007 	beq	13aa0 <shell+0x3ec>
   13a80:	ebfff1a6 	bl	10120 <disable>
   13a84:	e3a01000 	mov	r1, #0
   13a88:	e1a06000 	mov	r6, r0
   13a8c:	e1a00005 	mov	r0, r5
   13a90:	ebfff3cb 	bl	109c4 <ready>
   13a94:	e1a00006 	mov	r0, r6
   13a98:	ebfff1a3 	bl	1012c <restore>
   13a9c:	eaffff13 	b	136f0 <shell+0x3c>
   13aa0:	ebfff7ec 	bl	11a58 <recvclr>
   13aa4:	e3700004 	cmn	r0, #4
   13aa8:	1afffffc 	bne	13aa0 <shell+0x3ec>
   13aac:	ebfff19b 	bl	10120 <disable>
   13ab0:	e3a01001 	mov	r1, #1
   13ab4:	e1a06000 	mov	r6, r0
   13ab8:	e1a00005 	mov	r0, r5
   13abc:	ebfff3c0 	bl	109c4 <ready>
   13ac0:	e1a00006 	mov	r0, r6
   13ac4:	ebfff198 	bl	1012c <restore>
   13ac8:	ebfff7ca 	bl	119f8 <receive>
   13acc:	e1500005 	cmp	r0, r5
   13ad0:	1afffffc 	bne	13ac8 <shell+0x414>
   13ad4:	e3a0000a 	mov	r0, #10
   13ad8:	ebfff547 	bl	10ffc <sleep>
   13adc:	eaffff03 	b	136f0 <shell+0x3c>
   13ae0:	e5962000 	ldr	r2, [r6]
   13ae4:	e59f3024 	ldr	r3, [pc, #36]	; 13b10 <shell+0x45c>
   13ae8:	e59f1048 	ldr	r1, [pc, #72]	; 13b38 <shell+0x484>
   13aec:	e0253295 	mla	r5, r5, r2, r3
   13af0:	e5950044 	ldr	r0, [r5, #68]	; 0x44
   13af4:	eb001f85 	bl	1b910 <fprintf>
   13af8:	e3a0000a 	mov	r0, #10
   13afc:	ebfff53e 	bl	10ffc <sleep>
   13b00:	e3a00001 	mov	r0, #1
   13b04:	e28ddf7f 	add	sp, sp, #508	; 0x1fc
   13b08:	e8bd8ff0 	pop	{r4, r5, r6, r7, r8, r9, sl, fp, pc}
   13b0c:	0002281c 	.word	0x0002281c
   13b10:	0002074c 	.word	0x0002074c
   13b14:	0001ca90 	.word	0x0001ca90
   13b18:	0001cbd9 	.word	0x0001cbd9
   13b1c:	00020000 	.word	0x00020000
   13b20:	0001cc02 	.word	0x0001cc02
   13b24:	0001cc06 	.word	0x0001cc06
   13b28:	0001c9e8 	.word	0x0001c9e8
   13b2c:	0001cc09 	.word	0x0001cc09
   13b30:	0001cc18 	.word	0x0001cc18
   13b34:	0001cc2f 	.word	0x0001cc2f
   13b38:	0001cc3f 	.word	0x0001cc3f

00013b3c <lexan>:
   13b3c:	e3a0c000 	mov	ip, #0
   13b40:	e92d40f0 	push	{r4, r5, r6, r7, lr}
   13b44:	e1a0500c 	mov	r5, ip
   13b48:	e1a0700c 	mov	r7, ip
   13b4c:	ea000056 	b	13cac <lexan+0x170>
   13b50:	e28cc001 	add	ip, ip, #1
   13b54:	e6ffc07c 	uxth	ip, ip
   13b58:	e7d0400c 	ldrb	r4, [r0, ip]
   13b5c:	e080600c 	add	r6, r0, ip
   13b60:	e3540020 	cmp	r4, #32
   13b64:	13540009 	cmpne	r4, #9
   13b68:	0a000003 	beq	13b7c <lexan+0x40>
   13b6c:	e3540000 	cmp	r4, #0
   13b70:	1354000d 	cmpne	r4, #13
   13b74:	1a000003 	bne	13b88 <lexan+0x4c>
   13b78:	ea00004e 	b	13cb8 <lexan+0x17c>
   13b7c:	e15c0001 	cmp	ip, r1
   13b80:	3afffff2 	bcc	13b50 <lexan+0x14>
   13b84:	eafffff8 	b	13b6c <lexan+0x30>
   13b88:	e354000a 	cmp	r4, #10
   13b8c:	0a000049 	beq	13cb8 <lexan+0x17c>
   13b90:	e15c0001 	cmp	ip, r1
   13b94:	2a000047 	bcs	13cb8 <lexan+0x17c>
   13b98:	e7832105 	str	r2, [r3, r5, lsl #2]
   13b9c:	e5d64000 	ldrb	r4, [r6]
   13ba0:	e28cc001 	add	ip, ip, #1
   13ba4:	e2826001 	add	r6, r2, #1
   13ba8:	e3540022 	cmp	r4, #34	; 0x22
   13bac:	13540027 	cmpne	r4, #39	; 0x27
   13bb0:	e5c24000 	strb	r4, [r2]
   13bb4:	e6ffc07c 	uxth	ip, ip
   13bb8:	e1a02006 	mov	r2, r6
   13bbc:	1a000016 	bne	13c1c <lexan+0xe0>
   13bc0:	ea000002 	b	13bd0 <lexan+0x94>
   13bc4:	e28cc001 	add	ip, ip, #1
   13bc8:	e4c26001 	strb	r6, [r2], #1
   13bcc:	e6ffc07c 	uxth	ip, ip
   13bd0:	e7d0600c 	ldrb	r6, [r0, ip]
   13bd4:	e1540006 	cmp	r4, r6
   13bd8:	0a00000b 	beq	13c0c <lexan+0xd0>
   13bdc:	e356000d 	cmp	r6, #13
   13be0:	13560000 	cmpne	r6, #0
   13be4:	1a000001 	bne	13bf0 <lexan+0xb4>
   13be8:	e59f00d4 	ldr	r0, [pc, #212]	; 13cc4 <lexan+0x188>
   13bec:	ea000032 	b	13cbc <lexan+0x180>
   13bf0:	e356000a 	cmp	r6, #10
   13bf4:	0a000002 	beq	13c04 <lexan+0xc8>
   13bf8:	e15c0001 	cmp	ip, r1
   13bfc:	1afffff0 	bne	13bc4 <lexan+0x88>
   13c00:	eafffff8 	b	13be8 <lexan+0xac>
   13c04:	e354000a 	cmp	r4, #10
   13c08:	1afffff6 	bne	13be8 <lexan+0xac>
   13c0c:	e28cc001 	add	ip, ip, #1
   13c10:	e4c26001 	strb	r6, [r2], #1
   13c14:	e6ffc07c 	uxth	ip, ip
   13c18:	ea000020 	b	13ca0 <lexan+0x164>
   13c1c:	e080400c 	add	r4, r0, ip
   13c20:	e5544001 	ldrb	r4, [r4, #-1]
   13c24:	e20460fd 	and	r6, r4, #253	; 0xfd
   13c28:	e356003c 	cmp	r6, #60	; 0x3c
   13c2c:	0a00001b 	beq	13ca0 <lexan+0x164>
   13c30:	e3540026 	cmp	r4, #38	; 0x26
   13c34:	1a000003 	bne	13c48 <lexan+0x10c>
   13c38:	ea000018 	b	13ca0 <lexan+0x164>
   13c3c:	e28cc001 	add	ip, ip, #1
   13c40:	e4c24001 	strb	r4, [r2], #1
   13c44:	e6ffc07c 	uxth	ip, ip
   13c48:	e7d0400c 	ldrb	r4, [r0, ip]
   13c4c:	e354000d 	cmp	r4, #13
   13c50:	13540000 	cmpne	r4, #0
   13c54:	0a00000f 	beq	13c98 <lexan+0x15c>
   13c58:	e354000a 	cmp	r4, #10
   13c5c:	0a00000d 	beq	13c98 <lexan+0x15c>
   13c60:	e3540027 	cmp	r4, #39	; 0x27
   13c64:	13540022 	cmpne	r4, #34	; 0x22
   13c68:	0a00000a 	beq	13c98 <lexan+0x15c>
   13c6c:	e20460fd 	and	r6, r4, #253	; 0xfd
   13c70:	e356003c 	cmp	r6, #60	; 0x3c
   13c74:	0a000007 	beq	13c98 <lexan+0x15c>
   13c78:	e3540026 	cmp	r4, #38	; 0x26
   13c7c:	0a000005 	beq	13c98 <lexan+0x15c>
   13c80:	e3540009 	cmp	r4, #9
   13c84:	13540020 	cmpne	r4, #32
   13c88:	0a000002 	beq	13c98 <lexan+0x15c>
   13c8c:	e15c0001 	cmp	ip, r1
   13c90:	1affffe9 	bne	13c3c <lexan+0x100>
   13c94:	eaffffd3 	b	13be8 <lexan+0xac>
   13c98:	e15c0001 	cmp	ip, r1
   13c9c:	2affffd1 	bcs	13be8 <lexan+0xac>
   13ca0:	e2855001 	add	r5, r5, #1
   13ca4:	e4c27001 	strb	r7, [r2], #1
   13ca8:	e6ff5075 	uxth	r5, r5
   13cac:	e355001f 	cmp	r5, #31
   13cb0:	915c0001 	cmpls	ip, r1
   13cb4:	3affffa7 	bcc	13b58 <lexan+0x1c>
   13cb8:	e6ff0075 	uxth	r0, r5
   13cbc:	e6bf0070 	sxth	r0, r0
   13cc0:	e8bd80f0 	pop	{r4, r5, r6, r7, pc}
   13cc4:	0000ffff 	.word	0x0000ffff

00013cc8 <xsh_clear>:
   13cc8:	e3500002 	cmp	r0, #2
   13ccc:	e92d40f8 	push	{r3, r4, r5, r6, r7, lr}
   13cd0:	e1a04001 	mov	r4, r1
   13cd4:	1a000021 	bne	13d60 <xsh_clear+0x98>
   13cd8:	e5910004 	ldr	r0, [r1, #4]
   13cdc:	e59f1094 	ldr	r1, [pc, #148]	; 13d78 <xsh_clear+0xb0>
   13ce0:	eb002014 	bl	1bd38 <strcmp>
   13ce4:	e3500000 	cmp	r0, #0
   13ce8:	0a00000f 	beq	13d2c <xsh_clear+0x64>
   13cec:	e59f7088 	ldr	r7, [pc, #136]	; 13d7c <xsh_clear+0xb4>
   13cf0:	e59f5088 	ldr	r5, [pc, #136]	; 13d80 <xsh_clear+0xb8>
   13cf4:	e5973000 	ldr	r3, [r7]
   13cf8:	e3a06054 	mov	r6, #84	; 0x54
   13cfc:	e0235396 	mla	r3, r6, r3, r5
   13d00:	e5942000 	ldr	r2, [r4]
   13d04:	e5930048 	ldr	r0, [r3, #72]	; 0x48
   13d08:	e59f1074 	ldr	r1, [pc, #116]	; 13d84 <xsh_clear+0xbc>
   13d0c:	eb001eff 	bl	1b910 <fprintf>
   13d10:	e5973000 	ldr	r3, [r7]
   13d14:	e59f106c 	ldr	r1, [pc, #108]	; 13d88 <xsh_clear+0xc0>
   13d18:	e0255396 	mla	r5, r6, r3, r5
   13d1c:	e5942000 	ldr	r2, [r4]
   13d20:	e5950048 	ldr	r0, [r5, #72]	; 0x48
   13d24:	eb001ef9 	bl	1b910 <fprintf>
   13d28:	ea00000a 	b	13d58 <xsh_clear+0x90>
   13d2c:	e5941000 	ldr	r1, [r4]
   13d30:	e59f0054 	ldr	r0, [pc, #84]	; 13d8c <xsh_clear+0xc4>
   13d34:	eb001f6a 	bl	1bae4 <printf>
   13d38:	e59f0050 	ldr	r0, [pc, #80]	; 13d90 <xsh_clear+0xc8>
   13d3c:	eb001f68 	bl	1bae4 <printf>
   13d40:	e59f004c 	ldr	r0, [pc, #76]	; 13d94 <xsh_clear+0xcc>
   13d44:	eb001f66 	bl	1bae4 <printf>
   13d48:	e59f0048 	ldr	r0, [pc, #72]	; 13d98 <xsh_clear+0xd0>
   13d4c:	eb001f64 	bl	1bae4 <printf>
   13d50:	e59f0044 	ldr	r0, [pc, #68]	; 13d9c <xsh_clear+0xd4>
   13d54:	eb001f62 	bl	1bae4 <printf>
   13d58:	e3a00001 	mov	r0, #1
   13d5c:	e8bd80f8 	pop	{r3, r4, r5, r6, r7, pc}
   13d60:	e3500001 	cmp	r0, #1
   13d64:	caffffe0 	bgt	13cec <xsh_clear+0x24>
   13d68:	e59f0030 	ldr	r0, [pc, #48]	; 13da0 <xsh_clear+0xd8>
   13d6c:	eb001f5c 	bl	1bae4 <printf>
   13d70:	e3a00000 	mov	r0, #0
   13d74:	e8bd80f8 	pop	{r3, r4, r5, r6, r7, pc}
   13d78:	0001cc9c 	.word	0x0001cc9c
   13d7c:	0002281c 	.word	0x0002281c
   13d80:	0002074c 	.word	0x0002074c
   13d84:	0001cca3 	.word	0x0001cca3
   13d88:	0001cef2 	.word	0x0001cef2
   13d8c:	0001ccbb 	.word	0x0001ccbb
   13d90:	0001ccc7 	.word	0x0001ccc7
   13d94:	0001ccd5 	.word	0x0001ccd5
   13d98:	0001ccec 	.word	0x0001ccec
   13d9c:	0001ccf6 	.word	0x0001ccf6
   13da0:	0001cd1b 	.word	0x0001cd1b

00013da4 <xsh_date>:
   13da4:	e3500002 	cmp	r0, #2
   13da8:	e92d40f8 	push	{r3, r4, r5, r6, r7, lr}
   13dac:	e1a05000 	mov	r5, r0
   13db0:	e1a04001 	mov	r4, r1
   13db4:	1a000019 	bne	13e20 <xsh_date+0x7c>
   13db8:	e5910004 	ldr	r0, [r1, #4]
   13dbc:	e59f10b8 	ldr	r1, [pc, #184]	; 13e7c <xsh_date+0xd8>
   13dc0:	eb001fdc 	bl	1bd38 <strcmp>
   13dc4:	e3500000 	cmp	r0, #0
   13dc8:	0a000007 	beq	13dec <xsh_date+0x48>
   13dcc:	e59f70ac 	ldr	r7, [pc, #172]	; 13e80 <xsh_date+0xdc>
   13dd0:	e59f50ac 	ldr	r5, [pc, #172]	; 13e84 <xsh_date+0xe0>
   13dd4:	e5973000 	ldr	r3, [r7]
   13dd8:	e3a06054 	mov	r6, #84	; 0x54
   13ddc:	e0235396 	mla	r3, r6, r3, r5
   13de0:	e59f10a0 	ldr	r1, [pc, #160]	; 13e88 <xsh_date+0xe4>
   13de4:	e5930048 	ldr	r0, [r3, #72]	; 0x48
   13de8:	ea000016 	b	13e48 <xsh_date+0xa4>
   13dec:	e5941000 	ldr	r1, [r4]
   13df0:	e59f0094 	ldr	r0, [pc, #148]	; 13e8c <xsh_date+0xe8>
   13df4:	eb001f3a 	bl	1bae4 <printf>
   13df8:	e59f0090 	ldr	r0, [pc, #144]	; 13e90 <xsh_date+0xec>
   13dfc:	eb001f38 	bl	1bae4 <printf>
   13e00:	e59f008c 	ldr	r0, [pc, #140]	; 13e94 <xsh_date+0xf0>
   13e04:	eb001f36 	bl	1bae4 <printf>
   13e08:	e59f0088 	ldr	r0, [pc, #136]	; 13e98 <xsh_date+0xf4>
   13e0c:	eb001f34 	bl	1bae4 <printf>
   13e10:	e59f0084 	ldr	r0, [pc, #132]	; 13e9c <xsh_date+0xf8>
   13e14:	eb001f32 	bl	1bae4 <printf>
   13e18:	e3a00001 	mov	r0, #1
   13e1c:	e8bd80f8 	pop	{r3, r4, r5, r6, r7, pc}
   13e20:	e3500001 	cmp	r0, #1
   13e24:	caffffe8 	bgt	13dcc <xsh_date+0x28>
   13e28:	0a000010 	beq	13e70 <xsh_date+0xcc>
   13e2c:	e59f704c 	ldr	r7, [pc, #76]	; 13e80 <xsh_date+0xdc>
   13e30:	e59f504c 	ldr	r5, [pc, #76]	; 13e84 <xsh_date+0xe0>
   13e34:	e5973000 	ldr	r3, [r7]
   13e38:	e3a06054 	mov	r6, #84	; 0x54
   13e3c:	e0235396 	mla	r3, r6, r3, r5
   13e40:	e59f1058 	ldr	r1, [pc, #88]	; 13ea0 <xsh_date+0xfc>
   13e44:	e5930048 	ldr	r0, [r3, #72]	; 0x48
   13e48:	e5942000 	ldr	r2, [r4]
   13e4c:	eb001eaf 	bl	1b910 <fprintf>
   13e50:	e5973000 	ldr	r3, [r7]
   13e54:	e59f1048 	ldr	r1, [pc, #72]	; 13ea4 <xsh_date+0x100>
   13e58:	e0255396 	mla	r5, r6, r3, r5
   13e5c:	e5942000 	ldr	r2, [r4]
   13e60:	e5950048 	ldr	r0, [r5, #72]	; 0x48
   13e64:	eb001ea9 	bl	1b910 <fprintf>
   13e68:	e3e00000 	mvn	r0, #0
   13e6c:	e8bd80f8 	pop	{r3, r4, r5, r6, r7, pc}
   13e70:	ebfffc61 	bl	12ffc <get_datetime>
   13e74:	ebfffd4a 	bl	133a4 <printDate>
   13e78:	eaffffe6 	b	13e18 <xsh_date+0x74>
   13e7c:	0001cc9c 	.word	0x0001cc9c
   13e80:	0002281c 	.word	0x0002281c
   13e84:	0002074c 	.word	0x0002074c
   13e88:	0001cca3 	.word	0x0001cca3
   13e8c:	0001ccbb 	.word	0x0001ccbb
   13e90:	0001ccc7 	.word	0x0001ccc7
   13e94:	0001cd4a 	.word	0x0001cd4a
   13e98:	0001ccec 	.word	0x0001ccec
   13e9c:	0001cd62 	.word	0x0001cd62
   13ea0:	0001cd86 	.word	0x0001cd86
   13ea4:	0001cd24 	.word	0x0001cd24

00013ea8 <xsh_exit>:
   13ea8:	e3500002 	cmp	r0, #2
   13eac:	e92d40f8 	push	{r3, r4, r5, r6, r7, lr}
   13eb0:	e1a04001 	mov	r4, r1
   13eb4:	1a000021 	bne	13f40 <xsh_exit+0x98>
   13eb8:	e5910004 	ldr	r0, [r1, #4]
   13ebc:	e59f10a4 	ldr	r1, [pc, #164]	; 13f68 <xsh_exit+0xc0>
   13ec0:	eb001f9c 	bl	1bd38 <strcmp>
   13ec4:	e3500000 	cmp	r0, #0
   13ec8:	0a00000f 	beq	13f0c <xsh_exit+0x64>
   13ecc:	e59f7098 	ldr	r7, [pc, #152]	; 13f6c <xsh_exit+0xc4>
   13ed0:	e59f5098 	ldr	r5, [pc, #152]	; 13f70 <xsh_exit+0xc8>
   13ed4:	e5973000 	ldr	r3, [r7]
   13ed8:	e3a06054 	mov	r6, #84	; 0x54
   13edc:	e0235396 	mla	r3, r6, r3, r5
   13ee0:	e5942000 	ldr	r2, [r4]
   13ee4:	e5930048 	ldr	r0, [r3, #72]	; 0x48
   13ee8:	e59f1084 	ldr	r1, [pc, #132]	; 13f74 <xsh_exit+0xcc>
   13eec:	eb001e87 	bl	1b910 <fprintf>
   13ef0:	e5973000 	ldr	r3, [r7]
   13ef4:	e59f107c 	ldr	r1, [pc, #124]	; 13f78 <xsh_exit+0xd0>
   13ef8:	e0255396 	mla	r5, r6, r3, r5
   13efc:	e5942000 	ldr	r2, [r4]
   13f00:	e5950048 	ldr	r0, [r5, #72]	; 0x48
   13f04:	eb001e81 	bl	1b910 <fprintf>
   13f08:	ea00000a 	b	13f38 <xsh_exit+0x90>
   13f0c:	e5941000 	ldr	r1, [r4]
   13f10:	e59f0064 	ldr	r0, [pc, #100]	; 13f7c <xsh_exit+0xd4>
   13f14:	eb001ef2 	bl	1bae4 <printf>
   13f18:	e59f0060 	ldr	r0, [pc, #96]	; 13f80 <xsh_exit+0xd8>
   13f1c:	eb001ef0 	bl	1bae4 <printf>
   13f20:	e59f005c 	ldr	r0, [pc, #92]	; 13f84 <xsh_exit+0xdc>
   13f24:	eb001eee 	bl	1bae4 <printf>
   13f28:	e59f0058 	ldr	r0, [pc, #88]	; 13f88 <xsh_exit+0xe0>
   13f2c:	eb001eec 	bl	1bae4 <printf>
   13f30:	e59f0054 	ldr	r0, [pc, #84]	; 13f8c <xsh_exit+0xe4>
   13f34:	eb001eea 	bl	1bae4 <printf>
   13f38:	e3a00001 	mov	r0, #1
   13f3c:	e8bd80f8 	pop	{r3, r4, r5, r6, r7, pc}
   13f40:	e3500001 	cmp	r0, #1
   13f44:	caffffe0 	bgt	13ecc <xsh_exit+0x24>
   13f48:	e59f0040 	ldr	r0, [pc, #64]	; 13f90 <xsh_exit+0xe8>
   13f4c:	eb001ee4 	bl	1bae4 <printf>
   13f50:	e3a0000a 	mov	r0, #10
   13f54:	ebfff428 	bl	10ffc <sleep>
   13f58:	ebfff381 	bl	10d64 <gettid>
   13f5c:	ebfff24f 	bl	108a0 <kill>
   13f60:	e3a00000 	mov	r0, #0
   13f64:	e8bd80f8 	pop	{r3, r4, r5, r6, r7, pc}
   13f68:	0001cc9c 	.word	0x0001cc9c
   13f6c:	0002281c 	.word	0x0002281c
   13f70:	0002074c 	.word	0x0002074c
   13f74:	0001cca3 	.word	0x0001cca3
   13f78:	0001cef2 	.word	0x0001cef2
   13f7c:	0001ccbb 	.word	0x0001ccbb
   13f80:	0001ccc7 	.word	0x0001ccc7
   13f84:	0001cd9d 	.word	0x0001cd9d
   13f88:	0001ccec 	.word	0x0001ccec
   13f8c:	0001ccf6 	.word	0x0001ccf6
   13f90:	0001cc3f 	.word	0x0001cc3f

00013f94 <xsh_help>:
   13f94:	e3500002 	cmp	r0, #2
   13f98:	e92d47f3 	push	{r0, r1, r4, r5, r6, r7, r8, r9, sl, lr}
   13f9c:	e1a04001 	mov	r4, r1
   13fa0:	1a00001c 	bne	14018 <xsh_help+0x84>
   13fa4:	e5910004 	ldr	r0, [r1, #4]
   13fa8:	e59f1180 	ldr	r1, [pc, #384]	; 14130 <xsh_help+0x19c>
   13fac:	eb001f61 	bl	1bd38 <strcmp>
   13fb0:	e2505000 	subs	r5, r0, #0
   13fb4:	1a00003b 	bne	140a8 <xsh_help+0x114>
   13fb8:	e59f0174 	ldr	r0, [pc, #372]	; 14134 <xsh_help+0x1a0>
   13fbc:	eb001ec8 	bl	1bae4 <printf>
   13fc0:	e5941000 	ldr	r1, [r4]
   13fc4:	e59f016c 	ldr	r0, [pc, #364]	; 14138 <xsh_help+0x1a4>
   13fc8:	eb001ec5 	bl	1bae4 <printf>
   13fcc:	e59f0168 	ldr	r0, [pc, #360]	; 1413c <xsh_help+0x1a8>
   13fd0:	eb001ec3 	bl	1bae4 <printf>
   13fd4:	e59f0164 	ldr	r0, [pc, #356]	; 14140 <xsh_help+0x1ac>
   13fd8:	eb001ec1 	bl	1bae4 <printf>
   13fdc:	e59f0160 	ldr	r0, [pc, #352]	; 14144 <xsh_help+0x1b0>
   13fe0:	eb001ebf 	bl	1bae4 <printf>
   13fe4:	e59f015c 	ldr	r0, [pc, #348]	; 14148 <xsh_help+0x1b4>
   13fe8:	eb001ebd 	bl	1bae4 <printf>
   13fec:	e59f0158 	ldr	r0, [pc, #344]	; 1414c <xsh_help+0x1b8>
   13ff0:	eb001ebb 	bl	1bae4 <printf>
   13ff4:	e59f0154 	ldr	r0, [pc, #340]	; 14150 <xsh_help+0x1bc>
   13ff8:	eb001eb9 	bl	1bae4 <printf>
   13ffc:	e59f0150 	ldr	r0, [pc, #336]	; 14154 <xsh_help+0x1c0>
   14000:	eb001eb7 	bl	1bae4 <printf>
   14004:	e59f014c 	ldr	r0, [pc, #332]	; 14158 <xsh_help+0x1c4>
   14008:	eb001eb5 	bl	1bae4 <printf>
   1400c:	e59f0148 	ldr	r0, [pc, #328]	; 1415c <xsh_help+0x1c8>
   14010:	eb001eb3 	bl	1bae4 <printf>
   14014:	ea00003b 	b	14108 <xsh_help+0x174>
   14018:	da00003c 	ble	14110 <xsh_help+0x17c>
   1401c:	e59f713c 	ldr	r7, [pc, #316]	; 14160 <xsh_help+0x1cc>
   14020:	e59f513c 	ldr	r5, [pc, #316]	; 14164 <xsh_help+0x1d0>
   14024:	e5973000 	ldr	r3, [r7]
   14028:	e3a06054 	mov	r6, #84	; 0x54
   1402c:	e0235396 	mla	r3, r6, r3, r5
   14030:	e5942000 	ldr	r2, [r4]
   14034:	e5930048 	ldr	r0, [r3, #72]	; 0x48
   14038:	e59f1128 	ldr	r1, [pc, #296]	; 14168 <xsh_help+0x1d4>
   1403c:	eb001e33 	bl	1b910 <fprintf>
   14040:	e5973000 	ldr	r3, [r7]
   14044:	e59f1120 	ldr	r1, [pc, #288]	; 1416c <xsh_help+0x1d8>
   14048:	e0255396 	mla	r5, r6, r3, r5
   1404c:	e5942000 	ldr	r2, [r4]
   14050:	e5950048 	ldr	r0, [r5, #72]	; 0x48
   14054:	eb001e2d 	bl	1b910 <fprintf>
   14058:	ea00001f 	b	140dc <xsh_help+0x148>
   1405c:	e0030598 	mul	r3, r8, r5
   14060:	e5940004 	ldr	r0, [r4, #4]
   14064:	e7961003 	ldr	r1, [r6, r3]
   14068:	e0869003 	add	r9, r6, r3
   1406c:	eb001f31 	bl	1bd38 <strcmp>
   14070:	e250a000 	subs	sl, r0, #0
   14074:	1a000008 	bne	1409c <xsh_help+0x108>
   14078:	e5943004 	ldr	r3, [r4, #4]
   1407c:	e1a0100d 	mov	r1, sp
   14080:	e58d3000 	str	r3, [sp]
   14084:	e59f30a4 	ldr	r3, [pc, #164]	; 14130 <xsh_help+0x19c>
   14088:	e3a00002 	mov	r0, #2
   1408c:	e58d3004 	str	r3, [sp, #4]
   14090:	e5993008 	ldr	r3, [r9, #8]
   14094:	e12fff33 	blx	r3
   14098:	ea00001a 	b	14108 <xsh_help+0x174>
   1409c:	e2855001 	add	r5, r5, #1
   140a0:	e6ef5075 	uxtb	r5, r5
   140a4:	ea000003 	b	140b8 <xsh_help+0x124>
   140a8:	e59f70c0 	ldr	r7, [pc, #192]	; 14170 <xsh_help+0x1dc>
   140ac:	e59f60c0 	ldr	r6, [pc, #192]	; 14174 <xsh_help+0x1e0>
   140b0:	e3a05000 	mov	r5, #0
   140b4:	e3a0800c 	mov	r8, #12
   140b8:	e5973000 	ldr	r3, [r7]
   140bc:	e1550003 	cmp	r5, r3
   140c0:	3affffe5 	bcc	1405c <xsh_help+0xc8>
   140c4:	e8940006 	ldm	r4, {r1, r2}
   140c8:	e59f00a8 	ldr	r0, [pc, #168]	; 14178 <xsh_help+0x1e4>
   140cc:	eb001e84 	bl	1bae4 <printf>
   140d0:	e59f00a4 	ldr	r0, [pc, #164]	; 1417c <xsh_help+0x1e8>
   140d4:	e5941000 	ldr	r1, [r4]
   140d8:	eb001e81 	bl	1bae4 <printf>
   140dc:	e3a00001 	mov	r0, #1
   140e0:	ea000011 	b	1412c <xsh_help+0x198>
   140e4:	e0030495 	mul	r3, r5, r4
   140e8:	e59f0090 	ldr	r0, [pc, #144]	; 14180 <xsh_help+0x1ec>
   140ec:	e7961003 	ldr	r1, [r6, r3]
   140f0:	eb001e7b 	bl	1bae4 <printf>
   140f4:	e2844001 	add	r4, r4, #1
   140f8:	e6ef4074 	uxtb	r4, r4
   140fc:	e5973000 	ldr	r3, [r7]
   14100:	e1540003 	cmp	r4, r3
   14104:	3afffff6 	bcc	140e4 <xsh_help+0x150>
   14108:	e3a00000 	mov	r0, #0
   1410c:	ea000006 	b	1412c <xsh_help+0x198>
   14110:	e59f006c 	ldr	r0, [pc, #108]	; 14184 <xsh_help+0x1f0>
   14114:	eb001e72 	bl	1bae4 <printf>
   14118:	e3a04000 	mov	r4, #0
   1411c:	e59f704c 	ldr	r7, [pc, #76]	; 14170 <xsh_help+0x1dc>
   14120:	e59f604c 	ldr	r6, [pc, #76]	; 14174 <xsh_help+0x1e0>
   14124:	e3a0500c 	mov	r5, #12
   14128:	eafffff3 	b	140fc <xsh_help+0x168>
   1412c:	e8bd87fc 	pop	{r2, r3, r4, r5, r6, r7, r8, r9, sl, pc}
   14130:	0001cc9c 	.word	0x0001cc9c
   14134:	0001d4b6 	.word	0x0001d4b6
   14138:	0001cdb6 	.word	0x0001cdb6
   1413c:	0001ccc7 	.word	0x0001ccc7
   14140:	0001cdc5 	.word	0x0001cdc5
   14144:	0001cdf2 	.word	0x0001cdf2
   14148:	0001ce22 	.word	0x0001ce22
   1414c:	0001ce56 	.word	0x0001ce56
   14150:	0001ccec 	.word	0x0001ccec
   14154:	0001ce85 	.word	0x0001ce85
   14158:	0001ceb4 	.word	0x0001ceb4
   1415c:	0001cd62 	.word	0x0001cd62
   14160:	0002281c 	.word	0x0002281c
   14164:	0002074c 	.word	0x0002074c
   14168:	0001cca3 	.word	0x0001cca3
   1416c:	0001cef2 	.word	0x0001cef2
   14170:	00020000 	.word	0x00020000
   14174:	0001c9e8 	.word	0x0001c9e8
   14178:	0001ced0 	.word	0x0001ced0
   1417c:	0001cef0 	.word	0x0001cef0
   14180:	0001cf19 	.word	0x0001cf19
   14184:	0001cf1e 	.word	0x0001cf1e

00014188 <xsh_reset>:
   14188:	e3500002 	cmp	r0, #2
   1418c:	e92d40f8 	push	{r3, r4, r5, r6, r7, lr}
   14190:	e1a04001 	mov	r4, r1
   14194:	1a000020 	bne	1421c <xsh_reset+0x94>
   14198:	e5910004 	ldr	r0, [r1, #4]
   1419c:	e59f1088 	ldr	r1, [pc, #136]	; 1422c <xsh_reset+0xa4>
   141a0:	eb001ee4 	bl	1bd38 <strcmp>
   141a4:	e3500000 	cmp	r0, #0
   141a8:	0a00000f 	beq	141ec <xsh_reset+0x64>
   141ac:	e59f707c 	ldr	r7, [pc, #124]	; 14230 <xsh_reset+0xa8>
   141b0:	e59f507c 	ldr	r5, [pc, #124]	; 14234 <xsh_reset+0xac>
   141b4:	e5973000 	ldr	r3, [r7]
   141b8:	e3a06054 	mov	r6, #84	; 0x54
   141bc:	e0235396 	mla	r3, r6, r3, r5
   141c0:	e5942000 	ldr	r2, [r4]
   141c4:	e5930048 	ldr	r0, [r3, #72]	; 0x48
   141c8:	e59f1068 	ldr	r1, [pc, #104]	; 14238 <xsh_reset+0xb0>
   141cc:	eb001dcf 	bl	1b910 <fprintf>
   141d0:	e5973000 	ldr	r3, [r7]
   141d4:	e59f1060 	ldr	r1, [pc, #96]	; 1423c <xsh_reset+0xb4>
   141d8:	e0255396 	mla	r5, r6, r3, r5
   141dc:	e5942000 	ldr	r2, [r4]
   141e0:	e5950048 	ldr	r0, [r5, #72]	; 0x48
   141e4:	eb001dc9 	bl	1b910 <fprintf>
   141e8:	ea00000d 	b	14224 <xsh_reset+0x9c>
   141ec:	e5941000 	ldr	r1, [r4]
   141f0:	e59f0048 	ldr	r0, [pc, #72]	; 14240 <xsh_reset+0xb8>
   141f4:	eb001e3a 	bl	1bae4 <printf>
   141f8:	e59f0044 	ldr	r0, [pc, #68]	; 14244 <xsh_reset+0xbc>
   141fc:	eb001e38 	bl	1bae4 <printf>
   14200:	e59f0040 	ldr	r0, [pc, #64]	; 14248 <xsh_reset+0xc0>
   14204:	eb001e36 	bl	1bae4 <printf>
   14208:	e59f003c 	ldr	r0, [pc, #60]	; 1424c <xsh_reset+0xc4>
   1420c:	eb001e34 	bl	1bae4 <printf>
   14210:	e59f0038 	ldr	r0, [pc, #56]	; 14250 <xsh_reset+0xc8>
   14214:	eb001e32 	bl	1bae4 <printf>
   14218:	ea000001 	b	14224 <xsh_reset+0x9c>
   1421c:	e3500001 	cmp	r0, #1
   14220:	caffffe1 	bgt	141ac <xsh_reset+0x24>
   14224:	e3a00001 	mov	r0, #1
   14228:	e8bd80f8 	pop	{r3, r4, r5, r6, r7, pc}
   1422c:	0001cc9c 	.word	0x0001cc9c
   14230:	0002281c 	.word	0x0002281c
   14234:	0002074c 	.word	0x0002074c
   14238:	0001cca3 	.word	0x0001cca3
   1423c:	0001cd24 	.word	0x0001cd24
   14240:	0001ccbb 	.word	0x0001ccbb
   14244:	0001ccc7 	.word	0x0001ccc7
   14248:	0001cf2f 	.word	0x0001cf2f
   1424c:	0001ccec 	.word	0x0001ccec
   14250:	0001ccf6 	.word	0x0001ccf6

00014254 <xsh_sleep>:
   14254:	e3500002 	cmp	r0, #2
   14258:	e92d40f7 	push	{r0, r1, r2, r4, r5, r6, r7, lr}
   1425c:	e1a04001 	mov	r4, r1
   14260:	1a000011 	bne	142ac <xsh_sleep+0x58>
   14264:	e5910004 	ldr	r0, [r1, #4]
   14268:	e59f1104 	ldr	r1, [pc, #260]	; 14374 <xsh_sleep+0x120>
   1426c:	eb001eb1 	bl	1bd38 <strcmp>
   14270:	e2505000 	subs	r5, r0, #0
   14274:	1a000036 	bne	14354 <xsh_sleep+0x100>
   14278:	e5941000 	ldr	r1, [r4]
   1427c:	e59f00f4 	ldr	r0, [pc, #244]	; 14378 <xsh_sleep+0x124>
   14280:	eb001e17 	bl	1bae4 <printf>
   14284:	e59f00f0 	ldr	r0, [pc, #240]	; 1437c <xsh_sleep+0x128>
   14288:	eb001e15 	bl	1bae4 <printf>
   1428c:	e59f00ec 	ldr	r0, [pc, #236]	; 14380 <xsh_sleep+0x12c>
   14290:	eb001e13 	bl	1bae4 <printf>
   14294:	e59f00e8 	ldr	r0, [pc, #232]	; 14384 <xsh_sleep+0x130>
   14298:	eb001e11 	bl	1bae4 <printf>
   1429c:	e59f00e4 	ldr	r0, [pc, #228]	; 14388 <xsh_sleep+0x134>
   142a0:	eb001e0f 	bl	1bae4 <printf>
   142a4:	e1a00005 	mov	r0, r5
   142a8:	ea000030 	b	14370 <xsh_sleep+0x11c>
   142ac:	e59f70d8 	ldr	r7, [pc, #216]	; 1438c <xsh_sleep+0x138>
   142b0:	e59f50d8 	ldr	r5, [pc, #216]	; 14390 <xsh_sleep+0x13c>
   142b4:	e5973000 	ldr	r3, [r7]
   142b8:	e3a06054 	mov	r6, #84	; 0x54
   142bc:	e0235396 	mla	r3, r6, r3, r5
   142c0:	e3500001 	cmp	r0, #1
   142c4:	d59f10c8 	ldrle	r1, [pc, #200]	; 14394 <xsh_sleep+0x140>
   142c8:	e5930048 	ldr	r0, [r3, #72]	; 0x48
   142cc:	da000016 	ble	1432c <xsh_sleep+0xd8>
   142d0:	ea000014 	b	14328 <xsh_sleep+0xd4>
   142d4:	e59d3004 	ldr	r3, [sp, #4]
   142d8:	e59f20b8 	ldr	r2, [pc, #184]	; 14398 <xsh_sleep+0x144>
   142dc:	e1530002 	cmp	r3, r2
   142e0:	9a000009 	bls	1430c <xsh_sleep+0xb8>
   142e4:	e59f30a0 	ldr	r3, [pc, #160]	; 1438c <xsh_sleep+0x138>
   142e8:	e59f20a0 	ldr	r2, [pc, #160]	; 14390 <xsh_sleep+0x13c>
   142ec:	e5933000 	ldr	r3, [r3]
   142f0:	e3a01054 	mov	r1, #84	; 0x54
   142f4:	e0232391 	mla	r3, r1, r3, r2
   142f8:	e59f109c 	ldr	r1, [pc, #156]	; 1439c <xsh_sleep+0x148>
   142fc:	e5930048 	ldr	r0, [r3, #72]	; 0x48
   14300:	e894000c 	ldm	r4, {r2, r3}
   14304:	eb001d81 	bl	1b910 <fprintf>
   14308:	ea00000f 	b	1434c <xsh_sleep+0xf8>
   1430c:	e3a00ffa 	mov	r0, #1000	; 0x3e8
   14310:	e0000390 	mul	r0, r0, r3
   14314:	ebfff338 	bl	10ffc <sleep>
   14318:	e3700001 	cmn	r0, #1
   1431c:	13a00000 	movne	r0, #0
   14320:	03a00001 	moveq	r0, #1
   14324:	ea000011 	b	14370 <xsh_sleep+0x11c>
   14328:	e59f1070 	ldr	r1, [pc, #112]	; 143a0 <xsh_sleep+0x14c>
   1432c:	e5942000 	ldr	r2, [r4]
   14330:	eb001d76 	bl	1b910 <fprintf>
   14334:	e5973000 	ldr	r3, [r7]
   14338:	e59f1064 	ldr	r1, [pc, #100]	; 143a4 <xsh_sleep+0x150>
   1433c:	e0255396 	mla	r5, r6, r3, r5
   14340:	e5942000 	ldr	r2, [r4]
   14344:	e5950048 	ldr	r0, [r5, #72]	; 0x48
   14348:	eb001d70 	bl	1b910 <fprintf>
   1434c:	e3a00001 	mov	r0, #1
   14350:	ea000006 	b	14370 <xsh_sleep+0x11c>
   14354:	e5940004 	ldr	r0, [r4, #4]
   14358:	e59f1048 	ldr	r1, [pc, #72]	; 143a8 <xsh_sleep+0x154>
   1435c:	e28d2004 	add	r2, sp, #4
   14360:	eb001e56 	bl	1bcc0 <sscanf>
   14364:	e3500001 	cmp	r0, #1
   14368:	0affffd9 	beq	142d4 <xsh_sleep+0x80>
   1436c:	eaffffdc 	b	142e4 <xsh_sleep+0x90>
   14370:	e8bd80fe 	pop	{r1, r2, r3, r4, r5, r6, r7, pc}
   14374:	0001cc9c 	.word	0x0001cc9c
   14378:	0001cf56 	.word	0x0001cf56
   1437c:	0001ccc7 	.word	0x0001ccc7
   14380:	0001cf6a 	.word	0x0001cf6a
   14384:	0001ccec 	.word	0x0001ccec
   14388:	0001ccf6 	.word	0x0001ccf6
   1438c:	0002281c 	.word	0x0002281c
   14390:	0002074c 	.word	0x0002074c
   14394:	0001cf87 	.word	0x0001cf87
   14398:	00418937 	.word	0x00418937
   1439c:	0001cf9c 	.word	0x0001cf9c
   143a0:	0001cca3 	.word	0x0001cca3
   143a4:	0001cd24 	.word	0x0001cd24
   143a8:	0001fdeb 	.word	0x0001fdeb

000143ac <xsh_kill>:
   143ac:	e3500002 	cmp	r0, #2
   143b0:	e92d40f8 	push	{r3, r4, r5, r6, r7, lr}
   143b4:	e1a04001 	mov	r4, r1
   143b8:	1a000012 	bne	14408 <xsh_kill+0x5c>
   143bc:	e5910004 	ldr	r0, [r1, #4]
   143c0:	e59f1158 	ldr	r1, [pc, #344]	; 14520 <xsh_kill+0x174>
   143c4:	eb001e5b 	bl	1bd38 <strcmp>
   143c8:	e2505000 	subs	r5, r0, #0
   143cc:	1a00004e 	bne	1450c <xsh_kill+0x160>
   143d0:	e5941000 	ldr	r1, [r4]
   143d4:	e59f0148 	ldr	r0, [pc, #328]	; 14524 <xsh_kill+0x178>
   143d8:	eb001dc1 	bl	1bae4 <printf>
   143dc:	e59f0144 	ldr	r0, [pc, #324]	; 14528 <xsh_kill+0x17c>
   143e0:	eb001dbf 	bl	1bae4 <printf>
   143e4:	e59f0140 	ldr	r0, [pc, #320]	; 1452c <xsh_kill+0x180>
   143e8:	eb001dbd 	bl	1bae4 <printf>
   143ec:	e59f013c 	ldr	r0, [pc, #316]	; 14530 <xsh_kill+0x184>
   143f0:	eb001dbb 	bl	1bae4 <printf>
   143f4:	e59f0138 	ldr	r0, [pc, #312]	; 14534 <xsh_kill+0x188>
   143f8:	eb001db9 	bl	1bae4 <printf>
   143fc:	e59f0134 	ldr	r0, [pc, #308]	; 14538 <xsh_kill+0x18c>
   14400:	eb001db7 	bl	1bae4 <printf>
   14404:	ea000033 	b	144d8 <xsh_kill+0x12c>
   14408:	e59f712c 	ldr	r7, [pc, #300]	; 1453c <xsh_kill+0x190>
   1440c:	e59f512c 	ldr	r5, [pc, #300]	; 14540 <xsh_kill+0x194>
   14410:	e5973000 	ldr	r3, [r7]
   14414:	e3a06054 	mov	r6, #84	; 0x54
   14418:	e0235396 	mla	r3, r6, r3, r5
   1441c:	e3500001 	cmp	r0, #1
   14420:	d59f111c 	ldrle	r1, [pc, #284]	; 14544 <xsh_kill+0x198>
   14424:	e5930048 	ldr	r0, [r3, #72]	; 0x48
   14428:	da00002d 	ble	144e4 <xsh_kill+0x138>
   1442c:	ea00002b 	b	144e0 <xsh_kill+0x134>
   14430:	e59f3104 	ldr	r3, [pc, #260]	; 1453c <xsh_kill+0x190>
   14434:	e59f2104 	ldr	r2, [pc, #260]	; 14540 <xsh_kill+0x194>
   14438:	e5933000 	ldr	r3, [r3]
   1443c:	e3a01054 	mov	r1, #84	; 0x54
   14440:	e0232391 	mla	r3, r1, r3, r2
   14444:	e59f10fc 	ldr	r1, [pc, #252]	; 14548 <xsh_kill+0x19c>
   14448:	e5930048 	ldr	r0, [r3, #72]	; 0x48
   1444c:	e5942000 	ldr	r2, [r4]
   14450:	e1a03005 	mov	r3, r5
   14454:	eb001d2d 	bl	1b910 <fprintf>
   14458:	ea000029 	b	14504 <xsh_kill+0x158>
   1445c:	ebfff240 	bl	10d64 <gettid>
   14460:	e1550000 	cmp	r5, r0
   14464:	1a00000a 	bne	14494 <xsh_kill+0xe8>
   14468:	e59f30cc 	ldr	r3, [pc, #204]	; 1453c <xsh_kill+0x190>
   1446c:	e59f20cc 	ldr	r2, [pc, #204]	; 14540 <xsh_kill+0x194>
   14470:	e5933000 	ldr	r3, [r3]
   14474:	e3a01054 	mov	r1, #84	; 0x54
   14478:	e0232391 	mla	r3, r1, r3, r2
   1447c:	e59f10c8 	ldr	r1, [pc, #200]	; 1454c <xsh_kill+0x1a0>
   14480:	e5930048 	ldr	r0, [r3, #72]	; 0x48
   14484:	e5942000 	ldr	r2, [r4]
   14488:	eb001d20 	bl	1b910 <fprintf>
   1448c:	e3a00e7d 	mov	r0, #2000	; 0x7d0
   14490:	ebfff2d9 	bl	10ffc <sleep>
   14494:	e1a00005 	mov	r0, r5
   14498:	ebfff100 	bl	108a0 <kill>
   1449c:	e3700001 	cmn	r0, #1
   144a0:	e1a06000 	mov	r6, r0
   144a4:	1a00000b 	bne	144d8 <xsh_kill+0x12c>
   144a8:	e59f308c 	ldr	r3, [pc, #140]	; 1453c <xsh_kill+0x190>
   144ac:	e59f208c 	ldr	r2, [pc, #140]	; 14540 <xsh_kill+0x194>
   144b0:	e5933000 	ldr	r3, [r3]
   144b4:	e3a01054 	mov	r1, #84	; 0x54
   144b8:	e0232391 	mla	r3, r1, r3, r2
   144bc:	e59f108c 	ldr	r1, [pc, #140]	; 14550 <xsh_kill+0x1a4>
   144c0:	e5930048 	ldr	r0, [r3, #72]	; 0x48
   144c4:	e5942000 	ldr	r2, [r4]
   144c8:	e1a03005 	mov	r3, r5
   144cc:	eb001d0f 	bl	1b910 <fprintf>
   144d0:	e1a00006 	mov	r0, r6
   144d4:	e8bd80f8 	pop	{r3, r4, r5, r6, r7, pc}
   144d8:	e3a00000 	mov	r0, #0
   144dc:	e8bd80f8 	pop	{r3, r4, r5, r6, r7, pc}
   144e0:	e59f106c 	ldr	r1, [pc, #108]	; 14554 <xsh_kill+0x1a8>
   144e4:	e5942000 	ldr	r2, [r4]
   144e8:	eb001d08 	bl	1b910 <fprintf>
   144ec:	e5973000 	ldr	r3, [r7]
   144f0:	e59f1060 	ldr	r1, [pc, #96]	; 14558 <xsh_kill+0x1ac>
   144f4:	e0255396 	mla	r5, r6, r3, r5
   144f8:	e5942000 	ldr	r2, [r4]
   144fc:	e5950048 	ldr	r0, [r5, #72]	; 0x48
   14500:	eb001d02 	bl	1b910 <fprintf>
   14504:	e3a00001 	mov	r0, #1
   14508:	e8bd80f8 	pop	{r3, r4, r5, r6, r7, pc}
   1450c:	e5940004 	ldr	r0, [r4, #4]
   14510:	eb001b7a 	bl	1b300 <atoi>
   14514:	e2505000 	subs	r5, r0, #0
   14518:	1affffcf 	bne	1445c <xsh_kill+0xb0>
   1451c:	eaffffc3 	b	14430 <xsh_kill+0x84>
   14520:	0001cc9c 	.word	0x0001cc9c
   14524:	0001cfbf 	.word	0x0001cfbf
   14528:	0001ccc7 	.word	0x0001ccc7
   1452c:	0001cfd1 	.word	0x0001cfd1
   14530:	0001ccec 	.word	0x0001ccec
   14534:	0001cfee 	.word	0x0001cfee
   14538:	0001cd62 	.word	0x0001cd62
   1453c:	0002281c 	.word	0x0002281c
   14540:	0002074c 	.word	0x0002074c
   14544:	0001cf87 	.word	0x0001cf87
   14548:	0001d00b 	.word	0x0001d00b
   1454c:	0001d02d 	.word	0x0001d02d
   14550:	0001d03f 	.word	0x0001d03f
   14554:	0001cca3 	.word	0x0001cca3
   14558:	0001cd24 	.word	0x0001cd24

0001455c <xsh_ps>:
   1455c:	e92d40f0 	push	{r4, r5, r6, r7, lr}
   14560:	e3500002 	cmp	r0, #2
   14564:	e24dd01c 	sub	sp, sp, #28
   14568:	e1a04001 	mov	r4, r1
   1456c:	1a000021 	bne	145f8 <xsh_ps+0x9c>
   14570:	e5910004 	ldr	r0, [r1, #4]
   14574:	e59f1170 	ldr	r1, [pc, #368]	; 146ec <xsh_ps+0x190>
   14578:	eb001dee 	bl	1bd38 <strcmp>
   1457c:	e2505000 	subs	r5, r0, #0
   14580:	0a000010 	beq	145c8 <xsh_ps+0x6c>
   14584:	e59f7164 	ldr	r7, [pc, #356]	; 146f0 <xsh_ps+0x194>
   14588:	e59f5164 	ldr	r5, [pc, #356]	; 146f4 <xsh_ps+0x198>
   1458c:	e5973000 	ldr	r3, [r7]
   14590:	e3a06054 	mov	r6, #84	; 0x54
   14594:	e0235396 	mla	r3, r6, r3, r5
   14598:	e59f1158 	ldr	r1, [pc, #344]	; 146f8 <xsh_ps+0x19c>
   1459c:	e5930048 	ldr	r0, [r3, #72]	; 0x48
   145a0:	e5942000 	ldr	r2, [r4]
   145a4:	eb001cd9 	bl	1b910 <fprintf>
   145a8:	e5973000 	ldr	r3, [r7]
   145ac:	e59f1148 	ldr	r1, [pc, #328]	; 146fc <xsh_ps+0x1a0>
   145b0:	e0255396 	mla	r5, r6, r3, r5
   145b4:	e5942000 	ldr	r2, [r4]
   145b8:	e5950048 	ldr	r0, [r5, #72]	; 0x48
   145bc:	eb001cd3 	bl	1b910 <fprintf>
   145c0:	e3a00001 	mov	r0, #1
   145c4:	ea000046 	b	146e4 <xsh_ps+0x188>
   145c8:	e5941000 	ldr	r1, [r4]
   145cc:	e59f012c 	ldr	r0, [pc, #300]	; 14700 <xsh_ps+0x1a4>
   145d0:	eb001d43 	bl	1bae4 <printf>
   145d4:	e59f0128 	ldr	r0, [pc, #296]	; 14704 <xsh_ps+0x1a8>
   145d8:	eb001d41 	bl	1bae4 <printf>
   145dc:	e59f0124 	ldr	r0, [pc, #292]	; 14708 <xsh_ps+0x1ac>
   145e0:	eb001d3f 	bl	1bae4 <printf>
   145e4:	e59f0120 	ldr	r0, [pc, #288]	; 1470c <xsh_ps+0x1b0>
   145e8:	eb001d3d 	bl	1bae4 <printf>
   145ec:	e59f011c 	ldr	r0, [pc, #284]	; 14710 <xsh_ps+0x1b4>
   145f0:	eb001d3b 	bl	1bae4 <printf>
   145f4:	ea000039 	b	146e0 <xsh_ps+0x184>
   145f8:	e3500001 	cmp	r0, #1
   145fc:	caffffe0 	bgt	14584 <xsh_ps+0x28>
   14600:	e59f310c 	ldr	r3, [pc, #268]	; 14714 <xsh_ps+0x1b8>
   14604:	e59f110c 	ldr	r1, [pc, #268]	; 14718 <xsh_ps+0x1bc>
   14608:	e58d3000 	str	r3, [sp]
   1460c:	e59f3108 	ldr	r3, [pc, #264]	; 1471c <xsh_ps+0x1c0>
   14610:	e59f2108 	ldr	r2, [pc, #264]	; 14720 <xsh_ps+0x1c4>
   14614:	e58d3004 	str	r3, [sp, #4]
   14618:	e59f3104 	ldr	r3, [pc, #260]	; 14724 <xsh_ps+0x1c8>
   1461c:	e59f0104 	ldr	r0, [pc, #260]	; 14728 <xsh_ps+0x1cc>
   14620:	e58d3008 	str	r3, [sp, #8]
   14624:	e59f3100 	ldr	r3, [pc, #256]	; 1472c <xsh_ps+0x1d0>
   14628:	e59f50c4 	ldr	r5, [pc, #196]	; 146f4 <xsh_ps+0x198>
   1462c:	e58d300c 	str	r3, [sp, #12]
   14630:	e59f30f8 	ldr	r3, [pc, #248]	; 14730 <xsh_ps+0x1d4>
   14634:	e59f70f8 	ldr	r7, [pc, #248]	; 14734 <xsh_ps+0x1d8>
   14638:	e58d3010 	str	r3, [sp, #16]
   1463c:	e59f30f4 	ldr	r3, [pc, #244]	; 14738 <xsh_ps+0x1dc>
   14640:	eb001d27 	bl	1bae4 <printf>
   14644:	e59f30f0 	ldr	r3, [pc, #240]	; 1473c <xsh_ps+0x1e0>
   14648:	e59f00d8 	ldr	r0, [pc, #216]	; 14728 <xsh_ps+0x1cc>
   1464c:	e58d3000 	str	r3, [sp]
   14650:	e58d3004 	str	r3, [sp, #4]
   14654:	e59f30e4 	ldr	r3, [pc, #228]	; 14740 <xsh_ps+0x1e4>
   14658:	e59f10e4 	ldr	r1, [pc, #228]	; 14744 <xsh_ps+0x1e8>
   1465c:	e58d3008 	str	r3, [sp, #8]
   14660:	e58d300c 	str	r3, [sp, #12]
   14664:	e59f30dc 	ldr	r3, [pc, #220]	; 14748 <xsh_ps+0x1ec>
   14668:	e59f20dc 	ldr	r2, [pc, #220]	; 1474c <xsh_ps+0x1f0>
   1466c:	e58d3010 	str	r3, [sp, #16]
   14670:	e59f30d8 	ldr	r3, [pc, #216]	; 14750 <xsh_ps+0x1f4>
   14674:	eb001d1a 	bl	1bae4 <printf>
   14678:	e3a04000 	mov	r4, #0
   1467c:	e3a06054 	mov	r6, #84	; 0x54
   14680:	e0030496 	mul	r3, r6, r4
   14684:	e0832005 	add	r2, r3, r5
   14688:	e7d33005 	ldrb	r3, [r3, r5]
   1468c:	e3530002 	cmp	r3, #2
   14690:	0a00000f 	beq	146d4 <xsh_ps+0x178>
   14694:	e5921004 	ldr	r1, [r2, #4]
   14698:	e2433001 	sub	r3, r3, #1
   1469c:	e58d1000 	str	r1, [sp]
   146a0:	e592102c 	ldr	r1, [r2, #44]	; 0x2c
   146a4:	e59f00a8 	ldr	r0, [pc, #168]	; 14754 <xsh_ps+0x1f8>
   146a8:	e58d1004 	str	r1, [sp, #4]
   146ac:	e592100c 	ldr	r1, [r2, #12]
   146b0:	e7973103 	ldr	r3, [r7, r3, lsl #2]
   146b4:	e58d1008 	str	r1, [sp, #8]
   146b8:	e5921008 	ldr	r1, [r2, #8]
   146bc:	e58d100c 	str	r1, [sp, #12]
   146c0:	e5921010 	ldr	r1, [r2, #16]
   146c4:	e2822014 	add	r2, r2, #20
   146c8:	e58d1010 	str	r1, [sp, #16]
   146cc:	e1a01004 	mov	r1, r4
   146d0:	eb001d03 	bl	1bae4 <printf>
   146d4:	e2844001 	add	r4, r4, #1
   146d8:	e3540064 	cmp	r4, #100	; 0x64
   146dc:	1affffe7 	bne	14680 <xsh_ps+0x124>
   146e0:	e3a00000 	mov	r0, #0
   146e4:	e28dd01c 	add	sp, sp, #28
   146e8:	e8bd80f0 	pop	{r4, r5, r6, r7, pc}
   146ec:	0001cc9c 	.word	0x0001cc9c
   146f0:	0002281c 	.word	0x0002281c
   146f4:	0002074c 	.word	0x0002074c
   146f8:	0001cca3 	.word	0x0001cca3
   146fc:	0001cd24 	.word	0x0001cd24
   14700:	0001ccbb 	.word	0x0001ccbb
   14704:	0001ccc7 	.word	0x0001ccc7
   14708:	0001d078 	.word	0x0001d078
   1470c:	0001ccec 	.word	0x0001ccec
   14710:	0001ccf6 	.word	0x0001ccf6
   14714:	0001d0d5 	.word	0x0001d0d5
   14718:	0001d0c6 	.word	0x0001d0c6
   1471c:	0001d0da 	.word	0x0001d0da
   14720:	0001d0ca 	.word	0x0001d0ca
   14724:	0001d0df 	.word	0x0001d0df
   14728:	0001d09f 	.word	0x0001d09f
   1472c:	0001d0ea 	.word	0x0001d0ea
   14730:	0001d0f4 	.word	0x0001d0f4
   14734:	0001d058 	.word	0x0001d058
   14738:	0001d0cf 	.word	0x0001d0cf
   1473c:	0001d115 	.word	0x0001d115
   14740:	0001d104 	.word	0x0001d104
   14744:	0001d116 	.word	0x0001d116
   14748:	0001d10f 	.word	0x0001d10f
   1474c:	0001d0fe 	.word	0x0001d0fe
   14750:	0001d114 	.word	0x0001d114
   14754:	0001d11a 	.word	0x0001d11a

00014758 <string_to_addr>:
   14758:	e92d4007 	push	{r0, r1, r2, lr}
   1475c:	e5d03000 	ldrb	r3, [r0]
   14760:	e3530030 	cmp	r3, #48	; 0x30
   14764:	0a000001 	beq	14770 <string_to_addr+0x18>
   14768:	e59f1050 	ldr	r1, [pc, #80]	; 147c0 <string_to_addr+0x68>
   1476c:	ea00000c 	b	147a4 <string_to_addr+0x4c>
   14770:	e5d03001 	ldrb	r3, [r0, #1]
   14774:	e20320df 	and	r2, r3, #223	; 0xdf
   14778:	e3520058 	cmp	r2, #88	; 0x58
   1477c:	02800002 	addeq	r0, r0, #2
   14780:	059f103c 	ldreq	r1, [pc, #60]	; 147c4 <string_to_addr+0x6c>
   14784:	0a000006 	beq	147a4 <string_to_addr+0x4c>
   14788:	e59f2038 	ldr	r2, [pc, #56]	; 147c8 <string_to_addr+0x70>
   1478c:	e7d23003 	ldrb	r3, [r2, r3]
   14790:	e2033004 	and	r3, r3, #4
   14794:	e6ef3073 	uxtb	r3, r3
   14798:	e3530000 	cmp	r3, #0
   1479c:	0afffff1 	beq	14768 <string_to_addr+0x10>
   147a0:	e59f1024 	ldr	r1, [pc, #36]	; 147cc <string_to_addr+0x74>
   147a4:	e28d2004 	add	r2, sp, #4
   147a8:	eb001d44 	bl	1bcc0 <sscanf>
   147ac:	e3500001 	cmp	r0, #1
   147b0:	13e03000 	mvnne	r3, #0
   147b4:	158d3004 	strne	r3, [sp, #4]
   147b8:	e59d0004 	ldr	r0, [sp, #4]
   147bc:	e8bd800e 	pop	{r1, r2, r3, pc}
   147c0:	0001d174 	.word	0x0001d174
   147c4:	0001d170 	.word	0x0001d170
   147c8:	0001fe0b 	.word	0x0001fe0b
   147cc:	0001d178 	.word	0x0001d178

000147d0 <xsh_memdump>:
   147d0:	e3500002 	cmp	r0, #2
   147d4:	e92d45f8 	push	{r3, r4, r5, r6, r7, r8, sl, lr}
   147d8:	e1a05000 	mov	r5, r0
   147dc:	e1a04001 	mov	r4, r1
   147e0:	1a00001c 	bne	14858 <xsh_memdump+0x88>
   147e4:	e5910004 	ldr	r0, [r1, #4]
   147e8:	e59f11d0 	ldr	r1, [pc, #464]	; 149c0 <xsh_memdump+0x1f0>
   147ec:	eb001d51 	bl	1bd38 <strcmp>
   147f0:	e3500000 	cmp	r0, #0
   147f4:	1a000017 	bne	14858 <xsh_memdump+0x88>
   147f8:	e5941000 	ldr	r1, [r4]
   147fc:	e59f01c0 	ldr	r0, [pc, #448]	; 149c4 <xsh_memdump+0x1f4>
   14800:	eb001cb7 	bl	1bae4 <printf>
   14804:	e59f01bc 	ldr	r0, [pc, #444]	; 149c8 <xsh_memdump+0x1f8>
   14808:	eb001cb5 	bl	1bae4 <printf>
   1480c:	e59f01b8 	ldr	r0, [pc, #440]	; 149cc <xsh_memdump+0x1fc>
   14810:	eb001cb3 	bl	1bae4 <printf>
   14814:	e59f01b4 	ldr	r0, [pc, #436]	; 149d0 <xsh_memdump+0x200>
   14818:	eb001cb1 	bl	1bae4 <printf>
   1481c:	e59f01b0 	ldr	r0, [pc, #432]	; 149d4 <xsh_memdump+0x204>
   14820:	eb001caf 	bl	1bae4 <printf>
   14824:	e59f01ac 	ldr	r0, [pc, #428]	; 149d8 <xsh_memdump+0x208>
   14828:	eb001cad 	bl	1bae4 <printf>
   1482c:	e59f01a8 	ldr	r0, [pc, #424]	; 149dc <xsh_memdump+0x20c>
   14830:	eb001cab 	bl	1bae4 <printf>
   14834:	e59f01a4 	ldr	r0, [pc, #420]	; 149e0 <xsh_memdump+0x210>
   14838:	eb001ca9 	bl	1bae4 <printf>
   1483c:	e59f01a0 	ldr	r0, [pc, #416]	; 149e4 <xsh_memdump+0x214>
   14840:	eb001ca7 	bl	1bae4 <printf>
   14844:	e59f019c 	ldr	r0, [pc, #412]	; 149e8 <xsh_memdump+0x218>
   14848:	eb001ca5 	bl	1bae4 <printf>
   1484c:	e59f0198 	ldr	r0, [pc, #408]	; 149ec <xsh_memdump+0x21c>
   14850:	eb001ca3 	bl	1bae4 <printf>
   14854:	ea00003f 	b	14958 <xsh_memdump+0x188>
   14858:	e2453003 	sub	r3, r5, #3
   1485c:	e3530002 	cmp	r3, #2
   14860:	93a07000 	movls	r7, #0
   14864:	91a08007 	movls	r8, r7
   14868:	9285a001 	addls	sl, r5, #1
   1486c:	9a000011 	bls	148b8 <xsh_memdump+0xe8>
   14870:	ea000015 	b	148cc <xsh_memdump+0xfc>
   14874:	e7940106 	ldr	r0, [r4, r6, lsl #2]
   14878:	e59f1170 	ldr	r1, [pc, #368]	; 149f0 <xsh_memdump+0x220>
   1487c:	eb001d2d 	bl	1bd38 <strcmp>
   14880:	e3500000 	cmp	r0, #0
   14884:	03a08001 	moveq	r8, #1
   14888:	0a000008 	beq	148b0 <xsh_memdump+0xe0>
   1488c:	e7940106 	ldr	r0, [r4, r6, lsl #2]
   14890:	e59f115c 	ldr	r1, [pc, #348]	; 149f4 <xsh_memdump+0x224>
   14894:	eb001d27 	bl	1bd38 <strcmp>
   14898:	e3500000 	cmp	r0, #0
   1489c:	0a000002 	beq	148ac <xsh_memdump+0xdc>
   148a0:	e3550003 	cmp	r5, #3
   148a4:	1a000008 	bne	148cc <xsh_memdump+0xfc>
   148a8:	ea00000f 	b	148ec <xsh_memdump+0x11c>
   148ac:	e3a07001 	mov	r7, #1
   148b0:	e2455001 	sub	r5, r5, #1
   148b4:	eaffffff 	b	148b8 <xsh_memdump+0xe8>
   148b8:	e065600a 	rsb	r6, r5, sl
   148bc:	e6ff6076 	uxth	r6, r6
   148c0:	e1560005 	cmp	r6, r5
   148c4:	baffffea 	blt	14874 <xsh_memdump+0xa4>
   148c8:	eafffff4 	b	148a0 <xsh_memdump+0xd0>
   148cc:	e59f7124 	ldr	r7, [pc, #292]	; 149f8 <xsh_memdump+0x228>
   148d0:	e59f5124 	ldr	r5, [pc, #292]	; 149fc <xsh_memdump+0x22c>
   148d4:	e5973000 	ldr	r3, [r7]
   148d8:	e3a06054 	mov	r6, #84	; 0x54
   148dc:	e0235396 	mla	r3, r6, r3, r5
   148e0:	e59f1118 	ldr	r1, [pc, #280]	; 14a00 <xsh_memdump+0x230>
   148e4:	e5930048 	ldr	r0, [r3, #72]	; 0x48
   148e8:	ea000012 	b	14938 <xsh_memdump+0x168>
   148ec:	e7940106 	ldr	r0, [r4, r6, lsl #2]
   148f0:	ebffff98 	bl	14758 <string_to_addr>
   148f4:	e2866001 	add	r6, r6, #1
   148f8:	e1a05000 	mov	r5, r0
   148fc:	e7940106 	ldr	r0, [r4, r6, lsl #2]
   14900:	ebffff94 	bl	14758 <string_to_addr>
   14904:	e3700001 	cmn	r0, #1
   14908:	13750001 	cmnne	r5, #1
   1490c:	e1a01000 	mov	r1, r0
   14910:	13a03000 	movne	r3, #0
   14914:	03a03001 	moveq	r3, #1
   14918:	1a000010 	bne	14960 <xsh_memdump+0x190>
   1491c:	e59f70d4 	ldr	r7, [pc, #212]	; 149f8 <xsh_memdump+0x228>
   14920:	e59f50d4 	ldr	r5, [pc, #212]	; 149fc <xsh_memdump+0x22c>
   14924:	e5973000 	ldr	r3, [r7]
   14928:	e3a06054 	mov	r6, #84	; 0x54
   1492c:	e0235396 	mla	r3, r6, r3, r5
   14930:	e59f10cc 	ldr	r1, [pc, #204]	; 14a04 <xsh_memdump+0x234>
   14934:	e5930048 	ldr	r0, [r3, #72]	; 0x48
   14938:	e5942000 	ldr	r2, [r4]
   1493c:	eb001bf3 	bl	1b910 <fprintf>
   14940:	e5973000 	ldr	r3, [r7]
   14944:	e59f10bc 	ldr	r1, [pc, #188]	; 14a08 <xsh_memdump+0x238>
   14948:	e0255396 	mla	r5, r6, r3, r5
   1494c:	e5942000 	ldr	r2, [r4]
   14950:	e5950048 	ldr	r0, [r5, #72]	; 0x48
   14954:	eb001bed 	bl	1b910 <fprintf>
   14958:	e3a00001 	mov	r0, #1
   1495c:	e8bd85f8 	pop	{r3, r4, r5, r6, r7, r8, sl, pc}
   14960:	e3570001 	cmp	r7, #1
   14964:	0a00000d 	beq	149a0 <xsh_memdump+0x1d0>
   14968:	e3500000 	cmp	r0, #0
   1496c:	0a00000b 	beq	149a0 <xsh_memdump+0x1d0>
   14970:	e0900005 	adds	r0, r0, r5
   14974:	2a00000d 	bcs	149b0 <xsh_memdump+0x1e0>
   14978:	e59f208c 	ldr	r2, [pc, #140]	; 14a0c <xsh_memdump+0x23c>
   1497c:	e592c024 	ldr	ip, [r2, #36]	; 0x24
   14980:	e15c0005 	cmp	ip, r5
   14984:	8a000003 	bhi	14998 <xsh_memdump+0x1c8>
   14988:	e5923028 	ldr	r3, [r2, #40]	; 0x28
   1498c:	e1530000 	cmp	r3, r0
   14990:	33a03000 	movcc	r3, #0
   14994:	23a03001 	movcs	r3, #1
   14998:	e3530000 	cmp	r3, #0
   1499c:	0a000003 	beq	149b0 <xsh_memdump+0x1e0>
   149a0:	e1a00005 	mov	r0, r5
   149a4:	e1a02008 	mov	r2, r8
   149a8:	ebfff4e3 	bl	11d3c <hexdump>
   149ac:	ea000001 	b	149b8 <xsh_memdump+0x1e8>
   149b0:	e59f0058 	ldr	r0, [pc, #88]	; 14a10 <xsh_memdump+0x240>
   149b4:	eb001c4a 	bl	1bae4 <printf>
   149b8:	e3a00000 	mov	r0, #0
   149bc:	e8bd85f8 	pop	{r3, r4, r5, r6, r7, r8, sl, pc}
   149c0:	0001cc9c 	.word	0x0001cc9c
   149c4:	0001d17c 	.word	0x0001d17c
   149c8:	0001ccc7 	.word	0x0001ccc7
   149cc:	0001d1a3 	.word	0x0001d1a3
   149d0:	0001d1d2 	.word	0x0001d1d2
   149d4:	0001d203 	.word	0x0001d203
   149d8:	0001ccec 	.word	0x0001ccec
   149dc:	0001d229 	.word	0x0001d229
   149e0:	0001d257 	.word	0x0001d257
   149e4:	0001d276 	.word	0x0001d276
   149e8:	0001d2a2 	.word	0x0001d2a2
   149ec:	0001d2cb 	.word	0x0001d2cb
   149f0:	0001e108 	.word	0x0001e108
   149f4:	0001d2f0 	.word	0x0001d2f0
   149f8:	0002281c 	.word	0x0002281c
   149fc:	0002074c 	.word	0x0002074c
   14a00:	0001cd86 	.word	0x0001cd86
   14a04:	0001d2f3 	.word	0x0001d2f3
   14a08:	0001cd24 	.word	0x0001cd24
   14a0c:	00020708 	.word	0x00020708
   14a10:	0001d309 	.word	0x0001d309

00014a14 <usage>:
   14a14:	e1a01000 	mov	r1, r0
   14a18:	e92d4008 	push	{r3, lr}
   14a1c:	e59f004c 	ldr	r0, [pc, #76]	; 14a70 <usage+0x5c>
   14a20:	eb001c2f 	bl	1bae4 <printf>
   14a24:	e59f0048 	ldr	r0, [pc, #72]	; 14a74 <usage+0x60>
   14a28:	eb001c2d 	bl	1bae4 <printf>
   14a2c:	e59f0044 	ldr	r0, [pc, #68]	; 14a78 <usage+0x64>
   14a30:	eb001c2b 	bl	1bae4 <printf>
   14a34:	e59f0040 	ldr	r0, [pc, #64]	; 14a7c <usage+0x68>
   14a38:	eb001c29 	bl	1bae4 <printf>
   14a3c:	e59f003c 	ldr	r0, [pc, #60]	; 14a80 <usage+0x6c>
   14a40:	eb001c27 	bl	1bae4 <printf>
   14a44:	e59f0038 	ldr	r0, [pc, #56]	; 14a84 <usage+0x70>
   14a48:	eb001c25 	bl	1bae4 <printf>
   14a4c:	e59f0034 	ldr	r0, [pc, #52]	; 14a88 <usage+0x74>
   14a50:	eb001c23 	bl	1bae4 <printf>
   14a54:	e59f0030 	ldr	r0, [pc, #48]	; 14a8c <usage+0x78>
   14a58:	eb001c21 	bl	1bae4 <printf>
   14a5c:	e59f002c 	ldr	r0, [pc, #44]	; 14a90 <usage+0x7c>
   14a60:	eb001c1f 	bl	1bae4 <printf>
   14a64:	e59f0028 	ldr	r0, [pc, #40]	; 14a94 <usage+0x80>
   14a68:	e8bd4008 	pop	{r3, lr}
   14a6c:	ea001c1c 	b	1bae4 <printf>
   14a70:	0001d334 	.word	0x0001d334
   14a74:	0001ccc7 	.word	0x0001ccc7
   14a78:	0001d35a 	.word	0x0001d35a
   14a7c:	0001d38d 	.word	0x0001d38d
   14a80:	0001ccec 	.word	0x0001ccec
   14a84:	0001d39a 	.word	0x0001d39a
   14a88:	0001d3c6 	.word	0x0001d3c6
   14a8c:	0001d3e3 	.word	0x0001d3e3
   14a90:	0001d415 	.word	0x0001d415
   14a94:	0001d2cb 	.word	0x0001d2cb

00014a98 <printFreeList>:
   14a98:	e92d4010 	push	{r4, lr}
   14a9c:	e1a04000 	mov	r4, r0
   14aa0:	e59f003c 	ldr	r0, [pc, #60]	; 14ae4 <printFreeList+0x4c>
   14aa4:	eb001c0e 	bl	1bae4 <printf>
   14aa8:	e59f0038 	ldr	r0, [pc, #56]	; 14ae8 <printFreeList+0x50>
   14aac:	eb001c0c 	bl	1bae4 <printf>
   14ab0:	e59f0034 	ldr	r0, [pc, #52]	; 14aec <printFreeList+0x54>
   14ab4:	eb001c0a 	bl	1bae4 <printf>
   14ab8:	ea000003 	b	14acc <printFreeList+0x34>
   14abc:	e59f002c 	ldr	r0, [pc, #44]	; 14af0 <printFreeList+0x58>
   14ac0:	e1a01004 	mov	r1, r4
   14ac4:	e5942004 	ldr	r2, [r4, #4]
   14ac8:	eb001c05 	bl	1bae4 <printf>
   14acc:	e5944000 	ldr	r4, [r4]
   14ad0:	e3540000 	cmp	r4, #0
   14ad4:	1afffff8 	bne	14abc <printFreeList+0x24>
   14ad8:	e59f0014 	ldr	r0, [pc, #20]	; 14af4 <printFreeList+0x5c>
   14adc:	e8bd4010 	pop	{r4, lr}
   14ae0:	ea001bff 	b	1bae4 <printf>
   14ae4:	0001d446 	.word	0x0001d446
   14ae8:	0001d457 	.word	0x0001d457
   14aec:	0001d46e 	.word	0x0001d46e
   14af0:	0001d485 	.word	0x0001d485
   14af4:	0001d561 	.word	0x0001d561

00014af8 <xsh_memstat>:
   14af8:	e3500002 	cmp	r0, #2
   14afc:	e92d4ff8 	push	{r3, r4, r5, r6, r7, r8, r9, sl, fp, lr}
   14b00:	e1a0a000 	mov	sl, r0
   14b04:	e1a08001 	mov	r8, r1
   14b08:	0a000004 	beq	14b20 <xsh_memstat+0x28>
   14b0c:	e3a04001 	mov	r4, #1
   14b10:	e1a05008 	mov	r5, r8
   14b14:	e3e06000 	mvn	r6, #0
   14b18:	e1a07004 	mov	r7, r4
   14b1c:	ea00002b 	b	14bd0 <xsh_memstat+0xd8>
   14b20:	e5910004 	ldr	r0, [r1, #4]
   14b24:	e59f1244 	ldr	r1, [pc, #580]	; 14d70 <xsh_memstat+0x278>
   14b28:	eb001c82 	bl	1bd38 <strcmp>
   14b2c:	e2504000 	subs	r4, r0, #0
   14b30:	1afffff5 	bne	14b0c <xsh_memstat+0x14>
   14b34:	e5980000 	ldr	r0, [r8]
   14b38:	ebffffb5 	bl	14a14 <usage>
   14b3c:	ea000089 	b	14d68 <xsh_memstat+0x270>
   14b40:	e5950004 	ldr	r0, [r5, #4]
   14b44:	e59f1228 	ldr	r1, [pc, #552]	; 14d74 <xsh_memstat+0x27c>
   14b48:	eb001c7a 	bl	1bd38 <strcmp>
   14b4c:	e3500000 	cmp	r0, #0
   14b50:	1a00000b 	bne	14b84 <xsh_memstat+0x8c>
   14b54:	e2873001 	add	r3, r7, #1
   14b58:	e153000a 	cmp	r3, sl
   14b5c:	aa000004 	bge	14b74 <xsh_memstat+0x7c>
   14b60:	e5950008 	ldr	r0, [r5, #8]
   14b64:	eb0019e5 	bl	1b300 <atoi>
   14b68:	e3844008 	orr	r4, r4, #8
   14b6c:	e1a06000 	mov	r6, r0
   14b70:	ea000014 	b	14bc8 <xsh_memstat+0xd0>
   14b74:	e5980000 	ldr	r0, [r8]
   14b78:	ebffffa5 	bl	14a14 <usage>
   14b7c:	e3a00001 	mov	r0, #1
   14b80:	e8bd8ff8 	pop	{r3, r4, r5, r6, r7, r8, r9, sl, fp, pc}
   14b84:	e5950004 	ldr	r0, [r5, #4]
   14b88:	e59f11e8 	ldr	r1, [pc, #488]	; 14d78 <xsh_memstat+0x280>
   14b8c:	eb001c69 	bl	1bd38 <strcmp>
   14b90:	e3500000 	cmp	r0, #0
   14b94:	03844004 	orreq	r4, r4, #4
   14b98:	0a00000a 	beq	14bc8 <xsh_memstat+0xd0>
   14b9c:	e5950004 	ldr	r0, [r5, #4]
   14ba0:	e59f11d4 	ldr	r1, [pc, #468]	; 14d7c <xsh_memstat+0x284>
   14ba4:	eb001c63 	bl	1bd38 <strcmp>
   14ba8:	e3500000 	cmp	r0, #0
   14bac:	03844002 	orreq	r4, r4, #2
   14bb0:	0a000004 	beq	14bc8 <xsh_memstat+0xd0>
   14bb4:	e5950004 	ldr	r0, [r5, #4]
   14bb8:	e59f11c0 	ldr	r1, [pc, #448]	; 14d80 <xsh_memstat+0x288>
   14bbc:	eb001c5d 	bl	1bd38 <strcmp>
   14bc0:	e3500000 	cmp	r0, #0
   14bc4:	020440fe 	andeq	r4, r4, #254	; 0xfe
   14bc8:	e2877001 	add	r7, r7, #1
   14bcc:	e2855004 	add	r5, r5, #4
   14bd0:	e157000a 	cmp	r7, sl
   14bd4:	baffffd9 	blt	14b40 <xsh_memstat+0x48>
   14bd8:	e3140001 	tst	r4, #1
   14bdc:	0a000034 	beq	14cb4 <xsh_memstat+0x1bc>
   14be0:	e59f319c 	ldr	r3, [pc, #412]	; 14d84 <xsh_memstat+0x28c>
   14be4:	e59fa19c 	ldr	sl, [pc, #412]	; 14d88 <xsh_memstat+0x290>
   14be8:	e5939024 	ldr	r9, [r3, #36]	; 0x24
   14bec:	e5937028 	ldr	r7, [r3, #40]	; 0x28
   14bf0:	e59f3194 	ldr	r3, [pc, #404]	; 14d8c <xsh_memstat+0x294>
   14bf4:	e0697007 	rsb	r7, r9, r7
   14bf8:	e063a00a 	rsb	sl, r3, sl
   14bfc:	e0699003 	rsb	r9, r9, r3
   14c00:	e59f2188 	ldr	r2, [pc, #392]	; 14d90 <xsh_memstat+0x298>
   14c04:	e59f3188 	ldr	r3, [pc, #392]	; 14d94 <xsh_memstat+0x29c>
   14c08:	e3a05000 	mov	r5, #0
   14c0c:	e5d31000 	ldrb	r1, [r3]
   14c10:	e3510002 	cmp	r1, #2
   14c14:	15931010 	ldrne	r1, [r3, #16]
   14c18:	e2833054 	add	r3, r3, #84	; 0x54
   14c1c:	10855001 	addne	r5, r5, r1
   14c20:	e1530002 	cmp	r3, r2
   14c24:	1afffff8 	bne	14c0c <xsh_memstat+0x114>
   14c28:	e59f3168 	ldr	r3, [pc, #360]	; 14d98 <xsh_memstat+0x2a0>
   14c2c:	e3a02000 	mov	r2, #0
   14c30:	e5933000 	ldr	r3, [r3]
   14c34:	ea000002 	b	14c44 <xsh_memstat+0x14c>
   14c38:	e5931004 	ldr	r1, [r3, #4]
   14c3c:	e5933000 	ldr	r3, [r3]
   14c40:	e0822001 	add	r2, r2, r1
   14c44:	e3530000 	cmp	r3, #0
   14c48:	1afffffa 	bne	14c38 <xsh_memstat+0x140>
   14c4c:	e0698007 	rsb	r8, r9, r7
   14c50:	e06a8008 	rsb	r8, sl, r8
   14c54:	e0658008 	rsb	r8, r5, r8
   14c58:	e59f013c 	ldr	r0, [pc, #316]	; 14d9c <xsh_memstat+0x2a4>
   14c5c:	e062b008 	rsb	fp, r2, r8
   14c60:	eb001b9f 	bl	1bae4 <printf>
   14c64:	e59f0134 	ldr	r0, [pc, #308]	; 14da0 <xsh_memstat+0x2a8>
   14c68:	eb001b9d 	bl	1bae4 <printf>
   14c6c:	e1a01009 	mov	r1, r9
   14c70:	e59f012c 	ldr	r0, [pc, #300]	; 14da4 <xsh_memstat+0x2ac>
   14c74:	eb001b9a 	bl	1bae4 <printf>
   14c78:	e1a0100a 	mov	r1, sl
   14c7c:	e59f0124 	ldr	r0, [pc, #292]	; 14da8 <xsh_memstat+0x2b0>
   14c80:	eb001b97 	bl	1bae4 <printf>
   14c84:	e1a01005 	mov	r1, r5
   14c88:	e59f011c 	ldr	r0, [pc, #284]	; 14dac <xsh_memstat+0x2b4>
   14c8c:	eb001b94 	bl	1bae4 <printf>
   14c90:	e1a01008 	mov	r1, r8
   14c94:	e1a0200b 	mov	r2, fp
   14c98:	e59f0110 	ldr	r0, [pc, #272]	; 14db0 <xsh_memstat+0x2b8>
   14c9c:	eb001b90 	bl	1bae4 <printf>
   14ca0:	e59f00f8 	ldr	r0, [pc, #248]	; 14da0 <xsh_memstat+0x2a8>
   14ca4:	eb001b8e 	bl	1bae4 <printf>
   14ca8:	e59f0104 	ldr	r0, [pc, #260]	; 14db4 <xsh_memstat+0x2bc>
   14cac:	e1a01007 	mov	r1, r7
   14cb0:	eb001b8b 	bl	1bae4 <printf>
   14cb4:	e2043004 	and	r3, r4, #4
   14cb8:	e6ef3073 	uxtb	r3, r3
   14cbc:	e3530000 	cmp	r3, #0
   14cc0:	0a000007 	beq	14ce4 <xsh_memstat+0x1ec>
   14cc4:	e59f30ec 	ldr	r3, [pc, #236]	; 14db8 <xsh_memstat+0x2c0>
   14cc8:	e59f20c4 	ldr	r2, [pc, #196]	; 14d94 <xsh_memstat+0x29c>
   14ccc:	e5933000 	ldr	r3, [r3]
   14cd0:	e3a01054 	mov	r1, #84	; 0x54
   14cd4:	e0232391 	mla	r3, r1, r3, r2
   14cd8:	e59f10dc 	ldr	r1, [pc, #220]	; 14dbc <xsh_memstat+0x2c4>
   14cdc:	e5930048 	ldr	r0, [r3, #72]	; 0x48
   14ce0:	eb001b0a 	bl	1b910 <fprintf>
   14ce4:	e2043002 	and	r3, r4, #2
   14ce8:	e6ef3073 	uxtb	r3, r3
   14cec:	e3530000 	cmp	r3, #0
   14cf0:	0a000002 	beq	14d00 <xsh_memstat+0x208>
   14cf4:	e59f009c 	ldr	r0, [pc, #156]	; 14d98 <xsh_memstat+0x2a0>
   14cf8:	e59f10c0 	ldr	r1, [pc, #192]	; 14dc0 <xsh_memstat+0x2c8>
   14cfc:	ebffff65 	bl	14a98 <printFreeList>
   14d00:	e2040008 	and	r0, r4, #8
   14d04:	e6ef0070 	uxtb	r0, r0
   14d08:	e3500000 	cmp	r0, #0
   14d0c:	08bd8ff8 	popeq	{r3, r4, r5, r6, r7, r8, r9, sl, fp, pc}
   14d10:	e3560063 	cmp	r6, #99	; 0x63
   14d14:	e59f3078 	ldr	r3, [pc, #120]	; 14d94 <xsh_memstat+0x29c>
   14d18:	8a000004 	bhi	14d30 <xsh_memstat+0x238>
   14d1c:	e3a01054 	mov	r1, #84	; 0x54
   14d20:	e0010691 	mul	r1, r1, r6
   14d24:	e7d32001 	ldrb	r2, [r3, r1]
   14d28:	e3520002 	cmp	r2, #2
   14d2c:	1a000008 	bne	14d54 <xsh_memstat+0x25c>
   14d30:	e59f2080 	ldr	r2, [pc, #128]	; 14db8 <xsh_memstat+0x2c0>
   14d34:	e3a01054 	mov	r1, #84	; 0x54
   14d38:	e5922000 	ldr	r2, [r2]
   14d3c:	e0233291 	mla	r3, r1, r2, r3
   14d40:	e59f107c 	ldr	r1, [pc, #124]	; 14dc4 <xsh_memstat+0x2cc>
   14d44:	e5930048 	ldr	r0, [r3, #72]	; 0x48
   14d48:	e1a02006 	mov	r2, r6
   14d4c:	eb001aef 	bl	1b910 <fprintf>
   14d50:	ea000004 	b	14d68 <xsh_memstat+0x270>
   14d54:	e2810038 	add	r0, r1, #56	; 0x38
   14d58:	e0831001 	add	r1, r3, r1
   14d5c:	e0830000 	add	r0, r3, r0
   14d60:	e2811014 	add	r1, r1, #20
   14d64:	ebffff4b 	bl	14a98 <printFreeList>
   14d68:	e3a00000 	mov	r0, #0
   14d6c:	e8bd8ff8 	pop	{r3, r4, r5, r6, r7, r8, r9, sl, fp, pc}
   14d70:	0001cc9c 	.word	0x0001cc9c
   14d74:	0001d494 	.word	0x0001d494
   14d78:	0001d497 	.word	0x0001d497
   14d7c:	0001d49a 	.word	0x0001d49a
   14d80:	0001d49d 	.word	0x0001d49d
   14d84:	00020708 	.word	0x00020708
   14d88:	00025240 	.word	0x00025240
   14d8c:	00010000 	.word	0x00010000
   14d90:	0002281c 	.word	0x0002281c
   14d94:	0002074c 	.word	0x0002074c
   14d98:	00020744 	.word	0x00020744
   14d9c:	0001d4a0 	.word	0x0001d4a0
   14da0:	0001c818 	.word	0x0001c818
   14da4:	0001d4be 	.word	0x0001d4be
   14da8:	0001d4d6 	.word	0x0001d4d6
   14dac:	0001d4ec 	.word	0x0001d4ec
   14db0:	0001d504 	.word	0x0001d504
   14db4:	0001d52c 	.word	0x0001d52c
   14db8:	0002281c 	.word	0x0002281c
   14dbc:	0001d549 	.word	0x0001d549
   14dc0:	0001d563 	.word	0x0001d563
   14dc4:	0001d56a 	.word	0x0001d56a

00014dc8 <xsh_uartstat>:
   14dc8:	e3500002 	cmp	r0, #2
   14dcc:	e92d40f8 	push	{r3, r4, r5, r6, r7, lr}
   14dd0:	e1a04001 	mov	r4, r1
   14dd4:	1a00001c 	bne	14e4c <xsh_uartstat+0x84>
   14dd8:	e5910004 	ldr	r0, [r1, #4]
   14ddc:	e59f11a4 	ldr	r1, [pc, #420]	; 14f88 <xsh_uartstat+0x1c0>
   14de0:	eb001bd4 	bl	1bd38 <strcmp>
   14de4:	e3500000 	cmp	r0, #0
   14de8:	1a00005c 	bne	14f60 <xsh_uartstat+0x198>
   14dec:	e5941000 	ldr	r1, [r4]
   14df0:	e59f0194 	ldr	r0, [pc, #404]	; 14f8c <xsh_uartstat+0x1c4>
   14df4:	eb001b3a 	bl	1bae4 <printf>
   14df8:	e59f0190 	ldr	r0, [pc, #400]	; 14f90 <xsh_uartstat+0x1c8>
   14dfc:	eb001b38 	bl	1bae4 <printf>
   14e00:	e59f018c 	ldr	r0, [pc, #396]	; 14f94 <xsh_uartstat+0x1cc>
   14e04:	eb001b36 	bl	1bae4 <printf>
   14e08:	e59f0188 	ldr	r0, [pc, #392]	; 14f98 <xsh_uartstat+0x1d0>
   14e0c:	eb001b34 	bl	1bae4 <printf>
   14e10:	e59f0184 	ldr	r0, [pc, #388]	; 14f9c <xsh_uartstat+0x1d4>
   14e14:	eb001b32 	bl	1bae4 <printf>
   14e18:	e59f0180 	ldr	r0, [pc, #384]	; 14fa0 <xsh_uartstat+0x1d8>
   14e1c:	eb001b30 	bl	1bae4 <printf>
   14e20:	e59f017c 	ldr	r0, [pc, #380]	; 14fa4 <xsh_uartstat+0x1dc>
   14e24:	eb001b2e 	bl	1bae4 <printf>
   14e28:	e59f0178 	ldr	r0, [pc, #376]	; 14fa8 <xsh_uartstat+0x1e0>
   14e2c:	eb001b2c 	bl	1bae4 <printf>
   14e30:	e59f0174 	ldr	r0, [pc, #372]	; 14fac <xsh_uartstat+0x1e4>
   14e34:	eb001b2a 	bl	1bae4 <printf>
   14e38:	e59f0170 	ldr	r0, [pc, #368]	; 14fb0 <xsh_uartstat+0x1e8>
   14e3c:	eb001b28 	bl	1bae4 <printf>
   14e40:	e59f016c 	ldr	r0, [pc, #364]	; 14fb4 <xsh_uartstat+0x1ec>
   14e44:	eb001b26 	bl	1bae4 <printf>
   14e48:	ea000035 	b	14f24 <xsh_uartstat+0x15c>
   14e4c:	e3500001 	cmp	r0, #1
   14e50:	ca000049 	bgt	14f7c <xsh_uartstat+0x1b4>
   14e54:	e3a00000 	mov	r0, #0
   14e58:	ebfff819 	bl	12ec4 <uartStat>
   14e5c:	e3a00000 	mov	r0, #0
   14e60:	e8bd80f8 	pop	{r3, r4, r5, r6, r7, pc}
   14e64:	e5940004 	ldr	r0, [r4, #4]
   14e68:	e59f1148 	ldr	r1, [pc, #328]	; 14fb8 <xsh_uartstat+0x1f0>
   14e6c:	eb001bb1 	bl	1bd38 <strcmp>
   14e70:	e3500000 	cmp	r0, #0
   14e74:	0a000009 	beq	14ea0 <xsh_uartstat+0xd8>
   14e78:	e59f313c 	ldr	r3, [pc, #316]	; 14fbc <xsh_uartstat+0x1f4>
   14e7c:	e59f213c 	ldr	r2, [pc, #316]	; 14fc0 <xsh_uartstat+0x1f8>
   14e80:	e5933000 	ldr	r3, [r3]
   14e84:	e3a01054 	mov	r1, #84	; 0x54
   14e88:	e0232391 	mla	r3, r1, r3, r2
   14e8c:	e59f1130 	ldr	r1, [pc, #304]	; 14fc4 <xsh_uartstat+0x1fc>
   14e90:	e5930048 	ldr	r0, [r3, #72]	; 0x48
   14e94:	e5942004 	ldr	r2, [r4, #4]
   14e98:	e5943000 	ldr	r3, [r4]
   14e9c:	ea00001f 	b	14f20 <xsh_uartstat+0x158>
   14ea0:	e5940008 	ldr	r0, [r4, #8]
   14ea4:	eb001916 	bl	1b304 <atol>
   14ea8:	e6ff5070 	uxth	r5, r0
   14eac:	e3550000 	cmp	r5, #0
   14eb0:	059f4110 	ldreq	r4, [pc, #272]	; 14fc8 <xsh_uartstat+0x200>
   14eb4:	0a00001c 	beq	14f2c <xsh_uartstat+0x164>
   14eb8:	ea00000f 	b	14efc <xsh_uartstat+0x134>
   14ebc:	e59f70f8 	ldr	r7, [pc, #248]	; 14fbc <xsh_uartstat+0x1f4>
   14ec0:	e59f50f8 	ldr	r5, [pc, #248]	; 14fc0 <xsh_uartstat+0x1f8>
   14ec4:	e5973000 	ldr	r3, [r7]
   14ec8:	e3a06054 	mov	r6, #84	; 0x54
   14ecc:	e0235396 	mla	r3, r6, r3, r5
   14ed0:	e5942000 	ldr	r2, [r4]
   14ed4:	e5930048 	ldr	r0, [r3, #72]	; 0x48
   14ed8:	e59f10ec 	ldr	r1, [pc, #236]	; 14fcc <xsh_uartstat+0x204>
   14edc:	eb001a8b 	bl	1b910 <fprintf>
   14ee0:	e5973000 	ldr	r3, [r7]
   14ee4:	e59f10e4 	ldr	r1, [pc, #228]	; 14fd0 <xsh_uartstat+0x208>
   14ee8:	e0255396 	mla	r5, r6, r3, r5
   14eec:	e5942000 	ldr	r2, [r4]
   14ef0:	e5950048 	ldr	r0, [r5, #72]	; 0x48
   14ef4:	eb001a85 	bl	1b910 <fprintf>
   14ef8:	ea000009 	b	14f24 <xsh_uartstat+0x15c>
   14efc:	e59f30b8 	ldr	r3, [pc, #184]	; 14fbc <xsh_uartstat+0x1f4>
   14f00:	e59f20b8 	ldr	r2, [pc, #184]	; 14fc0 <xsh_uartstat+0x1f8>
   14f04:	e5933000 	ldr	r3, [r3]
   14f08:	e3a01054 	mov	r1, #84	; 0x54
   14f0c:	e0232391 	mla	r3, r1, r3, r2
   14f10:	e59f10bc 	ldr	r1, [pc, #188]	; 14fd4 <xsh_uartstat+0x20c>
   14f14:	e5942000 	ldr	r2, [r4]
   14f18:	e5930048 	ldr	r0, [r3, #72]	; 0x48
   14f1c:	e1a03005 	mov	r3, r5
   14f20:	eb001a7a 	bl	1b910 <fprintf>
   14f24:	e3a00001 	mov	r0, #1
   14f28:	e8bd80f8 	pop	{r3, r4, r5, r6, r7, pc}
   14f2c:	e3a00ffa 	mov	r0, #1000	; 0x3e8
   14f30:	e5946008 	ldr	r6, [r4, #8]
   14f34:	e594500c 	ldr	r5, [r4, #12]
   14f38:	ebfff02f 	bl	10ffc <sleep>
   14f3c:	e5941008 	ldr	r1, [r4, #8]
   14f40:	e59f0090 	ldr	r0, [pc, #144]	; 14fd8 <xsh_uartstat+0x210>
   14f44:	e0661001 	rsb	r1, r6, r1
   14f48:	eb001ae5 	bl	1bae4 <printf>
   14f4c:	e594100c 	ldr	r1, [r4, #12]
   14f50:	e59f0084 	ldr	r0, [pc, #132]	; 14fdc <xsh_uartstat+0x214>
   14f54:	e0651001 	rsb	r1, r5, r1
   14f58:	eb001ae1 	bl	1bae4 <printf>
   14f5c:	eafffff2 	b	14f2c <xsh_uartstat+0x164>
   14f60:	e5940004 	ldr	r0, [r4, #4]
   14f64:	eb0018e6 	bl	1b304 <atol>
   14f68:	e6ff5070 	uxth	r5, r0
   14f6c:	e3550000 	cmp	r5, #0
   14f70:	01a00005 	moveq	r0, r5
   14f74:	0affffb7 	beq	14e58 <xsh_uartstat+0x90>
   14f78:	eaffffdf 	b	14efc <xsh_uartstat+0x134>
   14f7c:	e3500003 	cmp	r0, #3
   14f80:	1affffcd 	bne	14ebc <xsh_uartstat+0xf4>
   14f84:	eaffffb6 	b	14e64 <xsh_uartstat+0x9c>
   14f88:	0001cc9c 	.word	0x0001cc9c
   14f8c:	0001d581 	.word	0x0001d581
   14f90:	0001ccc7 	.word	0x0001ccc7
   14f94:	0001d59c 	.word	0x0001d59c
   14f98:	0001d5ce 	.word	0x0001d5ce
   14f9c:	0001d605 	.word	0x0001d605
   14fa0:	0001ccec 	.word	0x0001ccec
   14fa4:	0001d611 	.word	0x0001d611
   14fa8:	0001d648 	.word	0x0001d648
   14fac:	0001d656 	.word	0x0001d656
   14fb0:	0001d662 	.word	0x0001d662
   14fb4:	0001d2cb 	.word	0x0001d2cb
   14fb8:	0001d494 	.word	0x0001d494
   14fbc:	0002281c 	.word	0x0002281c
   14fc0:	0002074c 	.word	0x0002074c
   14fc4:	0001d694 	.word	0x0001d694
   14fc8:	0002482c 	.word	0x0002482c
   14fcc:	0001cca3 	.word	0x0001cca3
   14fd0:	0001cd24 	.word	0x0001cd24
   14fd4:	0001d6ba 	.word	0x0001d6ba
   14fd8:	0001d6d1 	.word	0x0001d6d1
   14fdc:	0001d6e5 	.word	0x0001d6e5

00014fe0 <xsh_test>:
   14fe0:	e3a00000 	mov	r0, #0
   14fe4:	e12fff1e 	bx	lr

00014fe8 <testItem>:
   14fe8:	e92d40f7 	push	{r0, r1, r2, r4, r5, r6, r7, lr}
   14fec:	e2504000 	subs	r4, r0, #0
   14ff0:	e1a07001 	mov	r7, r1
   14ff4:	ba00002d 	blt	150b0 <testItem+0xc8>
   14ff8:	e59f30e4 	ldr	r3, [pc, #228]	; 150e4 <testItem+0xfc>
   14ffc:	e5933000 	ldr	r3, [r3]
   15000:	e1540003 	cmp	r4, r3
   15004:	aa000029 	bge	150b0 <testItem+0xc8>
   15008:	e3a02001 	mov	r2, #1
   1500c:	e88d0084 	stm	sp, {r2, r7}
   15010:	e59f60d0 	ldr	r6, [pc, #208]	; 150e8 <testItem+0x100>
   15014:	e3a01801 	mov	r1, #65536	; 0x10000
   15018:	e0863184 	add	r3, r6, r4, lsl #3
   1501c:	e5930004 	ldr	r0, [r3, #4]
   15020:	e3a0201e 	mov	r2, #30
   15024:	e7963184 	ldr	r3, [r6, r4, lsl #3]
   15028:	ebffedbb 	bl	1071c <create>
   1502c:	e3700001 	cmn	r0, #1
   15030:	e1a05000 	mov	r5, r0
   15034:	0a000028 	beq	150dc <testItem+0xf4>
   15038:	e59fc0ac 	ldr	ip, [pc, #172]	; 150ec <testItem+0x104>
   1503c:	e3570000 	cmp	r7, #0
   15040:	e59f30a8 	ldr	r3, [pc, #168]	; 150f0 <testItem+0x108>
   15044:	e2841001 	add	r1, r4, #1
   15048:	e7962184 	ldr	r2, [r6, r4, lsl #3]
   1504c:	01a0300c 	moveq	r3, ip
   15050:	e59f009c 	ldr	r0, [pc, #156]	; 150f4 <testItem+0x10c>
   15054:	eb001aa2 	bl	1bae4 <printf>
   15058:	e59f3098 	ldr	r3, [pc, #152]	; 150f8 <testItem+0x110>
   1505c:	e3a01054 	mov	r1, #84	; 0x54
   15060:	e5932000 	ldr	r2, [r3]
   15064:	e59f3090 	ldr	r3, [pc, #144]	; 150fc <testItem+0x114>
   15068:	e0223291 	mla	r2, r1, r2, r3
   1506c:	e0233591 	mla	r3, r1, r5, r3
   15070:	e5920040 	ldr	r0, [r2, #64]	; 0x40
   15074:	e5830040 	str	r0, [r3, #64]	; 0x40
   15078:	e5921044 	ldr	r1, [r2, #68]	; 0x44
   1507c:	e5831044 	str	r1, [r3, #68]	; 0x44
   15080:	e5922048 	ldr	r2, [r2, #72]	; 0x48
   15084:	e5832048 	str	r2, [r3, #72]	; 0x48
   15088:	ebfff272 	bl	11a58 <recvclr>
   1508c:	e3700004 	cmn	r0, #4
   15090:	1afffffc 	bne	15088 <testItem+0xa0>
   15094:	e1a00005 	mov	r0, r5
   15098:	e3a01001 	mov	r1, #1
   1509c:	ebffee48 	bl	109c4 <ready>
   150a0:	ebfff254 	bl	119f8 <receive>
   150a4:	e1500005 	cmp	r0, r5
   150a8:	1afffffc 	bne	150a0 <testItem+0xb8>
   150ac:	ea00000a 	b	150dc <testItem+0xf4>
   150b0:	e59f3040 	ldr	r3, [pc, #64]	; 150f8 <testItem+0x110>
   150b4:	e59f2040 	ldr	r2, [pc, #64]	; 150fc <testItem+0x114>
   150b8:	e5933000 	ldr	r3, [r3]
   150bc:	e3a01054 	mov	r1, #84	; 0x54
   150c0:	e0232391 	mla	r3, r1, r3, r2
   150c4:	e59f1034 	ldr	r1, [pc, #52]	; 15100 <testItem+0x118>
   150c8:	e5930048 	ldr	r0, [r3, #72]	; 0x48
   150cc:	e2842001 	add	r2, r4, #1
   150d0:	e28dd00c 	add	sp, sp, #12
   150d4:	e8bd40f0 	pop	{r4, r5, r6, r7, lr}
   150d8:	ea001a0c 	b	1b910 <fprintf>
   150dc:	e28dd00c 	add	sp, sp, #12
   150e0:	e8bd80f0 	pop	{r4, r5, r6, r7, pc}
   150e4:	00020004 	.word	0x00020004
   150e8:	00020008 	.word	0x00020008
   150ec:	0001d661 	.word	0x0001d661
   150f0:	0001d561 	.word	0x0001d561
   150f4:	0001d6f8 	.word	0x0001d6f8
   150f8:	0002281c 	.word	0x0002281c
   150fc:	0002074c 	.word	0x0002074c
   15100:	0001d70d 	.word	0x0001d70d

00015104 <xsh_testsuite>:
   15104:	e92d4ff8 	push	{r3, r4, r5, r6, r7, r8, r9, sl, fp, lr}
   15108:	e3a07001 	mov	r7, #1
   1510c:	e1a0a000 	mov	sl, r0
   15110:	e1a08001 	mov	r8, r1
   15114:	e1a04001 	mov	r4, r1
   15118:	e3a05000 	mov	r5, #0
   1511c:	e1a06007 	mov	r6, r7
   15120:	ea000032 	b	151f0 <xsh_testsuite+0xec>
   15124:	e5940004 	ldr	r0, [r4, #4]
   15128:	e59f1104 	ldr	r1, [pc, #260]	; 15234 <xsh_testsuite+0x130>
   1512c:	eb001b01 	bl	1bd38 <strcmp>
   15130:	e250b000 	subs	fp, r0, #0
   15134:	e1a09004 	mov	r9, r4
   15138:	1a00001d 	bne	151b4 <xsh_testsuite+0xb0>
   1513c:	e5981000 	ldr	r1, [r8]
   15140:	e59f00f0 	ldr	r0, [pc, #240]	; 15238 <xsh_testsuite+0x134>
   15144:	eb001a66 	bl	1bae4 <printf>
   15148:	e59f00ec 	ldr	r0, [pc, #236]	; 1523c <xsh_testsuite+0x138>
   1514c:	eb001a64 	bl	1bae4 <printf>
   15150:	e59f00e8 	ldr	r0, [pc, #232]	; 15240 <xsh_testsuite+0x13c>
   15154:	eb001a62 	bl	1bae4 <printf>
   15158:	e59f00e4 	ldr	r0, [pc, #228]	; 15244 <xsh_testsuite+0x140>
   1515c:	eb001a60 	bl	1bae4 <printf>
   15160:	e59f00e0 	ldr	r0, [pc, #224]	; 15248 <xsh_testsuite+0x144>
   15164:	eb001a5e 	bl	1bae4 <printf>
   15168:	e59f00dc 	ldr	r0, [pc, #220]	; 1524c <xsh_testsuite+0x148>
   1516c:	eb001a5c 	bl	1bae4 <printf>
   15170:	e59f00d8 	ldr	r0, [pc, #216]	; 15250 <xsh_testsuite+0x14c>
   15174:	eb001a5a 	bl	1bae4 <printf>
   15178:	e59f50d4 	ldr	r5, [pc, #212]	; 15254 <xsh_testsuite+0x150>
   1517c:	e1a0300b 	mov	r3, fp
   15180:	e59f60d0 	ldr	r6, [pc, #208]	; 15258 <xsh_testsuite+0x154>
   15184:	ea000005 	b	151a0 <xsh_testsuite+0x9c>
   15188:	e2834001 	add	r4, r3, #1
   1518c:	e7962183 	ldr	r2, [r6, r3, lsl #3]
   15190:	e59f00c4 	ldr	r0, [pc, #196]	; 1525c <xsh_testsuite+0x158>
   15194:	e1a01004 	mov	r1, r4
   15198:	eb001a51 	bl	1bae4 <printf>
   1519c:	e1a03004 	mov	r3, r4
   151a0:	e5952000 	ldr	r2, [r5]
   151a4:	e1530002 	cmp	r3, r2
   151a8:	bafffff6 	blt	15188 <xsh_testsuite+0x84>
   151ac:	e3a00001 	mov	r0, #1
   151b0:	e8bd8ff8 	pop	{r3, r4, r5, r6, r7, r8, r9, sl, fp, pc}
   151b4:	e5990004 	ldr	r0, [r9, #4]
   151b8:	e59f10a0 	ldr	r1, [pc, #160]	; 15260 <xsh_testsuite+0x15c>
   151bc:	eb001add 	bl	1bd38 <strcmp>
   151c0:	e3500000 	cmp	r0, #0
   151c4:	e2844004 	add	r4, r4, #4
   151c8:	03a05001 	moveq	r5, #1
   151cc:	0a000006 	beq	151ec <xsh_testsuite+0xe8>
   151d0:	e5940000 	ldr	r0, [r4]
   151d4:	eb001849 	bl	1b300 <atoi>
   151d8:	e1a01005 	mov	r1, r5
   151dc:	e2400001 	sub	r0, r0, #1
   151e0:	ebffff80 	bl	14fe8 <testItem>
   151e4:	e3a07000 	mov	r7, #0
   151e8:	eaffffff 	b	151ec <xsh_testsuite+0xe8>
   151ec:	e2866001 	add	r6, r6, #1
   151f0:	e156000a 	cmp	r6, sl
   151f4:	baffffca 	blt	15124 <xsh_testsuite+0x20>
   151f8:	e3570001 	cmp	r7, #1
   151fc:	0a000006 	beq	1521c <xsh_testsuite+0x118>
   15200:	e3a00000 	mov	r0, #0
   15204:	e8bd8ff8 	pop	{r3, r4, r5, r6, r7, r8, r9, sl, fp, pc}
   15208:	e1a00004 	mov	r0, r4
   1520c:	e1a01005 	mov	r1, r5
   15210:	ebffff74 	bl	14fe8 <testItem>
   15214:	e2844001 	add	r4, r4, #1
   15218:	ea000001 	b	15224 <xsh_testsuite+0x120>
   1521c:	e59f6030 	ldr	r6, [pc, #48]	; 15254 <xsh_testsuite+0x150>
   15220:	e3a04000 	mov	r4, #0
   15224:	e5963000 	ldr	r3, [r6]
   15228:	e1540003 	cmp	r4, r3
   1522c:	bafffff5 	blt	15208 <xsh_testsuite+0x104>
   15230:	eafffff2 	b	15200 <xsh_testsuite+0xfc>
   15234:	0001cc9c 	.word	0x0001cc9c
   15238:	0001d72c 	.word	0x0001d72c
   1523c:	0001ccc7 	.word	0x0001ccc7
   15240:	0001d742 	.word	0x0001d742
   15244:	0001ccec 	.word	0x0001ccec
   15248:	0001d2cb 	.word	0x0001d2cb
   1524c:	0001d76c 	.word	0x0001d76c
   15250:	0001d7a2 	.word	0x0001d7a2
   15254:	00020004 	.word	0x00020004
   15258:	00020008 	.word	0x00020008
   1525c:	0001d7bc 	.word	0x0001d7bc
   15260:	0001d7c5 	.word	0x0001d7c5

00015264 <testPass>:
   15264:	e3500001 	cmp	r0, #1
   15268:	112fff1e 	bxne	lr
   1526c:	e59f0000 	ldr	r0, [pc]	; 15274 <testPass+0x10>
   15270:	ea001a1b 	b	1bae4 <printf>
   15274:	0001d7c8 	.word	0x0001d7c8

00015278 <testFail>:
   15278:	e3500001 	cmp	r0, #1
   1527c:	112fff1e 	bxne	lr
   15280:	e59f0000 	ldr	r0, [pc]	; 15288 <testFail+0x10>
   15284:	ea001a16 	b	1bae4 <printf>
   15288:	0001d7e6 	.word	0x0001d7e6

0001528c <testSkip>:
   1528c:	e3500001 	cmp	r0, #1
   15290:	112fff1e 	bxne	lr
   15294:	e59f0000 	ldr	r0, [pc]	; 1529c <testSkip+0x10>
   15298:	ea001a11 	b	1bae4 <printf>
   1529c:	0001d804 	.word	0x0001d804

000152a0 <testPrint>:
   152a0:	e3500001 	cmp	r0, #1
   152a4:	112fff1e 	bxne	lr
   152a8:	e59f0000 	ldr	r0, [pc]	; 152b0 <testPrint+0x10>
   152ac:	ea001a0c 	b	1bae4 <printf>
   152b0:	0001d822 	.word	0x0001d822

000152b4 <test_arp>:
   152b4:	e92d4008 	push	{r3, lr}
   152b8:	e3a00001 	mov	r0, #1
   152bc:	e59f1008 	ldr	r1, [pc, #8]	; 152cc <test_arp+0x18>
   152c0:	ebfffff1 	bl	1528c <testSkip>
   152c4:	e3a00001 	mov	r0, #1
   152c8:	e8bd8008 	pop	{r3, pc}
   152cc:	0001d661 	.word	0x0001d661

000152d0 <producer>:
   152d0:	e92d4038 	push	{r3, r4, r5, lr}
   152d4:	e1a05000 	mov	r5, r0
   152d8:	e3a04000 	mov	r4, #0
   152dc:	e1a01004 	mov	r1, r4
   152e0:	e1a00005 	mov	r0, r5
   152e4:	e2844001 	add	r4, r4, #1
   152e8:	ebfff8c9 	bl	13614 <mailboxSend>
   152ec:	e3540004 	cmp	r4, #4
   152f0:	1afffff9 	bne	152dc <producer+0xc>
   152f4:	e3a00001 	mov	r0, #1
   152f8:	e8bd8038 	pop	{r3, r4, r5, pc}

000152fc <consumer>:
   152fc:	e92d4010 	push	{r4, lr}
   15300:	e1a04000 	mov	r4, r0
   15304:	ebfff89c 	bl	1357c <mailboxReceive>
   15308:	e1a00004 	mov	r0, r4
   1530c:	ebfff89a 	bl	1357c <mailboxReceive>
   15310:	e1a00004 	mov	r0, r4
   15314:	ebfff898 	bl	1357c <mailboxReceive>
   15318:	e3a00001 	mov	r0, #1
   1531c:	e8bd8010 	pop	{r4, pc}

00015320 <test_mailbox>:
   15320:	e92d45f0 	push	{r4, r5, r6, r7, r8, sl, lr}
   15324:	e59f1414 	ldr	r1, [pc, #1044]	; 15740 <test_mailbox+0x420>
   15328:	e24dd04c 	sub	sp, sp, #76	; 0x4c
   1532c:	e1a04000 	mov	r4, r0
   15330:	ebffffda 	bl	152a0 <testPrint>
   15334:	e3a00001 	mov	r0, #1
   15338:	ebfff81b 	bl	133ac <mailboxAlloc>
   1533c:	e59f3400 	ldr	r3, [pc, #1024]	; 15744 <test_mailbox+0x424>
   15340:	e3700001 	cmn	r0, #1
   15344:	e3a0201c 	mov	r2, #28
   15348:	e1a07000 	mov	r7, r0
   1534c:	e0233092 	mla	r3, r2, r0, r3
   15350:	059f13f0 	ldreq	r1, [pc, #1008]	; 15748 <test_mailbox+0x428>
   15354:	01a00004 	moveq	r0, r4
   15358:	0a000004 	beq	15370 <test_mailbox+0x50>
   1535c:	e5935008 	ldr	r5, [r3, #8]
   15360:	e1a00004 	mov	r0, r4
   15364:	e3550001 	cmp	r5, #1
   15368:	0a000003 	beq	1537c <test_mailbox+0x5c>
   1536c:	e59f13d8 	ldr	r1, [pc, #984]	; 1574c <test_mailbox+0x42c>
   15370:	ebffffc0 	bl	15278 <testFail>
   15374:	e3a05000 	mov	r5, #0
   15378:	ea000001 	b	15384 <test_mailbox+0x64>
   1537c:	e59f13cc 	ldr	r1, [pc, #972]	; 15750 <test_mailbox+0x430>
   15380:	ebffffb7 	bl	15264 <testPass>
   15384:	e59f13c8 	ldr	r1, [pc, #968]	; 15754 <test_mailbox+0x434>
   15388:	e1a00004 	mov	r0, r4
   1538c:	ebffffc3 	bl	152a0 <testPrint>
   15390:	e3a00d06 	mov	r0, #384	; 0x180
   15394:	ebfff804 	bl	133ac <mailboxAlloc>
   15398:	e59f33a4 	ldr	r3, [pc, #932]	; 15744 <test_mailbox+0x424>
   1539c:	e3700001 	cmn	r0, #1
   153a0:	e3a0201c 	mov	r2, #28
   153a4:	e1a06000 	mov	r6, r0
   153a8:	e0233092 	mla	r3, r2, r0, r3
   153ac:	059f13a4 	ldreq	r1, [pc, #932]	; 15758 <test_mailbox+0x438>
   153b0:	01a00004 	moveq	r0, r4
   153b4:	0a000004 	beq	153cc <test_mailbox+0xac>
   153b8:	e5933008 	ldr	r3, [r3, #8]
   153bc:	e1a00004 	mov	r0, r4
   153c0:	e3530d06 	cmp	r3, #384	; 0x180
   153c4:	0a000003 	beq	153d8 <test_mailbox+0xb8>
   153c8:	e59f137c 	ldr	r1, [pc, #892]	; 1574c <test_mailbox+0x42c>
   153cc:	ebffffa9 	bl	15278 <testFail>
   153d0:	e3a05000 	mov	r5, #0
   153d4:	ea000001 	b	153e0 <test_mailbox+0xc0>
   153d8:	e59f1370 	ldr	r1, [pc, #880]	; 15750 <test_mailbox+0x430>
   153dc:	ebffffa0 	bl	15264 <testPass>
   153e0:	e1a00004 	mov	r0, r4
   153e4:	e59f1370 	ldr	r1, [pc, #880]	; 1575c <test_mailbox+0x43c>
   153e8:	ebffffac 	bl	152a0 <testPrint>
   153ec:	e1a00007 	mov	r0, r7
   153f0:	ebfff82d 	bl	134ac <mailboxFree>
   153f4:	e3700001 	cmn	r0, #1
   153f8:	1a000004 	bne	15410 <test_mailbox+0xf0>
   153fc:	e1a00004 	mov	r0, r4
   15400:	e59f1358 	ldr	r1, [pc, #856]	; 15760 <test_mailbox+0x440>
   15404:	ebffff9b 	bl	15278 <testFail>
   15408:	e3a05000 	mov	r5, #0
   1540c:	ea000006 	b	1542c <test_mailbox+0x10c>
   15410:	e1a00006 	mov	r0, r6
   15414:	ebfff824 	bl	134ac <mailboxFree>
   15418:	e3700001 	cmn	r0, #1
   1541c:	0afffff6 	beq	153fc <test_mailbox+0xdc>
   15420:	e1a00004 	mov	r0, r4
   15424:	e59f1324 	ldr	r1, [pc, #804]	; 15750 <test_mailbox+0x430>
   15428:	ebffff8d 	bl	15264 <testPass>
   1542c:	e1a00004 	mov	r0, r4
   15430:	e59f132c 	ldr	r1, [pc, #812]	; 15764 <test_mailbox+0x444>
   15434:	ebffff99 	bl	152a0 <testPrint>
   15438:	ebffeb38 	bl	10120 <disable>
   1543c:	e3a06000 	mov	r6, #0
   15440:	e1a0a000 	mov	sl, r0
   15444:	e3a00001 	mov	r0, #1
   15448:	ebfff7d7 	bl	133ac <mailboxAlloc>
   1544c:	e28d3008 	add	r3, sp, #8
   15450:	e3700001 	cmn	r0, #1
   15454:	e7830106 	str	r0, [r3, r6, lsl #2]
   15458:	0a000002 	beq	15468 <test_mailbox+0x148>
   1545c:	e2866001 	add	r6, r6, #1
   15460:	e356000f 	cmp	r6, #15
   15464:	1afffff6 	bne	15444 <test_mailbox+0x124>
   15468:	e59f32d4 	ldr	r3, [pc, #724]	; 15744 <test_mailbox+0x424>
   1546c:	e3a07000 	mov	r7, #0
   15470:	e5d38014 	ldrb	r8, [r3, #20]
   15474:	e3580000 	cmp	r8, #0
   15478:	1a000003 	bne	1548c <test_mailbox+0x16c>
   1547c:	e1a00004 	mov	r0, r4
   15480:	e59f12e0 	ldr	r1, [pc, #736]	; 15768 <test_mailbox+0x448>
   15484:	ebffff7b 	bl	15278 <testFail>
   15488:	ea00000a 	b	154b8 <test_mailbox+0x198>
   1548c:	e2877001 	add	r7, r7, #1
   15490:	e357000f 	cmp	r7, #15
   15494:	e283301c 	add	r3, r3, #28
   15498:	1afffff4 	bne	15470 <test_mailbox+0x150>
   1549c:	ea00009e 	b	1571c <test_mailbox+0x3fc>
   154a0:	e1a00004 	mov	r0, r4
   154a4:	e59f12c0 	ldr	r1, [pc, #704]	; 1576c <test_mailbox+0x44c>
   154a8:	ebffff72 	bl	15278 <testFail>
   154ac:	e1a00008 	mov	r0, r8
   154b0:	ebfff7fd 	bl	134ac <mailboxFree>
   154b4:	e3a0700e 	mov	r7, #14
   154b8:	e3a05000 	mov	r5, #0
   154bc:	e1a0000a 	mov	r0, sl
   154c0:	ebffeb19 	bl	1012c <restore>
   154c4:	e3a08000 	mov	r8, #0
   154c8:	ea00000a 	b	154f8 <test_mailbox+0x1d8>
   154cc:	e28d3008 	add	r3, sp, #8
   154d0:	e7930108 	ldr	r0, [r3, r8, lsl #2]
   154d4:	ebfff7f4 	bl	134ac <mailboxFree>
   154d8:	e3700001 	cmn	r0, #1
   154dc:	1a000004 	bne	154f4 <test_mailbox+0x1d4>
   154e0:	e1a00004 	mov	r0, r4
   154e4:	e59f1284 	ldr	r1, [pc, #644]	; 15770 <test_mailbox+0x450>
   154e8:	ebffff62 	bl	15278 <testFail>
   154ec:	e3a05000 	mov	r5, #0
   154f0:	ea000002 	b	15500 <test_mailbox+0x1e0>
   154f4:	e2888001 	add	r8, r8, #1
   154f8:	e1580006 	cmp	r8, r6
   154fc:	bafffff2 	blt	154cc <test_mailbox+0x1ac>
   15500:	e1580006 	cmp	r8, r6
   15504:	0357000f 	cmpeq	r7, #15
   15508:	1a000002 	bne	15518 <test_mailbox+0x1f8>
   1550c:	e1a00004 	mov	r0, r4
   15510:	e59f1238 	ldr	r1, [pc, #568]	; 15750 <test_mailbox+0x430>
   15514:	ebffff52 	bl	15264 <testPass>
   15518:	e59f1254 	ldr	r1, [pc, #596]	; 15774 <test_mailbox+0x454>
   1551c:	e1a00004 	mov	r0, r4
   15520:	ebffff5e 	bl	152a0 <testPrint>
   15524:	e3a00003 	mov	r0, #3
   15528:	ebfff79f 	bl	133ac <mailboxAlloc>
   1552c:	e3a01001 	mov	r1, #1
   15530:	e1a06000 	mov	r6, r0
   15534:	ebfff836 	bl	13614 <mailboxSend>
   15538:	e3700001 	cmn	r0, #1
   1553c:	1a000004 	bne	15554 <test_mailbox+0x234>
   15540:	e1a00004 	mov	r0, r4
   15544:	e59f122c 	ldr	r1, [pc, #556]	; 15778 <test_mailbox+0x458>
   15548:	ebffff4a 	bl	15278 <testFail>
   1554c:	e3a05000 	mov	r5, #0
   15550:	ea00000c 	b	15588 <test_mailbox+0x268>
   15554:	e1a00006 	mov	r0, r6
   15558:	e3a01002 	mov	r1, #2
   1555c:	ebfff82c 	bl	13614 <mailboxSend>
   15560:	e3700001 	cmn	r0, #1
   15564:	0afffff5 	beq	15540 <test_mailbox+0x220>
   15568:	e1a00006 	mov	r0, r6
   1556c:	e3a01003 	mov	r1, #3
   15570:	ebfff827 	bl	13614 <mailboxSend>
   15574:	e3700001 	cmn	r0, #1
   15578:	0afffff0 	beq	15540 <test_mailbox+0x220>
   1557c:	e1a00004 	mov	r0, r4
   15580:	e59f11c8 	ldr	r1, [pc, #456]	; 15750 <test_mailbox+0x430>
   15584:	ebffff36 	bl	15264 <testPass>
   15588:	e1a00004 	mov	r0, r4
   1558c:	e59f11e8 	ldr	r1, [pc, #488]	; 1577c <test_mailbox+0x45c>
   15590:	ebffff42 	bl	152a0 <testPrint>
   15594:	e1a00006 	mov	r0, r6
   15598:	ebfff7f7 	bl	1357c <mailboxReceive>
   1559c:	e3500001 	cmp	r0, #1
   155a0:	0a000004 	beq	155b8 <test_mailbox+0x298>
   155a4:	e1a00004 	mov	r0, r4
   155a8:	e59f11d0 	ldr	r1, [pc, #464]	; 15780 <test_mailbox+0x460>
   155ac:	ebffff31 	bl	15278 <testFail>
   155b0:	e3a05000 	mov	r5, #0
   155b4:	ea00000a 	b	155e4 <test_mailbox+0x2c4>
   155b8:	e1a00006 	mov	r0, r6
   155bc:	ebfff7ee 	bl	1357c <mailboxReceive>
   155c0:	e3500002 	cmp	r0, #2
   155c4:	1afffff6 	bne	155a4 <test_mailbox+0x284>
   155c8:	e1a00006 	mov	r0, r6
   155cc:	ebfff7ea 	bl	1357c <mailboxReceive>
   155d0:	e3500003 	cmp	r0, #3
   155d4:	1afffff2 	bne	155a4 <test_mailbox+0x284>
   155d8:	e1a00004 	mov	r0, r4
   155dc:	e59f116c 	ldr	r1, [pc, #364]	; 15750 <test_mailbox+0x430>
   155e0:	ebffff1f 	bl	15264 <testPass>
   155e4:	e1a00006 	mov	r0, r6
   155e8:	ebfff7af 	bl	134ac <mailboxFree>
   155ec:	e59f1190 	ldr	r1, [pc, #400]	; 15784 <test_mailbox+0x464>
   155f0:	e1a00004 	mov	r0, r4
   155f4:	ebffff29 	bl	152a0 <testPrint>
   155f8:	e3a00003 	mov	r0, #3
   155fc:	ebfff76a 	bl	133ac <mailboxAlloc>
   15600:	e1a06000 	mov	r6, r0
   15604:	ebffedd6 	bl	10d64 <gettid>
   15608:	ebffed46 	bl	10b28 <getprio>
   1560c:	e3a0a001 	mov	sl, #1
   15610:	e2807001 	add	r7, r0, #1
   15614:	e1a02007 	mov	r2, r7
   15618:	e59f3168 	ldr	r3, [pc, #360]	; 15788 <test_mailbox+0x468>
   1561c:	e3a01801 	mov	r1, #65536	; 0x10000
   15620:	e58da000 	str	sl, [sp]
   15624:	e58d6004 	str	r6, [sp, #4]
   15628:	e59f015c 	ldr	r0, [pc, #348]	; 1578c <test_mailbox+0x46c>
   1562c:	ebffec3a 	bl	1071c <create>
   15630:	e1a0100a 	mov	r1, sl
   15634:	e1a08000 	mov	r8, r0
   15638:	ebffece1 	bl	109c4 <ready>
   1563c:	e3a02054 	mov	r2, #84	; 0x54
   15640:	e0020892 	mul	r2, r2, r8
   15644:	e59f3144 	ldr	r3, [pc, #324]	; 15790 <test_mailbox+0x470>
   15648:	e1a00004 	mov	r0, r4
   1564c:	e7d23003 	ldrb	r3, [r2, r3]
   15650:	e3530007 	cmp	r3, #7
   15654:	0a000003 	beq	15668 <test_mailbox+0x348>
   15658:	e59f1134 	ldr	r1, [pc, #308]	; 15794 <test_mailbox+0x474>
   1565c:	ebffff05 	bl	15278 <testFail>
   15660:	e3a05000 	mov	r5, #0
   15664:	ea000001 	b	15670 <test_mailbox+0x350>
   15668:	e59f10e0 	ldr	r1, [pc, #224]	; 15750 <test_mailbox+0x430>
   1566c:	ebfffefc 	bl	15264 <testPass>
   15670:	e1a00008 	mov	r0, r8
   15674:	ebffec89 	bl	108a0 <kill>
   15678:	e3a08001 	mov	r8, #1
   1567c:	e1a00004 	mov	r0, r4
   15680:	e59f1110 	ldr	r1, [pc, #272]	; 15798 <test_mailbox+0x478>
   15684:	ebffff05 	bl	152a0 <testPrint>
   15688:	e1a02007 	mov	r2, r7
   1568c:	e59f3108 	ldr	r3, [pc, #264]	; 1579c <test_mailbox+0x47c>
   15690:	e3a01801 	mov	r1, #65536	; 0x10000
   15694:	e58d8000 	str	r8, [sp]
   15698:	e58d6004 	str	r6, [sp, #4]
   1569c:	e59f00fc 	ldr	r0, [pc, #252]	; 157a0 <test_mailbox+0x480>
   156a0:	ebffec1d 	bl	1071c <create>
   156a4:	e1a01008 	mov	r1, r8
   156a8:	e1a07000 	mov	r7, r0
   156ac:	ebffecc4 	bl	109c4 <ready>
   156b0:	e3a02054 	mov	r2, #84	; 0x54
   156b4:	e0020792 	mul	r2, r2, r7
   156b8:	e59f30d0 	ldr	r3, [pc, #208]	; 15790 <test_mailbox+0x470>
   156bc:	e1a00004 	mov	r0, r4
   156c0:	e7d23003 	ldrb	r3, [r2, r3]
   156c4:	e3530007 	cmp	r3, #7
   156c8:	0a000003 	beq	156dc <test_mailbox+0x3bc>
   156cc:	e59f10d0 	ldr	r1, [pc, #208]	; 157a4 <test_mailbox+0x484>
   156d0:	ebfffee8 	bl	15278 <testFail>
   156d4:	e3a05000 	mov	r5, #0
   156d8:	ea000001 	b	156e4 <test_mailbox+0x3c4>
   156dc:	e59f106c 	ldr	r1, [pc, #108]	; 15750 <test_mailbox+0x430>
   156e0:	ebfffedf 	bl	15264 <testPass>
   156e4:	e1a00007 	mov	r0, r7
   156e8:	ebffec6c 	bl	108a0 <kill>
   156ec:	e1a00006 	mov	r0, r6
   156f0:	ebfff76d 	bl	134ac <mailboxFree>
   156f4:	e3550001 	cmp	r5, #1
   156f8:	1a000003 	bne	1570c <test_mailbox+0x3ec>
   156fc:	e1a00005 	mov	r0, r5
   15700:	e59f1048 	ldr	r1, [pc, #72]	; 15750 <test_mailbox+0x430>
   15704:	ebfffed6 	bl	15264 <testPass>
   15708:	ea000009 	b	15734 <test_mailbox+0x414>
   1570c:	e3a00001 	mov	r0, #1
   15710:	e59f1038 	ldr	r1, [pc, #56]	; 15750 <test_mailbox+0x430>
   15714:	ebfffed7 	bl	15278 <testFail>
   15718:	ea000005 	b	15734 <test_mailbox+0x414>
   1571c:	e3a00001 	mov	r0, #1
   15720:	ebfff721 	bl	133ac <mailboxAlloc>
   15724:	e3700001 	cmn	r0, #1
   15728:	e1a08000 	mov	r8, r0
   1572c:	1affff5b 	bne	154a0 <test_mailbox+0x180>
   15730:	eaffff61 	b	154bc <test_mailbox+0x19c>
   15734:	e3a00001 	mov	r0, #1
   15738:	e28dd04c 	add	sp, sp, #76	; 0x4c
   1573c:	e8bd85f0 	pop	{r4, r5, r6, r7, r8, sl, pc}
   15740:	0001d9e7 	.word	0x0001d9e7
   15744:	00025070 	.word	0x00025070
   15748:	0001d9fe 	.word	0x0001d9fe
   1574c:	0001da29 	.word	0x0001da29
   15750:	0001d661 	.word	0x0001d661
   15754:	0001da55 	.word	0x0001da55
   15758:	0001da6c 	.word	0x0001da6c
   1575c:	0001da97 	.word	0x0001da97
   15760:	0001daa6 	.word	0x0001daa6
   15764:	0001dac8 	.word	0x0001dac8
   15768:	0001dadf 	.word	0x0001dadf
   1576c:	0001db00 	.word	0x0001db00
   15770:	0001db13 	.word	0x0001db13
   15774:	0001db2c 	.word	0x0001db2c
   15778:	0001db3d 	.word	0x0001db3d
   1577c:	0001db64 	.word	0x0001db64
   15780:	0001db77 	.word	0x0001db77
   15784:	0001dba2 	.word	0x0001dba2
   15788:	0001dbb8 	.word	0x0001dbb8
   1578c:	000152fc 	.word	0x000152fc
   15790:	0002074c 	.word	0x0002074c
   15794:	0001dbc1 	.word	0x0001dbc1
   15798:	0001dbe8 	.word	0x0001dbe8
   1579c:	0001dbfd 	.word	0x0001dbfd
   157a0:	000152d0 	.word	0x000152d0
   157a4:	0001dc06 	.word	0x0001dc06

000157a8 <test_semaphore3>:
   157a8:	e92d47f0 	push	{r4, r5, r6, r7, r8, r9, sl, lr}
   157ac:	e3a03000 	mov	r3, #0
   157b0:	e24dd048 	sub	sp, sp, #72	; 0x48
   157b4:	e59f11f8 	ldr	r1, [pc, #504]	; 159b4 <test_semaphore3+0x20c>
   157b8:	e1a05000 	mov	r5, r0
   157bc:	e5cd3013 	strb	r3, [sp, #19]
   157c0:	ebfffeb6 	bl	152a0 <testPrint>
   157c4:	e3a00001 	mov	r0, #1
   157c8:	ebffee6b 	bl	1117c <semcreate>
   157cc:	e3500063 	cmp	r0, #99	; 0x63
   157d0:	e1a04000 	mov	r4, r0
   157d4:	8a000005 	bhi	157f0 <test_semaphore3+0x48>
   157d8:	e3a0300c 	mov	r3, #12
   157dc:	e0030093 	mul	r3, r3, r0
   157e0:	e59f21d0 	ldr	r2, [pc, #464]	; 159b8 <test_semaphore3+0x210>
   157e4:	e7d23003 	ldrb	r3, [r2, r3]
   157e8:	e3530001 	cmp	r3, #1
   157ec:	1a000008 	bne	15814 <test_semaphore3+0x6c>
   157f0:	e59f11c4 	ldr	r1, [pc, #452]	; 159bc <test_semaphore3+0x214>
   157f4:	e1a02004 	mov	r2, r4
   157f8:	e28d0014 	add	r0, sp, #20
   157fc:	eb001911 	bl	1bc48 <sprintf>
   15800:	e1a00005 	mov	r0, r5
   15804:	e28d1014 	add	r1, sp, #20
   15808:	ebfffe9a 	bl	15278 <testFail>
   1580c:	e3a06000 	mov	r6, #0
   15810:	ea000009 	b	1583c <test_semaphore3+0x94>
   15814:	e3a01001 	mov	r1, #1
   15818:	eb000316 	bl	16478 <test_checkSemCount>
   1581c:	e3500000 	cmp	r0, #0
   15820:	01a06000 	moveq	r6, r0
   15824:	0a000004 	beq	1583c <test_semaphore3+0x94>
   15828:	e1a00005 	mov	r0, r5
   1582c:	e59f118c 	ldr	r1, [pc, #396]	; 159c0 <test_semaphore3+0x218>
   15830:	ebfffe8b 	bl	15264 <testPass>
   15834:	e3a06001 	mov	r6, #1
   15838:	eaffffff 	b	1583c <test_semaphore3+0x94>
   1583c:	e3a07001 	mov	r7, #1
   15840:	e28d8013 	add	r8, sp, #19
   15844:	e3a09003 	mov	r9, #3
   15848:	e3a02020 	mov	r2, #32
   1584c:	e59f3170 	ldr	r3, [pc, #368]	; 159c4 <test_semaphore3+0x21c>
   15850:	e58d800c 	str	r8, [sp, #12]
   15854:	e3a01801 	mov	r1, #65536	; 0x10000
   15858:	e58d9000 	str	r9, [sp]
   1585c:	e58d4004 	str	r4, [sp, #4]
   15860:	e58d7008 	str	r7, [sp, #8]
   15864:	e59f015c 	ldr	r0, [pc, #348]	; 159c8 <test_semaphore3+0x220>
   15868:	ebffebab 	bl	1071c <create>
   1586c:	e3a01000 	mov	r1, #0
   15870:	e1a0a000 	mov	sl, r0
   15874:	ebffec52 	bl	109c4 <ready>
   15878:	e3a0201f 	mov	r2, #31
   1587c:	e59f3148 	ldr	r3, [pc, #328]	; 159cc <test_semaphore3+0x224>
   15880:	e98d0190 	stmib	sp, {r4, r7, r8}
   15884:	e3a01801 	mov	r1, #65536	; 0x10000
   15888:	e58d9000 	str	r9, [sp]
   1588c:	e59f0134 	ldr	r0, [pc, #308]	; 159c8 <test_semaphore3+0x220>
   15890:	ebffeba1 	bl	1071c <create>
   15894:	e1a01007 	mov	r1, r7
   15898:	e1a08000 	mov	r8, r0
   1589c:	ebffec48 	bl	109c4 <ready>
   158a0:	e1a00005 	mov	r0, r5
   158a4:	e59f1124 	ldr	r1, [pc, #292]	; 159d0 <test_semaphore3+0x228>
   158a8:	ebfffe7c 	bl	152a0 <testPrint>
   158ac:	e1a0000a 	mov	r0, sl
   158b0:	e3a01002 	mov	r1, #2
   158b4:	eb000312 	bl	16504 <test_checkProcState>
   158b8:	e3500000 	cmp	r0, #0
   158bc:	1a000001 	bne	158c8 <test_semaphore3+0x120>
   158c0:	e3a06000 	mov	r6, #0
   158c4:	ea000011 	b	15910 <test_semaphore3+0x168>
   158c8:	e1a00008 	mov	r0, r8
   158cc:	e3a01007 	mov	r1, #7
   158d0:	eb00030b 	bl	16504 <test_checkProcState>
   158d4:	e3500000 	cmp	r0, #0
   158d8:	0afffff8 	beq	158c0 <test_semaphore3+0x118>
   158dc:	e1a00004 	mov	r0, r4
   158e0:	e3e01000 	mvn	r1, #0
   158e4:	eb0002e3 	bl	16478 <test_checkSemCount>
   158e8:	e3500000 	cmp	r0, #0
   158ec:	0afffff3 	beq	158c0 <test_semaphore3+0x118>
   158f0:	e5dd0013 	ldrb	r0, [sp, #19]
   158f4:	e1a01007 	mov	r1, r7
   158f8:	eb00031a 	bl	16568 <test_checkResult>
   158fc:	e3500000 	cmp	r0, #0
   15900:	0affffee 	beq	158c0 <test_semaphore3+0x118>
   15904:	e1a00005 	mov	r0, r5
   15908:	e59f10b0 	ldr	r1, [pc, #176]	; 159c0 <test_semaphore3+0x218>
   1590c:	ebfffe54 	bl	15264 <testPass>
   15910:	e1a00004 	mov	r0, r4
   15914:	ebffee74 	bl	112ec <signal>
   15918:	e1a00005 	mov	r0, r5
   1591c:	e59f10b0 	ldr	r1, [pc, #176]	; 159d4 <test_semaphore3+0x22c>
   15920:	ebfffe5e 	bl	152a0 <testPrint>
   15924:	e1a00008 	mov	r0, r8
   15928:	e3a01002 	mov	r1, #2
   1592c:	eb0002f4 	bl	16504 <test_checkProcState>
   15930:	e3500000 	cmp	r0, #0
   15934:	0a000012 	beq	15984 <test_semaphore3+0x1dc>
   15938:	e1a00004 	mov	r0, r4
   1593c:	e3a01000 	mov	r1, #0
   15940:	eb0002cc 	bl	16478 <test_checkSemCount>
   15944:	e3500000 	cmp	r0, #0
   15948:	0a00000d 	beq	15984 <test_semaphore3+0x1dc>
   1594c:	e5dd0013 	ldrb	r0, [sp, #19]
   15950:	e3a01002 	mov	r1, #2
   15954:	eb000303 	bl	16568 <test_checkResult>
   15958:	e3500000 	cmp	r0, #0
   1595c:	0a000008 	beq	15984 <test_semaphore3+0x1dc>
   15960:	e1a00005 	mov	r0, r5
   15964:	e59f1054 	ldr	r1, [pc, #84]	; 159c0 <test_semaphore3+0x218>
   15968:	ebfffe3d 	bl	15264 <testPass>
   1596c:	e3560001 	cmp	r6, #1
   15970:	1a000003 	bne	15984 <test_semaphore3+0x1dc>
   15974:	e1a00006 	mov	r0, r6
   15978:	e59f1040 	ldr	r1, [pc, #64]	; 159c0 <test_semaphore3+0x218>
   1597c:	ebfffe38 	bl	15264 <testPass>
   15980:	ea000002 	b	15990 <test_semaphore3+0x1e8>
   15984:	e3a00001 	mov	r0, #1
   15988:	e59f1030 	ldr	r1, [pc, #48]	; 159c0 <test_semaphore3+0x218>
   1598c:	ebfffe39 	bl	15278 <testFail>
   15990:	e1a0000a 	mov	r0, sl
   15994:	ebffebc1 	bl	108a0 <kill>
   15998:	e1a00008 	mov	r0, r8
   1599c:	ebffebbf 	bl	108a0 <kill>
   159a0:	e1a00004 	mov	r0, r4
   159a4:	ebffee1c 	bl	1121c <semfree>
   159a8:	e3a00001 	mov	r0, #1
   159ac:	e28dd048 	add	sp, sp, #72	; 0x48
   159b0:	e8bd87f0 	pop	{r4, r5, r6, r7, r8, r9, sl, pc}
   159b4:	0001dc2c 	.word	0x0001dc2c
   159b8:	00022820 	.word	0x00022820
   159bc:	0001f59d 	.word	0x0001f59d
   159c0:	0001d661 	.word	0x0001d661
   159c4:	0001dc41 	.word	0x0001dc41
   159c8:	00016440 	.word	0x00016440
   159cc:	0001dc4d 	.word	0x0001dc4d
   159d0:	0001dc59 	.word	0x0001dc59
   159d4:	0001dc6d 	.word	0x0001dc6d

000159d8 <bigargs>:
   159d8:	e92d4030 	push	{r4, r5, lr}
   159dc:	e59dc014 	ldr	ip, [sp, #20]
   159e0:	e5dd500c 	ldrb	r5, [sp, #12]
   159e4:	e5cc0000 	strb	r0, [ip]
   159e8:	e0810000 	add	r0, r1, r0
   159ec:	e5cc2002 	strb	r2, [ip, #2]
   159f0:	e0822000 	add	r2, r2, r0
   159f4:	e5dd4010 	ldrb	r4, [sp, #16]
   159f8:	e5cc3003 	strb	r3, [ip, #3]
   159fc:	e0823003 	add	r3, r2, r3
   15a00:	e5cc5004 	strb	r5, [ip, #4]
   15a04:	e0835005 	add	r5, r3, r5
   15a08:	e5cc4005 	strb	r4, [ip, #5]
   15a0c:	e0854004 	add	r4, r5, r4
   15a10:	e5cc1001 	strb	r1, [ip, #1]
   15a14:	e5cc4006 	strb	r4, [ip, #6]
   15a18:	e8bd8030 	pop	{r4, r5, pc}

00015a1c <test_bigargs>:
   15a1c:	e52de004 	push	{lr}		; (str lr, [sp, #-4]!)
   15a20:	e3a00007 	mov	r0, #7
   15a24:	e24dd03c 	sub	sp, sp, #60	; 0x3c
   15a28:	e3a0100a 	mov	r1, #10
   15a2c:	e3a02014 	mov	r2, #20
   15a30:	e3a0301e 	mov	r3, #30
   15a34:	e88d000f 	stm	sp, {r0, r1, r2, r3}
   15a38:	e3a03028 	mov	r3, #40	; 0x28
   15a3c:	e58d3010 	str	r3, [sp, #16]
   15a40:	e3a03032 	mov	r3, #50	; 0x32
   15a44:	e58d3014 	str	r3, [sp, #20]
   15a48:	e3a0303c 	mov	r3, #60	; 0x3c
   15a4c:	e58d3018 	str	r3, [sp, #24]
   15a50:	e28d3024 	add	r3, sp, #36	; 0x24
   15a54:	e58d301c 	str	r3, [sp, #28]
   15a58:	e3a01801 	mov	r1, #65536	; 0x10000
   15a5c:	e59f308c 	ldr	r3, [pc, #140]	; 15af0 <test_bigargs+0xd4>
   15a60:	e3a0201f 	mov	r2, #31
   15a64:	e59f0088 	ldr	r0, [pc, #136]	; 15af4 <test_bigargs+0xd8>
   15a68:	ebffeb2b 	bl	1071c <create>
   15a6c:	e3a01001 	mov	r1, #1
   15a70:	ebffebd3 	bl	109c4 <ready>
   15a74:	e5dd3024 	ldrb	r3, [sp, #36]	; 0x24
   15a78:	e353000a 	cmp	r3, #10
   15a7c:	1a000015 	bne	15ad8 <test_bigargs+0xbc>
   15a80:	e5dd3025 	ldrb	r3, [sp, #37]	; 0x25
   15a84:	e3530014 	cmp	r3, #20
   15a88:	1a000012 	bne	15ad8 <test_bigargs+0xbc>
   15a8c:	e5dd3026 	ldrb	r3, [sp, #38]	; 0x26
   15a90:	e353001e 	cmp	r3, #30
   15a94:	1a00000f 	bne	15ad8 <test_bigargs+0xbc>
   15a98:	e5dd3027 	ldrb	r3, [sp, #39]	; 0x27
   15a9c:	e3530028 	cmp	r3, #40	; 0x28
   15aa0:	1a00000c 	bne	15ad8 <test_bigargs+0xbc>
   15aa4:	e5dd3028 	ldrb	r3, [sp, #40]	; 0x28
   15aa8:	e3530032 	cmp	r3, #50	; 0x32
   15aac:	1a000009 	bne	15ad8 <test_bigargs+0xbc>
   15ab0:	e5dd3029 	ldrb	r3, [sp, #41]	; 0x29
   15ab4:	e353003c 	cmp	r3, #60	; 0x3c
   15ab8:	1a000006 	bne	15ad8 <test_bigargs+0xbc>
   15abc:	e5dd302a 	ldrb	r3, [sp, #42]	; 0x2a
   15ac0:	e35300d2 	cmp	r3, #210	; 0xd2
   15ac4:	1a000003 	bne	15ad8 <test_bigargs+0xbc>
   15ac8:	e3a00001 	mov	r0, #1
   15acc:	e59f1024 	ldr	r1, [pc, #36]	; 15af8 <test_bigargs+0xdc>
   15ad0:	ebfffde3 	bl	15264 <testPass>
   15ad4:	ea000002 	b	15ae4 <test_bigargs+0xc8>
   15ad8:	e3a00001 	mov	r0, #1
   15adc:	e59f1014 	ldr	r1, [pc, #20]	; 15af8 <test_bigargs+0xdc>
   15ae0:	ebfffde4 	bl	15278 <testFail>
   15ae4:	e3a00001 	mov	r0, #1
   15ae8:	e28dd03c 	add	sp, sp, #60	; 0x3c
   15aec:	e8bd8000 	ldmfd	sp!, {pc}
   15af0:	0001dc88 	.word	0x0001dc88
   15af4:	000159d8 	.word	0x000159d8
   15af8:	0001d661 	.word	0x0001d661

00015afc <list_check>:
   15afc:	e59f1030 	ldr	r1, [pc, #48]	; 15b34 <list_check+0x38>
   15b00:	e3a02000 	mov	r2, #0
   15b04:	e5913000 	ldr	r3, [r1]
   15b08:	ea000002 	b	15b18 <list_check+0x1c>
   15b0c:	e5930004 	ldr	r0, [r3, #4]
   15b10:	e5933000 	ldr	r3, [r3]
   15b14:	e0822000 	add	r2, r2, r0
   15b18:	e3530000 	cmp	r3, #0
   15b1c:	1afffffa 	bne	15b0c <list_check+0x10>
   15b20:	e5910004 	ldr	r0, [r1, #4]
   15b24:	e0503002 	subs	r3, r0, r2
   15b28:	e2730000 	rsbs	r0, r3, #0
   15b2c:	e0b00003 	adcs	r0, r0, r3
   15b30:	e12fff1e 	bx	lr
   15b34:	00020744 	.word	0x00020744

00015b38 <test_memory>:
   15b38:	e92d41f0 	push	{r4, r5, r6, r7, r8, lr}
   15b3c:	e59f1194 	ldr	r1, [pc, #404]	; 15cd8 <test_memory+0x1a0>
   15b40:	e1a04000 	mov	r4, r0
   15b44:	ebfffdd5 	bl	152a0 <testPrint>
   15b48:	e3a00001 	mov	r0, #1
   15b4c:	ebffee53 	bl	114a0 <memget>
   15b50:	e3700001 	cmn	r0, #1
   15b54:	e1a05000 	mov	r5, r0
   15b58:	059f117c 	ldreq	r1, [pc, #380]	; 15cdc <test_memory+0x1a4>
   15b5c:	01a00004 	moveq	r0, r4
   15b60:	0a000004 	beq	15b78 <test_memory+0x40>
   15b64:	ebffffe4 	bl	15afc <list_check>
   15b68:	e3500000 	cmp	r0, #0
   15b6c:	1a000004 	bne	15b84 <test_memory+0x4c>
   15b70:	e59f1168 	ldr	r1, [pc, #360]	; 15ce0 <test_memory+0x1a8>
   15b74:	e1a00004 	mov	r0, r4
   15b78:	ebfffdbe 	bl	15278 <testFail>
   15b7c:	e3a06000 	mov	r6, #0
   15b80:	ea000013 	b	15bd4 <test_memory+0x9c>
   15b84:	e1a00004 	mov	r0, r4
   15b88:	e59f1154 	ldr	r1, [pc, #340]	; 15ce4 <test_memory+0x1ac>
   15b8c:	ebfffdb4 	bl	15264 <testPass>
   15b90:	e1a00004 	mov	r0, r4
   15b94:	e59f114c 	ldr	r1, [pc, #332]	; 15ce8 <test_memory+0x1b0>
   15b98:	ebfffdc0 	bl	152a0 <testPrint>
   15b9c:	e3a01001 	mov	r1, #1
   15ba0:	e1a00005 	mov	r0, r5
   15ba4:	ebffee62 	bl	11534 <memfree>
   15ba8:	e3700001 	cmn	r0, #1
   15bac:	01a00004 	moveq	r0, r4
   15bb0:	059f1134 	ldreq	r1, [pc, #308]	; 15cec <test_memory+0x1b4>
   15bb4:	0affffef 	beq	15b78 <test_memory+0x40>
   15bb8:	ebffffcf 	bl	15afc <list_check>
   15bbc:	e3500000 	cmp	r0, #0
   15bc0:	0affffea 	beq	15b70 <test_memory+0x38>
   15bc4:	e1a00004 	mov	r0, r4
   15bc8:	e59f1114 	ldr	r1, [pc, #276]	; 15ce4 <test_memory+0x1ac>
   15bcc:	ebfffda4 	bl	15264 <testPass>
   15bd0:	e3a06001 	mov	r6, #1
   15bd4:	e1a00004 	mov	r0, r4
   15bd8:	e59f1110 	ldr	r1, [pc, #272]	; 15cf0 <test_memory+0x1b8>
   15bdc:	ebfffdaf 	bl	152a0 <testPrint>
   15be0:	e3a08011 	mov	r8, #17
   15be4:	e3a07601 	mov	r7, #1048576	; 0x100000
   15be8:	e3a05000 	mov	r5, #0
   15bec:	ea000001 	b	15bf8 <test_memory+0xc0>
   15bf0:	e88000a0 	stm	r0, {r5, r7}
   15bf4:	e1a05000 	mov	r5, r0
   15bf8:	e1a00007 	mov	r0, r7
   15bfc:	ebffee27 	bl	114a0 <memget>
   15c00:	e3700001 	cmn	r0, #1
   15c04:	1afffff9 	bne	15bf0 <test_memory+0xb8>
   15c08:	e2588001 	subs	r8, r8, #1
   15c0c:	e1a070a7 	lsr	r7, r7, #1
   15c10:	1afffff8 	bne	15bf8 <test_memory+0xc0>
   15c14:	ea000004 	b	15c2c <test_memory+0xf4>
   15c18:	e1a00005 	mov	r0, r5
   15c1c:	e5951004 	ldr	r1, [r5, #4]
   15c20:	e5957000 	ldr	r7, [r5]
   15c24:	ebffee42 	bl	11534 <memfree>
   15c28:	e1a05007 	mov	r5, r7
   15c2c:	e3550000 	cmp	r5, #0
   15c30:	1afffff8 	bne	15c18 <test_memory+0xe0>
   15c34:	ebffffb0 	bl	15afc <list_check>
   15c38:	e3500000 	cmp	r0, #0
   15c3c:	e1a00004 	mov	r0, r4
   15c40:	1a000003 	bne	15c54 <test_memory+0x11c>
   15c44:	e59f1094 	ldr	r1, [pc, #148]	; 15ce0 <test_memory+0x1a8>
   15c48:	ebfffd8a 	bl	15278 <testFail>
   15c4c:	e1a06005 	mov	r6, r5
   15c50:	ea000001 	b	15c5c <test_memory+0x124>
   15c54:	e59f1088 	ldr	r1, [pc, #136]	; 15ce4 <test_memory+0x1ac>
   15c58:	ebfffd81 	bl	15264 <testPass>
   15c5c:	e3a00001 	mov	r0, #1
   15c60:	ebffee75 	bl	1163c <stkget>
   15c64:	e1a05000 	mov	r5, r0
   15c68:	e3750001 	cmn	r5, #1
   15c6c:	e1a00004 	mov	r0, r4
   15c70:	059f107c 	ldreq	r1, [pc, #124]	; 15cf4 <test_memory+0x1bc>
   15c74:	0a000008 	beq	15c9c <test_memory+0x164>
   15c78:	e59f1064 	ldr	r1, [pc, #100]	; 15ce4 <test_memory+0x1ac>
   15c7c:	ebfffd78 	bl	15264 <testPass>
   15c80:	e2450004 	sub	r0, r5, #4
   15c84:	e3a01008 	mov	r1, #8
   15c88:	ebffee29 	bl	11534 <memfree>
   15c8c:	e3700001 	cmn	r0, #1
   15c90:	e1a00004 	mov	r0, r4
   15c94:	1a000002 	bne	15ca4 <test_memory+0x16c>
   15c98:	e59f1058 	ldr	r1, [pc, #88]	; 15cf8 <test_memory+0x1c0>
   15c9c:	ebfffd75 	bl	15278 <testFail>
   15ca0:	ea000007 	b	15cc4 <test_memory+0x18c>
   15ca4:	e59f1038 	ldr	r1, [pc, #56]	; 15ce4 <test_memory+0x1ac>
   15ca8:	ebfffd6d 	bl	15264 <testPass>
   15cac:	e3560001 	cmp	r6, #1
   15cb0:	1a000003 	bne	15cc4 <test_memory+0x18c>
   15cb4:	e1a00006 	mov	r0, r6
   15cb8:	e59f1024 	ldr	r1, [pc, #36]	; 15ce4 <test_memory+0x1ac>
   15cbc:	ebfffd68 	bl	15264 <testPass>
   15cc0:	ea000002 	b	15cd0 <test_memory+0x198>
   15cc4:	e3a00001 	mov	r0, #1
   15cc8:	e59f1014 	ldr	r1, [pc, #20]	; 15ce4 <test_memory+0x1ac>
   15ccc:	ebfffd69 	bl	15278 <testFail>
   15cd0:	e3a00001 	mov	r0, #1
   15cd4:	e8bd81f0 	pop	{r4, r5, r6, r7, r8, pc}
   15cd8:	0001dc90 	.word	0x0001dc90
   15cdc:	0001dca5 	.word	0x0001dca5
   15ce0:	0001dcb3 	.word	0x0001dcb3
   15ce4:	0001d661 	.word	0x0001d661
   15ce8:	0001dce7 	.word	0x0001dce7
   15cec:	0001dcf8 	.word	0x0001dcf8
   15cf0:	0001dd07 	.word	0x0001dd07
   15cf4:	0001dd29 	.word	0x0001dd29
   15cf8:	0001dd38 	.word	0x0001dd38

00015cfc <test_semaphore4>:
   15cfc:	e92d41f0 	push	{r4, r5, r6, r7, r8, lr}
   15d00:	e59f11b0 	ldr	r1, [pc, #432]	; 15eb8 <test_semaphore4+0x1bc>
   15d04:	e24dd048 	sub	sp, sp, #72	; 0x48
   15d08:	e3a06000 	mov	r6, #0
   15d0c:	e1a05000 	mov	r5, r0
   15d10:	e5cd6013 	strb	r6, [sp, #19]
   15d14:	ebfffd61 	bl	152a0 <testPrint>
   15d18:	e1a00006 	mov	r0, r6
   15d1c:	ebffed16 	bl	1117c <semcreate>
   15d20:	e3500063 	cmp	r0, #99	; 0x63
   15d24:	e1a04000 	mov	r4, r0
   15d28:	8a000005 	bhi	15d44 <test_semaphore4+0x48>
   15d2c:	e3a0300c 	mov	r3, #12
   15d30:	e0030093 	mul	r3, r3, r0
   15d34:	e59f2180 	ldr	r2, [pc, #384]	; 15ebc <test_semaphore4+0x1c0>
   15d38:	e7d23003 	ldrb	r3, [r2, r3]
   15d3c:	e3530001 	cmp	r3, #1
   15d40:	1a000008 	bne	15d68 <test_semaphore4+0x6c>
   15d44:	e59f1174 	ldr	r1, [pc, #372]	; 15ec0 <test_semaphore4+0x1c4>
   15d48:	e1a02004 	mov	r2, r4
   15d4c:	e28d0014 	add	r0, sp, #20
   15d50:	eb0017bc 	bl	1bc48 <sprintf>
   15d54:	e1a00005 	mov	r0, r5
   15d58:	e28d1014 	add	r1, sp, #20
   15d5c:	ebfffd45 	bl	15278 <testFail>
   15d60:	e3a06000 	mov	r6, #0
   15d64:	ea000009 	b	15d90 <test_semaphore4+0x94>
   15d68:	e1a01006 	mov	r1, r6
   15d6c:	eb0001c1 	bl	16478 <test_checkSemCount>
   15d70:	e3500000 	cmp	r0, #0
   15d74:	01a06000 	moveq	r6, r0
   15d78:	0a000004 	beq	15d90 <test_semaphore4+0x94>
   15d7c:	e1a00005 	mov	r0, r5
   15d80:	e59f113c 	ldr	r1, [pc, #316]	; 15ec4 <test_semaphore4+0x1c8>
   15d84:	ebfffd36 	bl	15264 <testPass>
   15d88:	e3a06001 	mov	r6, #1
   15d8c:	eaffffff 	b	15d90 <test_semaphore4+0x94>
   15d90:	e3a03003 	mov	r3, #3
   15d94:	e88d0018 	stm	sp, {r3, r4}
   15d98:	e3a08001 	mov	r8, #1
   15d9c:	e28d3013 	add	r3, sp, #19
   15da0:	e3a0201f 	mov	r2, #31
   15da4:	e58d300c 	str	r3, [sp, #12]
   15da8:	e3a01801 	mov	r1, #65536	; 0x10000
   15dac:	e59f3114 	ldr	r3, [pc, #276]	; 15ec8 <test_semaphore4+0x1cc>
   15db0:	e58d8008 	str	r8, [sp, #8]
   15db4:	e59f0110 	ldr	r0, [pc, #272]	; 15ecc <test_semaphore4+0x1d0>
   15db8:	ebffea57 	bl	1071c <create>
   15dbc:	e1a01008 	mov	r1, r8
   15dc0:	e1a07000 	mov	r7, r0
   15dc4:	ebffeafe 	bl	109c4 <ready>
   15dc8:	e1a00005 	mov	r0, r5
   15dcc:	e59f10fc 	ldr	r1, [pc, #252]	; 15ed0 <test_semaphore4+0x1d4>
   15dd0:	ebfffd32 	bl	152a0 <testPrint>
   15dd4:	e1a00007 	mov	r0, r7
   15dd8:	e3a01007 	mov	r1, #7
   15ddc:	eb0001c8 	bl	16504 <test_checkProcState>
   15de0:	e3500000 	cmp	r0, #0
   15de4:	1a000001 	bne	15df0 <test_semaphore4+0xf4>
   15de8:	e3a06000 	mov	r6, #0
   15dec:	ea00000c 	b	15e24 <test_semaphore4+0x128>
   15df0:	e1a00004 	mov	r0, r4
   15df4:	e3e01000 	mvn	r1, #0
   15df8:	eb00019e 	bl	16478 <test_checkSemCount>
   15dfc:	e3500000 	cmp	r0, #0
   15e00:	0afffff8 	beq	15de8 <test_semaphore4+0xec>
   15e04:	e5dd0013 	ldrb	r0, [sp, #19]
   15e08:	e3a01000 	mov	r1, #0
   15e0c:	eb0001d5 	bl	16568 <test_checkResult>
   15e10:	e3500000 	cmp	r0, #0
   15e14:	0afffff3 	beq	15de8 <test_semaphore4+0xec>
   15e18:	e1a00005 	mov	r0, r5
   15e1c:	e59f10a0 	ldr	r1, [pc, #160]	; 15ec4 <test_semaphore4+0x1c8>
   15e20:	ebfffd0f 	bl	15264 <testPass>
   15e24:	e1a00007 	mov	r0, r7
   15e28:	ebffea9c 	bl	108a0 <kill>
   15e2c:	e1a00005 	mov	r0, r5
   15e30:	e59f109c 	ldr	r1, [pc, #156]	; 15ed4 <test_semaphore4+0x1d8>
   15e34:	ebfffd19 	bl	152a0 <testPrint>
   15e38:	e1a00007 	mov	r0, r7
   15e3c:	e3a01002 	mov	r1, #2
   15e40:	eb0001af 	bl	16504 <test_checkProcState>
   15e44:	e3500000 	cmp	r0, #0
   15e48:	0a000012 	beq	15e98 <test_semaphore4+0x19c>
   15e4c:	e1a00004 	mov	r0, r4
   15e50:	e3a01000 	mov	r1, #0
   15e54:	eb000187 	bl	16478 <test_checkSemCount>
   15e58:	e3500000 	cmp	r0, #0
   15e5c:	0a00000d 	beq	15e98 <test_semaphore4+0x19c>
   15e60:	e5dd0013 	ldrb	r0, [sp, #19]
   15e64:	e3a01000 	mov	r1, #0
   15e68:	eb0001be 	bl	16568 <test_checkResult>
   15e6c:	e3500000 	cmp	r0, #0
   15e70:	0a000008 	beq	15e98 <test_semaphore4+0x19c>
   15e74:	e1a00005 	mov	r0, r5
   15e78:	e59f1044 	ldr	r1, [pc, #68]	; 15ec4 <test_semaphore4+0x1c8>
   15e7c:	ebfffcf8 	bl	15264 <testPass>
   15e80:	e3560001 	cmp	r6, #1
   15e84:	1a000003 	bne	15e98 <test_semaphore4+0x19c>
   15e88:	e1a00006 	mov	r0, r6
   15e8c:	e59f1030 	ldr	r1, [pc, #48]	; 15ec4 <test_semaphore4+0x1c8>
   15e90:	ebfffcf3 	bl	15264 <testPass>
   15e94:	ea000002 	b	15ea4 <test_semaphore4+0x1a8>
   15e98:	e3a00001 	mov	r0, #1
   15e9c:	e59f1020 	ldr	r1, [pc, #32]	; 15ec4 <test_semaphore4+0x1c8>
   15ea0:	ebfffcf4 	bl	15278 <testFail>
   15ea4:	e1a00004 	mov	r0, r4
   15ea8:	ebffecdb 	bl	1121c <semfree>
   15eac:	e3a00001 	mov	r0, #1
   15eb0:	e28dd048 	add	sp, sp, #72	; 0x48
   15eb4:	e8bd81f0 	pop	{r4, r5, r6, r7, r8, pc}
   15eb8:	0001dc2c 	.word	0x0001dc2c
   15ebc:	00022820 	.word	0x00022820
   15ec0:	0001f59d 	.word	0x0001f59d
   15ec4:	0001d661 	.word	0x0001d661
   15ec8:	0001dc41 	.word	0x0001dc41
   15ecc:	00016440 	.word	0x00016440
   15ed0:	0001dc59 	.word	0x0001dc59
   15ed4:	0001dd48 	.word	0x0001dd48

00015ed8 <test_bufpool>:
   15ed8:	e92d45f0 	push	{r4, r5, r6, r7, r8, sl, lr}
   15edc:	e59f3284 	ldr	r3, [pc, #644]	; 16168 <test_bufpool+0x290>
   15ee0:	e24dd0ac 	sub	sp, sp, #172	; 0xac
   15ee4:	e1a04000 	mov	r4, r0
   15ee8:	e28d2004 	add	r2, sp, #4
   15eec:	e283e020 	add	lr, r3, #32
   15ef0:	e5930000 	ldr	r0, [r3]
   15ef4:	e5931004 	ldr	r1, [r3, #4]
   15ef8:	e1a0c002 	mov	ip, r2
   15efc:	e8ac0003 	stmia	ip!, {r0, r1}
   15f00:	e2833008 	add	r3, r3, #8
   15f04:	e153000e 	cmp	r3, lr
   15f08:	e1a0200c 	mov	r2, ip
   15f0c:	1afffff7 	bne	15ef0 <test_bufpool+0x18>
   15f10:	e1d330b0 	ldrh	r3, [r3]
   15f14:	e59f1250 	ldr	r1, [pc, #592]	; 1616c <test_bufpool+0x294>
   15f18:	e1cc30b0 	strh	r3, [ip]
   15f1c:	e1a00004 	mov	r0, r4
   15f20:	ebfffcde 	bl	152a0 <testPrint>
   15f24:	ebffe87d 	bl	10120 <disable>
   15f28:	e59f6240 	ldr	r6, [pc, #576]	; 16170 <test_bufpool+0x298>
   15f2c:	e1a05000 	mov	r5, r0
   15f30:	e3a00020 	mov	r0, #32
   15f34:	e1a01000 	mov	r1, r0
   15f38:	e5968004 	ldr	r8, [r6, #4]
   15f3c:	ebffede7 	bl	116e0 <bfpalloc>
   15f40:	e5963004 	ldr	r3, [r6, #4]
   15f44:	e2488c05 	sub	r8, r8, #1280	; 0x500
   15f48:	e1530008 	cmp	r3, r8
   15f4c:	e1a07000 	mov	r7, r0
   15f50:	e1a00005 	mov	r0, r5
   15f54:	0a000003 	beq	15f68 <test_bufpool+0x90>
   15f58:	ebffe873 	bl	1012c <restore>
   15f5c:	e3a00001 	mov	r0, #1
   15f60:	e59f120c 	ldr	r1, [pc, #524]	; 16174 <test_bufpool+0x29c>
   15f64:	ea000063 	b	160f8 <test_bufpool+0x220>
   15f68:	ebffe86f 	bl	1012c <restore>
   15f6c:	e1a00004 	mov	r0, r4
   15f70:	e59f1200 	ldr	r1, [pc, #512]	; 16178 <test_bufpool+0x2a0>
   15f74:	ebfffcba 	bl	15264 <testPass>
   15f78:	e59f11fc 	ldr	r1, [pc, #508]	; 1617c <test_bufpool+0x2a4>
   15f7c:	e1a00004 	mov	r0, r4
   15f80:	ebfffcc6 	bl	152a0 <testPrint>
   15f84:	e1a00007 	mov	r0, r7
   15f88:	ebffee3d 	bl	11884 <bufget>
   15f8c:	e1a05000 	mov	r5, r0
   15f90:	e3750001 	cmn	r5, #1
   15f94:	e1a00004 	mov	r0, r4
   15f98:	059f11e0 	ldreq	r1, [pc, #480]	; 16180 <test_bufpool+0x2a8>
   15f9c:	0a00000a 	beq	15fcc <test_bufpool+0xf4>
   15fa0:	e59f11d0 	ldr	r1, [pc, #464]	; 16178 <test_bufpool+0x2a0>
   15fa4:	ebfffcae 	bl	15264 <testPass>
   15fa8:	e1a00004 	mov	r0, r4
   15fac:	e59f11d0 	ldr	r1, [pc, #464]	; 16184 <test_bufpool+0x2ac>
   15fb0:	ebfffcba 	bl	152a0 <testPrint>
   15fb4:	e1a00005 	mov	r0, r5
   15fb8:	ebffee4a 	bl	118e8 <buffree>
   15fbc:	e3700001 	cmn	r0, #1
   15fc0:	e1a00004 	mov	r0, r4
   15fc4:	1a000003 	bne	15fd8 <test_bufpool+0x100>
   15fc8:	e59f11b8 	ldr	r1, [pc, #440]	; 16188 <test_bufpool+0x2b0>
   15fcc:	ebfffca9 	bl	15278 <testFail>
   15fd0:	e3a05000 	mov	r5, #0
   15fd4:	ea000002 	b	15fe4 <test_bufpool+0x10c>
   15fd8:	e59f1198 	ldr	r1, [pc, #408]	; 16178 <test_bufpool+0x2a0>
   15fdc:	ebfffca0 	bl	15264 <testPass>
   15fe0:	e3a05001 	mov	r5, #1
   15fe4:	e1a00004 	mov	r0, r4
   15fe8:	e59f119c 	ldr	r1, [pc, #412]	; 1618c <test_bufpool+0x2b4>
   15fec:	ebfffcab 	bl	152a0 <testPrint>
   15ff0:	e3a06000 	mov	r6, #0
   15ff4:	e28d8004 	add	r8, sp, #4
   15ff8:	e1a00007 	mov	r0, r7
   15ffc:	ebffee20 	bl	11884 <bufget>
   16000:	e28d2028 	add	r2, sp, #40	; 0x28
   16004:	e3700001 	cmn	r0, #1
   16008:	e7860002 	str	r0, [r6, r2]
   1600c:	0a00003b 	beq	16100 <test_bufpool+0x228>
   16010:	e1a01008 	mov	r1, r8
   16014:	e3a02020 	mov	r2, #32
   16018:	e2866004 	add	r6, r6, #4
   1601c:	eb0016a0 	bl	1baa4 <memcpy>
   16020:	e3560080 	cmp	r6, #128	; 0x80
   16024:	1afffff3 	bne	15ff8 <test_bufpool+0x120>
   16028:	e3a06000 	mov	r6, #0
   1602c:	e28d3028 	add	r3, sp, #40	; 0x28
   16030:	e7960003 	ldr	r0, [r6, r3]
   16034:	e1a01008 	mov	r1, r8
   16038:	e3a02020 	mov	r2, #32
   1603c:	eb00168a 	bl	1ba6c <memcmp>
   16040:	e250a000 	subs	sl, r0, #0
   16044:	1a000030 	bne	1610c <test_bufpool+0x234>
   16048:	e2866004 	add	r6, r6, #4
   1604c:	e3560080 	cmp	r6, #128	; 0x80
   16050:	1afffff5 	bne	1602c <test_bufpool+0x154>
   16054:	ea00002f 	b	16118 <test_bufpool+0x240>
   16058:	e28d3028 	add	r3, sp, #40	; 0x28
   1605c:	e7960003 	ldr	r0, [r6, r3]
   16060:	ebffee20 	bl	118e8 <buffree>
   16064:	e3700001 	cmn	r0, #1
   16068:	0a000032 	beq	16138 <test_bufpool+0x260>
   1606c:	e2866004 	add	r6, r6, #4
   16070:	e3560080 	cmp	r6, #128	; 0x80
   16074:	1afffff7 	bne	16058 <test_bufpool+0x180>
   16078:	ea000033 	b	1614c <test_bufpool+0x274>
   1607c:	e59f110c 	ldr	r1, [pc, #268]	; 16190 <test_bufpool+0x2b8>
   16080:	e1a00004 	mov	r0, r4
   16084:	ebfffc85 	bl	152a0 <testPrint>
   16088:	ebffe824 	bl	10120 <disable>
   1608c:	e59f80dc 	ldr	r8, [pc, #220]	; 16170 <test_bufpool+0x298>
   16090:	e1a06000 	mov	r6, r0
   16094:	e598a004 	ldr	sl, [r8, #4]
   16098:	e1a00007 	mov	r0, r7
   1609c:	ebffedd3 	bl	117f0 <bfpfree>
   160a0:	e5983004 	ldr	r3, [r8, #4]
   160a4:	e28aac05 	add	sl, sl, #1280	; 0x500
   160a8:	e153000a 	cmp	r3, sl
   160ac:	e1a00006 	mov	r0, r6
   160b0:	0a000004 	beq	160c8 <test_bufpool+0x1f0>
   160b4:	ebffe81c 	bl	1012c <restore>
   160b8:	e1a00004 	mov	r0, r4
   160bc:	e59f10d0 	ldr	r1, [pc, #208]	; 16194 <test_bufpool+0x2bc>
   160c0:	ebfffc6c 	bl	15278 <testFail>
   160c4:	ea000009 	b	160f0 <test_bufpool+0x218>
   160c8:	ebffe817 	bl	1012c <restore>
   160cc:	e1a00004 	mov	r0, r4
   160d0:	e59f10a0 	ldr	r1, [pc, #160]	; 16178 <test_bufpool+0x2a0>
   160d4:	ebfffc62 	bl	15264 <testPass>
   160d8:	e3550001 	cmp	r5, #1
   160dc:	1a000003 	bne	160f0 <test_bufpool+0x218>
   160e0:	e1a00005 	mov	r0, r5
   160e4:	e59f108c 	ldr	r1, [pc, #140]	; 16178 <test_bufpool+0x2a0>
   160e8:	ebfffc5d 	bl	15264 <testPass>
   160ec:	ea00001a 	b	1615c <test_bufpool+0x284>
   160f0:	e59f1080 	ldr	r1, [pc, #128]	; 16178 <test_bufpool+0x2a0>
   160f4:	e3a00001 	mov	r0, #1
   160f8:	ebfffc5e 	bl	15278 <testFail>
   160fc:	ea000016 	b	1615c <test_bufpool+0x284>
   16100:	e1a00004 	mov	r0, r4
   16104:	e59f108c 	ldr	r1, [pc, #140]	; 16198 <test_bufpool+0x2c0>
   16108:	ea00000c 	b	16140 <test_bufpool+0x268>
   1610c:	e1a00004 	mov	r0, r4
   16110:	e59f1084 	ldr	r1, [pc, #132]	; 1619c <test_bufpool+0x2c4>
   16114:	ea000009 	b	16140 <test_bufpool+0x268>
   16118:	e1a00004 	mov	r0, r4
   1611c:	e59f1054 	ldr	r1, [pc, #84]	; 16178 <test_bufpool+0x2a0>
   16120:	ebfffc4f 	bl	15264 <testPass>
   16124:	e1a00004 	mov	r0, r4
   16128:	e59f1070 	ldr	r1, [pc, #112]	; 161a0 <test_bufpool+0x2c8>
   1612c:	ebfffc5b 	bl	152a0 <testPrint>
   16130:	e1a0600a 	mov	r6, sl
   16134:	eaffffc7 	b	16058 <test_bufpool+0x180>
   16138:	e59f1048 	ldr	r1, [pc, #72]	; 16188 <test_bufpool+0x2b0>
   1613c:	e1a00004 	mov	r0, r4
   16140:	ebfffc4c 	bl	15278 <testFail>
   16144:	e3a05000 	mov	r5, #0
   16148:	eaffffcb 	b	1607c <test_bufpool+0x1a4>
   1614c:	e1a00004 	mov	r0, r4
   16150:	e59f1020 	ldr	r1, [pc, #32]	; 16178 <test_bufpool+0x2a0>
   16154:	ebfffc42 	bl	15264 <testPass>
   16158:	eaffffc7 	b	1607c <test_bufpool+0x1a4>
   1615c:	e3a00001 	mov	r0, #1
   16160:	e28dd0ac 	add	sp, sp, #172	; 0xac
   16164:	e8bd85f0 	pop	{r4, r5, r6, r7, r8, sl, pc}
   16168:	0001deb2 	.word	0x0001deb2
   1616c:	0001dd5f 	.word	0x0001dd5f
   16170:	00020744 	.word	0x00020744
   16174:	0001dd72 	.word	0x0001dd72
   16178:	0001d661 	.word	0x0001d661
   1617c:	0001dda5 	.word	0x0001dda5
   16180:	0001ddbc 	.word	0x0001ddbc
   16184:	0001ddd5 	.word	0x0001ddd5
   16188:	0001ddea 	.word	0x0001ddea
   1618c:	0001de04 	.word	0x0001de04
   16190:	0001de22 	.word	0x0001de22
   16194:	0001de33 	.word	0x0001de33
   16198:	0001de65 	.word	0x0001de65
   1619c:	0001de7e 	.word	0x0001de7e
   161a0:	0001dea1 	.word	0x0001dea1

000161a4 <recvthread>:
   161a4:	e92d4010 	push	{r4, lr}
   161a8:	e1a04000 	mov	r4, r0
   161ac:	e3a00001 	mov	r0, #1
   161b0:	ebffee3a 	bl	11aa0 <recvtime>
   161b4:	e3700003 	cmn	r0, #3
   161b8:	e1a00004 	mov	r0, r4
   161bc:	1a000003 	bne	161d0 <recvthread+0x2c>
   161c0:	e59f1020 	ldr	r1, [pc, #32]	; 161e8 <recvthread+0x44>
   161c4:	ebfffc26 	bl	15264 <testPass>
   161c8:	e3a00001 	mov	r0, #1
   161cc:	e8bd8010 	pop	{r4, pc}
   161d0:	e59f1014 	ldr	r1, [pc, #20]	; 161ec <recvthread+0x48>
   161d4:	ebfffc27 	bl	15278 <testFail>
   161d8:	e59f0010 	ldr	r0, [pc, #16]	; 161f0 <recvthread+0x4c>
   161dc:	ebffeb86 	bl	10ffc <sleep>
   161e0:	e3e00000 	mvn	r0, #0
   161e4:	e8bd8010 	pop	{r4, pc}
   161e8:	0001d661 	.word	0x0001d661
   161ec:	0001ded4 	.word	0x0001ded4
   161f0:	00002710 	.word	0x00002710

000161f4 <test_messagePass>:
   161f4:	e92d40f7 	push	{r0, r1, r2, r4, r5, r6, r7, lr}
   161f8:	e1a04000 	mov	r4, r0
   161fc:	ebffee15 	bl	11a58 <recvclr>
   16200:	e59f1200 	ldr	r1, [pc, #512]	; 16408 <test_messagePass+0x214>
   16204:	e1a00004 	mov	r0, r4
   16208:	ebfffc24 	bl	152a0 <testPrint>
   1620c:	ebffead4 	bl	10d64 <gettid>
   16210:	e3a01061 	mov	r1, #97	; 0x61
   16214:	ebffedd0 	bl	1195c <send>
   16218:	e1a05000 	mov	r5, r0
   1621c:	e3550001 	cmp	r5, #1
   16220:	e1a00004 	mov	r0, r4
   16224:	e59f11e0 	ldr	r1, [pc, #480]	; 1640c <test_messagePass+0x218>
   16228:	1a000001 	bne	16234 <test_messagePass+0x40>
   1622c:	ebfffc0c 	bl	15264 <testPass>
   16230:	ea000001 	b	1623c <test_messagePass+0x48>
   16234:	ebfffc0f 	bl	15278 <testFail>
   16238:	e3a05000 	mov	r5, #0
   1623c:	e59f11cc 	ldr	r1, [pc, #460]	; 16410 <test_messagePass+0x21c>
   16240:	e1a00004 	mov	r0, r4
   16244:	ebfffc15 	bl	152a0 <testPrint>
   16248:	ebffeac5 	bl	10d64 <gettid>
   1624c:	e3a01064 	mov	r1, #100	; 0x64
   16250:	ebffedc1 	bl	1195c <send>
   16254:	e3700001 	cmn	r0, #1
   16258:	e1a00004 	mov	r0, r4
   1625c:	1a000002 	bne	1626c <test_messagePass+0x78>
   16260:	e59f11a4 	ldr	r1, [pc, #420]	; 1640c <test_messagePass+0x218>
   16264:	ebfffbfe 	bl	15264 <testPass>
   16268:	ea000002 	b	16278 <test_messagePass+0x84>
   1626c:	e59f11a0 	ldr	r1, [pc, #416]	; 16414 <test_messagePass+0x220>
   16270:	ebfffc00 	bl	15278 <testFail>
   16274:	e3a05000 	mov	r5, #0
   16278:	e59f1198 	ldr	r1, [pc, #408]	; 16418 <test_messagePass+0x224>
   1627c:	e1a00004 	mov	r0, r4
   16280:	ebfffc06 	bl	152a0 <testPrint>
   16284:	ebffeddb 	bl	119f8 <receive>
   16288:	e3500061 	cmp	r0, #97	; 0x61
   1628c:	e59f1178 	ldr	r1, [pc, #376]	; 1640c <test_messagePass+0x218>
   16290:	e1a00004 	mov	r0, r4
   16294:	1a000001 	bne	162a0 <test_messagePass+0xac>
   16298:	ebfffbf1 	bl	15264 <testPass>
   1629c:	ea000001 	b	162a8 <test_messagePass+0xb4>
   162a0:	ebfffbf4 	bl	15278 <testFail>
   162a4:	e3a05000 	mov	r5, #0
   162a8:	ebffeaad 	bl	10d64 <gettid>
   162ac:	e3a01062 	mov	r1, #98	; 0x62
   162b0:	ebffeda9 	bl	1195c <send>
   162b4:	e3500001 	cmp	r0, #1
   162b8:	159f115c 	ldrne	r1, [pc, #348]	; 1641c <test_messagePass+0x228>
   162bc:	e1a00004 	mov	r0, r4
   162c0:	1a000008 	bne	162e8 <test_messagePass+0xf4>
   162c4:	e59f1154 	ldr	r1, [pc, #340]	; 16420 <test_messagePass+0x22c>
   162c8:	ebfffbf4 	bl	152a0 <testPrint>
   162cc:	ebffede1 	bl	11a58 <recvclr>
   162d0:	e3500062 	cmp	r0, #98	; 0x62
   162d4:	e59f1130 	ldr	r1, [pc, #304]	; 1640c <test_messagePass+0x218>
   162d8:	e1a00004 	mov	r0, r4
   162dc:	1a000001 	bne	162e8 <test_messagePass+0xf4>
   162e0:	ebfffbdf 	bl	15264 <testPass>
   162e4:	ea000001 	b	162f0 <test_messagePass+0xfc>
   162e8:	ebfffbe2 	bl	15278 <testFail>
   162ec:	e3a05000 	mov	r5, #0
   162f0:	e59f112c 	ldr	r1, [pc, #300]	; 16424 <test_messagePass+0x230>
   162f4:	e1a00004 	mov	r0, r4
   162f8:	ebfffbe8 	bl	152a0 <testPrint>
   162fc:	ebffedd5 	bl	11a58 <recvclr>
   16300:	e3700004 	cmn	r0, #4
   16304:	e59f1100 	ldr	r1, [pc, #256]	; 1640c <test_messagePass+0x218>
   16308:	e1a00004 	mov	r0, r4
   1630c:	1a000001 	bne	16318 <test_messagePass+0x124>
   16310:	ebfffbd3 	bl	15264 <testPass>
   16314:	ea000001 	b	16320 <test_messagePass+0x12c>
   16318:	ebfffbd6 	bl	15278 <testFail>
   1631c:	e3a05000 	mov	r5, #0
   16320:	e59f1100 	ldr	r1, [pc, #256]	; 16428 <test_messagePass+0x234>
   16324:	e1a00004 	mov	r0, r4
   16328:	ebfffbdc 	bl	152a0 <testPrint>
   1632c:	ebffea8c 	bl	10d64 <gettid>
   16330:	ebffe9fc 	bl	10b28 <getprio>
   16334:	e3a07001 	mov	r7, #1
   16338:	e1a02000 	mov	r2, r0
   1633c:	e58d7000 	str	r7, [sp]
   16340:	e58d4004 	str	r4, [sp, #4]
   16344:	e59f00e0 	ldr	r0, [pc, #224]	; 1642c <test_messagePass+0x238>
   16348:	e3a01801 	mov	r1, #65536	; 0x10000
   1634c:	e59f30dc 	ldr	r3, [pc, #220]	; 16430 <test_messagePass+0x23c>
   16350:	ebffe8f1 	bl	1071c <create>
   16354:	e3700001 	cmn	r0, #1
   16358:	e1a06000 	mov	r6, r0
   1635c:	1a000003 	bne	16370 <test_messagePass+0x17c>
   16360:	e1a00004 	mov	r0, r4
   16364:	e59f10c8 	ldr	r1, [pc, #200]	; 16434 <test_messagePass+0x240>
   16368:	ebfffbc2 	bl	15278 <testFail>
   1636c:	ea000020 	b	163f4 <test_messagePass+0x200>
   16370:	e1a01007 	mov	r1, r7
   16374:	ebffe992 	bl	109c4 <ready>
   16378:	e3700001 	cmn	r0, #1
   1637c:	0afffff7 	beq	16360 <test_messagePass+0x16c>
   16380:	e3a00064 	mov	r0, #100	; 0x64
   16384:	ebffeb1c 	bl	10ffc <sleep>
   16388:	e3a02054 	mov	r2, #84	; 0x54
   1638c:	e0020692 	mul	r2, r2, r6
   16390:	e59f30a0 	ldr	r3, [pc, #160]	; 16438 <test_messagePass+0x244>
   16394:	e7d32002 	ldrb	r2, [r3, r2]
   16398:	e1a07003 	mov	r7, r3
   1639c:	e3520004 	cmp	r2, #4
   163a0:	1a000005 	bne	163bc <test_messagePass+0x1c8>
   163a4:	e1a00006 	mov	r0, r6
   163a8:	ebffe93c 	bl	108a0 <kill>
   163ac:	e1a00004 	mov	r0, r4
   163b0:	e59f1084 	ldr	r1, [pc, #132]	; 1643c <test_messagePass+0x248>
   163b4:	ebfffbaf 	bl	15278 <testFail>
   163b8:	e3a05000 	mov	r5, #0
   163bc:	e3a03054 	mov	r3, #84	; 0x54
   163c0:	e0030693 	mul	r3, r3, r6
   163c4:	e7d73003 	ldrb	r3, [r7, r3]
   163c8:	e3530005 	cmp	r3, #5
   163cc:	1a000002 	bne	163dc <test_messagePass+0x1e8>
   163d0:	e1a00006 	mov	r0, r6
   163d4:	ebffe931 	bl	108a0 <kill>
   163d8:	ea000005 	b	163f4 <test_messagePass+0x200>
   163dc:	e3550000 	cmp	r5, #0
   163e0:	0a000003 	beq	163f4 <test_messagePass+0x200>
   163e4:	e3a00001 	mov	r0, #1
   163e8:	e59f101c 	ldr	r1, [pc, #28]	; 1640c <test_messagePass+0x218>
   163ec:	ebfffb9c 	bl	15264 <testPass>
   163f0:	ea000002 	b	16400 <test_messagePass+0x20c>
   163f4:	e3a00001 	mov	r0, #1
   163f8:	e59f100c 	ldr	r1, [pc, #12]	; 1640c <test_messagePass+0x218>
   163fc:	ebfffb9d 	bl	15278 <testFail>
   16400:	e3a00001 	mov	r0, #1
   16404:	e8bd80fe 	pop	{r1, r2, r3, r4, r5, r6, r7, pc}
   16408:	0001def7 	.word	0x0001def7
   1640c:	0001d661 	.word	0x0001d661
   16410:	0001df04 	.word	0x0001df04
   16414:	0001df1b 	.word	0x0001df1b
   16418:	0001df54 	.word	0x0001df54
   1641c:	0001df8c 	.word	0x0001df8c
   16420:	0001df6c 	.word	0x0001df6c
   16424:	0001dfa4 	.word	0x0001dfa4
   16428:	0001dfc7 	.word	0x0001dfc7
   1642c:	000161a4 	.word	0x000161a4
   16430:	0001dfd7 	.word	0x0001dfd7
   16434:	0001dfe2 	.word	0x0001dfe2
   16438:	0002074c 	.word	0x0002074c
   1643c:	0001e004 	.word	0x0001e004

00016440 <test_semWaiter>:
   16440:	e92d4070 	push	{r4, r5, r6, lr}
   16444:	e1a06000 	mov	r6, r0
   16448:	e1a04001 	mov	r4, r1
   1644c:	e1a05002 	mov	r5, r2
   16450:	ea000005 	b	1646c <test_semWaiter+0x2c>
   16454:	e1a00006 	mov	r0, r6
   16458:	ebffebe7 	bl	113fc <wait>
   1645c:	e5d53000 	ldrb	r3, [r5]
   16460:	e2444001 	sub	r4, r4, #1
   16464:	e2833001 	add	r3, r3, #1
   16468:	e5c53000 	strb	r3, [r5]
   1646c:	e3540000 	cmp	r4, #0
   16470:	cafffff7 	bgt	16454 <test_semWaiter+0x14>
   16474:	e8bd8070 	pop	{r4, r5, r6, pc}

00016478 <test_checkSemCount>:
   16478:	e92d4070 	push	{r4, r5, r6, lr}
   1647c:	e3500063 	cmp	r0, #99	; 0x63
   16480:	e24dd038 	sub	sp, sp, #56	; 0x38
   16484:	e1a04000 	mov	r4, r0
   16488:	e1a05001 	mov	r5, r1
   1648c:	e1a06002 	mov	r6, r2
   16490:	8a000015 	bhi	164ec <test_checkSemCount+0x74>
   16494:	e3a0300c 	mov	r3, #12
   16498:	e0030093 	mul	r3, r3, r0
   1649c:	e59f2058 	ldr	r2, [pc, #88]	; 164fc <test_checkSemCount+0x84>
   164a0:	e7d23003 	ldrb	r3, [r2, r3]
   164a4:	e3530001 	cmp	r3, #1
   164a8:	01a00003 	moveq	r0, r3
   164ac:	0a000010 	beq	164f4 <test_checkSemCount+0x7c>
   164b0:	ebffeb7f 	bl	112b4 <semcount>
   164b4:	e1550000 	cmp	r5, r0
   164b8:	0a00000b 	beq	164ec <test_checkSemCount+0x74>
   164bc:	e1a00004 	mov	r0, r4
   164c0:	ebffeb7b 	bl	112b4 <semcount>
   164c4:	e59f1034 	ldr	r1, [pc, #52]	; 16500 <test_checkSemCount+0x88>
   164c8:	e1a02000 	mov	r2, r0
   164cc:	e1a03005 	mov	r3, r5
   164d0:	e28d0004 	add	r0, sp, #4
   164d4:	eb0015db 	bl	1bc48 <sprintf>
   164d8:	e1a00006 	mov	r0, r6
   164dc:	e28d1004 	add	r1, sp, #4
   164e0:	ebfffb64 	bl	15278 <testFail>
   164e4:	e3a00000 	mov	r0, #0
   164e8:	ea000001 	b	164f4 <test_checkSemCount+0x7c>
   164ec:	e3a00001 	mov	r0, #1
   164f0:	eaffffff 	b	164f4 <test_checkSemCount+0x7c>
   164f4:	e28dd038 	add	sp, sp, #56	; 0x38
   164f8:	e8bd8070 	pop	{r4, r5, r6, pc}
   164fc:	00022820 	.word	0x00022820
   16500:	0001e022 	.word	0x0001e022

00016504 <test_checkProcState>:
   16504:	e92d4010 	push	{r4, lr}
   16508:	e3a03054 	mov	r3, #84	; 0x54
   1650c:	e0030093 	mul	r3, r3, r0
   16510:	e1a04002 	mov	r4, r2
   16514:	e59f2044 	ldr	r2, [pc, #68]	; 16560 <test_checkProcState+0x5c>
   16518:	e1a0c000 	mov	ip, r0
   1651c:	e7d23003 	ldrb	r3, [r2, r3]
   16520:	e24dd040 	sub	sp, sp, #64	; 0x40
   16524:	e1510003 	cmp	r1, r3
   16528:	03a00001 	moveq	r0, #1
   1652c:	0a000009 	beq	16558 <test_checkProcState+0x54>
   16530:	e58d1000 	str	r1, [sp]
   16534:	e1a0200c 	mov	r2, ip
   16538:	e59f1024 	ldr	r1, [pc, #36]	; 16564 <test_checkProcState+0x60>
   1653c:	e28d000c 	add	r0, sp, #12
   16540:	eb0015c0 	bl	1bc48 <sprintf>
   16544:	e1a00004 	mov	r0, r4
   16548:	e28d100c 	add	r1, sp, #12
   1654c:	ebfffb49 	bl	15278 <testFail>
   16550:	e3a00000 	mov	r0, #0
   16554:	eaffffff 	b	16558 <test_checkProcState+0x54>
   16558:	e28dd040 	add	sp, sp, #64	; 0x40
   1655c:	e8bd8010 	pop	{r4, pc}
   16560:	0002074c 	.word	0x0002074c
   16564:	0001e035 	.word	0x0001e035

00016568 <test_checkResult>:
   16568:	e92d4010 	push	{r4, lr}
   1656c:	e1510000 	cmp	r1, r0
   16570:	e1a03000 	mov	r3, r0
   16574:	e24dd050 	sub	sp, sp, #80	; 0x50
   16578:	e1a0c001 	mov	ip, r1
   1657c:	e1a04002 	mov	r4, r2
   16580:	03a00001 	moveq	r0, #1
   16584:	0a000008 	beq	165ac <test_checkResult+0x44>
   16588:	e59f1024 	ldr	r1, [pc, #36]	; 165b4 <test_checkResult+0x4c>
   1658c:	e1a0200c 	mov	r2, ip
   16590:	e1a0000d 	mov	r0, sp
   16594:	eb0015ab 	bl	1bc48 <sprintf>
   16598:	e1a00004 	mov	r0, r4
   1659c:	e1a0100d 	mov	r1, sp
   165a0:	ebfffb34 	bl	15278 <testFail>
   165a4:	e3a00000 	mov	r0, #0
   165a8:	eaffffff 	b	165ac <test_checkResult+0x44>
   165ac:	e28dd050 	add	sp, sp, #80	; 0x50
   165b0:	e8bd8010 	pop	{r4, pc}
   165b4:	0001e04d 	.word	0x0001e04d

000165b8 <test_semaphore>:
   165b8:	e92d41f0 	push	{r4, r5, r6, r7, r8, lr}
   165bc:	e59f12b4 	ldr	r1, [pc, #692]	; 16878 <test_semaphore+0x2c0>
   165c0:	e24dd048 	sub	sp, sp, #72	; 0x48
   165c4:	e3a06000 	mov	r6, #0
   165c8:	e1a04000 	mov	r4, r0
   165cc:	e5cd6013 	strb	r6, [sp, #19]
   165d0:	ebfffb32 	bl	152a0 <testPrint>
   165d4:	e1a00006 	mov	r0, r6
   165d8:	ebffeae7 	bl	1117c <semcreate>
   165dc:	e3500063 	cmp	r0, #99	; 0x63
   165e0:	e1a05000 	mov	r5, r0
   165e4:	8a000005 	bhi	16600 <test_semaphore+0x48>
   165e8:	e3a0300c 	mov	r3, #12
   165ec:	e0030093 	mul	r3, r3, r0
   165f0:	e59f2284 	ldr	r2, [pc, #644]	; 1687c <test_semaphore+0x2c4>
   165f4:	e7d23003 	ldrb	r3, [r2, r3]
   165f8:	e3530001 	cmp	r3, #1
   165fc:	1a000008 	bne	16624 <test_semaphore+0x6c>
   16600:	e59f1278 	ldr	r1, [pc, #632]	; 16880 <test_semaphore+0x2c8>
   16604:	e1a02005 	mov	r2, r5
   16608:	e28d0014 	add	r0, sp, #20
   1660c:	eb00158d 	bl	1bc48 <sprintf>
   16610:	e1a00004 	mov	r0, r4
   16614:	e28d1014 	add	r1, sp, #20
   16618:	ebfffb16 	bl	15278 <testFail>
   1661c:	e3a06000 	mov	r6, #0
   16620:	ea00000a 	b	16650 <test_semaphore+0x98>
   16624:	e1a01006 	mov	r1, r6
   16628:	e1a02004 	mov	r2, r4
   1662c:	ebffff91 	bl	16478 <test_checkSemCount>
   16630:	e3500000 	cmp	r0, #0
   16634:	01a06000 	moveq	r6, r0
   16638:	0a000004 	beq	16650 <test_semaphore+0x98>
   1663c:	e1a00004 	mov	r0, r4
   16640:	e59f123c 	ldr	r1, [pc, #572]	; 16884 <test_semaphore+0x2cc>
   16644:	ebfffb06 	bl	15264 <testPass>
   16648:	e3a06001 	mov	r6, #1
   1664c:	eaffffff 	b	16650 <test_semaphore+0x98>
   16650:	e3a03003 	mov	r3, #3
   16654:	e88d0028 	stm	sp, {r3, r5}
   16658:	e3a08001 	mov	r8, #1
   1665c:	e28d3013 	add	r3, sp, #19
   16660:	e3a0201f 	mov	r2, #31
   16664:	e58d300c 	str	r3, [sp, #12]
   16668:	e3a01801 	mov	r1, #65536	; 0x10000
   1666c:	e59f3214 	ldr	r3, [pc, #532]	; 16888 <test_semaphore+0x2d0>
   16670:	e58d8008 	str	r8, [sp, #8]
   16674:	e59f0210 	ldr	r0, [pc, #528]	; 1688c <test_semaphore+0x2d4>
   16678:	ebffe827 	bl	1071c <create>
   1667c:	e1a01008 	mov	r1, r8
   16680:	e1a07000 	mov	r7, r0
   16684:	ebffe8ce 	bl	109c4 <ready>
   16688:	e1a00004 	mov	r0, r4
   1668c:	e59f11fc 	ldr	r1, [pc, #508]	; 16890 <test_semaphore+0x2d8>
   16690:	ebfffb02 	bl	152a0 <testPrint>
   16694:	e1a00007 	mov	r0, r7
   16698:	e3a01007 	mov	r1, #7
   1669c:	e1a02004 	mov	r2, r4
   166a0:	ebffff97 	bl	16504 <test_checkProcState>
   166a4:	e3500000 	cmp	r0, #0
   166a8:	1a000001 	bne	166b4 <test_semaphore+0xfc>
   166ac:	e3a06000 	mov	r6, #0
   166b0:	ea00000e 	b	166f0 <test_semaphore+0x138>
   166b4:	e1a00005 	mov	r0, r5
   166b8:	e3e01000 	mvn	r1, #0
   166bc:	e1a02004 	mov	r2, r4
   166c0:	ebffff6c 	bl	16478 <test_checkSemCount>
   166c4:	e3500000 	cmp	r0, #0
   166c8:	0afffff7 	beq	166ac <test_semaphore+0xf4>
   166cc:	e5dd0013 	ldrb	r0, [sp, #19]
   166d0:	e3a01000 	mov	r1, #0
   166d4:	e1a02004 	mov	r2, r4
   166d8:	ebffffa2 	bl	16568 <test_checkResult>
   166dc:	e3500000 	cmp	r0, #0
   166e0:	0afffff1 	beq	166ac <test_semaphore+0xf4>
   166e4:	e1a00004 	mov	r0, r4
   166e8:	e59f1194 	ldr	r1, [pc, #404]	; 16884 <test_semaphore+0x2cc>
   166ec:	ebfffadc 	bl	15264 <testPass>
   166f0:	e1a00005 	mov	r0, r5
   166f4:	ebffeafc 	bl	112ec <signal>
   166f8:	e1a00004 	mov	r0, r4
   166fc:	e59f1190 	ldr	r1, [pc, #400]	; 16894 <test_semaphore+0x2dc>
   16700:	ebfffae6 	bl	152a0 <testPrint>
   16704:	e1a00007 	mov	r0, r7
   16708:	e3a01002 	mov	r1, #2
   1670c:	e1a02004 	mov	r2, r4
   16710:	ebffff7b 	bl	16504 <test_checkProcState>
   16714:	e3500000 	cmp	r0, #0
   16718:	1a000001 	bne	16724 <test_semaphore+0x16c>
   1671c:	e3a06000 	mov	r6, #0
   16720:	ea00000e 	b	16760 <test_semaphore+0x1a8>
   16724:	e1a00005 	mov	r0, r5
   16728:	e3a01000 	mov	r1, #0
   1672c:	e1a02004 	mov	r2, r4
   16730:	ebffff50 	bl	16478 <test_checkSemCount>
   16734:	e3500000 	cmp	r0, #0
   16738:	0afffff7 	beq	1671c <test_semaphore+0x164>
   1673c:	e5dd0013 	ldrb	r0, [sp, #19]
   16740:	e3a01001 	mov	r1, #1
   16744:	e1a02004 	mov	r2, r4
   16748:	ebffff86 	bl	16568 <test_checkResult>
   1674c:	e3500000 	cmp	r0, #0
   16750:	0afffff1 	beq	1671c <test_semaphore+0x164>
   16754:	e1a00004 	mov	r0, r4
   16758:	e59f1124 	ldr	r1, [pc, #292]	; 16884 <test_semaphore+0x2cc>
   1675c:	ebfffac0 	bl	15264 <testPass>
   16760:	e3a01005 	mov	r1, #5
   16764:	e1a00005 	mov	r0, r5
   16768:	ebffeafe 	bl	11368 <signaln>
   1676c:	e1a00004 	mov	r0, r4
   16770:	e59f1120 	ldr	r1, [pc, #288]	; 16898 <test_semaphore+0x2e0>
   16774:	ebfffac9 	bl	152a0 <testPrint>
   16778:	e1a00007 	mov	r0, r7
   1677c:	e3a01002 	mov	r1, #2
   16780:	e1a02004 	mov	r2, r4
   16784:	ebffff5e 	bl	16504 <test_checkProcState>
   16788:	e3500000 	cmp	r0, #0
   1678c:	1a000001 	bne	16798 <test_semaphore+0x1e0>
   16790:	e3a06000 	mov	r6, #0
   16794:	ea00000e 	b	167d4 <test_semaphore+0x21c>
   16798:	e1a00005 	mov	r0, r5
   1679c:	e3a01005 	mov	r1, #5
   167a0:	e1a02004 	mov	r2, r4
   167a4:	ebffff33 	bl	16478 <test_checkSemCount>
   167a8:	e3500000 	cmp	r0, #0
   167ac:	0afffff7 	beq	16790 <test_semaphore+0x1d8>
   167b0:	e5dd0013 	ldrb	r0, [sp, #19]
   167b4:	e3a01001 	mov	r1, #1
   167b8:	e1a02004 	mov	r2, r4
   167bc:	ebffff69 	bl	16568 <test_checkResult>
   167c0:	e3500000 	cmp	r0, #0
   167c4:	0afffff1 	beq	16790 <test_semaphore+0x1d8>
   167c8:	e1a00004 	mov	r0, r4
   167cc:	e59f10b0 	ldr	r1, [pc, #176]	; 16884 <test_semaphore+0x2cc>
   167d0:	ebfffaa3 	bl	15264 <testPass>
   167d4:	e1a00005 	mov	r0, r5
   167d8:	ebffea8f 	bl	1121c <semfree>
   167dc:	e1a00004 	mov	r0, r4
   167e0:	e59f10b4 	ldr	r1, [pc, #180]	; 1689c <test_semaphore+0x2e4>
   167e4:	ebfffaad 	bl	152a0 <testPrint>
   167e8:	e1a00005 	mov	r0, r5
   167ec:	ebffeabe 	bl	112ec <signal>
   167f0:	e3700001 	cmn	r0, #1
   167f4:	13a06000 	movne	r6, #0
   167f8:	1a000003 	bne	1680c <test_semaphore+0x254>
   167fc:	e1a00004 	mov	r0, r4
   16800:	e59f107c 	ldr	r1, [pc, #124]	; 16884 <test_semaphore+0x2cc>
   16804:	ebfffa96 	bl	15264 <testPass>
   16808:	eaffffff 	b	1680c <test_semaphore+0x254>
   1680c:	e1a00004 	mov	r0, r4
   16810:	e59f1088 	ldr	r1, [pc, #136]	; 168a0 <test_semaphore+0x2e8>
   16814:	ebfffaa1 	bl	152a0 <testPrint>
   16818:	e1a00005 	mov	r0, r5
   1681c:	e3a01004 	mov	r1, #4
   16820:	ebffead0 	bl	11368 <signaln>
   16824:	e3700001 	cmn	r0, #1
   16828:	13a06000 	movne	r6, #0
   1682c:	1a000003 	bne	16840 <test_semaphore+0x288>
   16830:	e1a00004 	mov	r0, r4
   16834:	e59f1048 	ldr	r1, [pc, #72]	; 16884 <test_semaphore+0x2cc>
   16838:	ebfffa89 	bl	15264 <testPass>
   1683c:	eaffffff 	b	16840 <test_semaphore+0x288>
   16840:	e1a00007 	mov	r0, r7
   16844:	ebffe815 	bl	108a0 <kill>
   16848:	e3560001 	cmp	r6, #1
   1684c:	1a000003 	bne	16860 <test_semaphore+0x2a8>
   16850:	e1a00006 	mov	r0, r6
   16854:	e59f1028 	ldr	r1, [pc, #40]	; 16884 <test_semaphore+0x2cc>
   16858:	ebfffa81 	bl	15264 <testPass>
   1685c:	ea000002 	b	1686c <test_semaphore+0x2b4>
   16860:	e3a00001 	mov	r0, #1
   16864:	e59f1018 	ldr	r1, [pc, #24]	; 16884 <test_semaphore+0x2cc>
   16868:	ebfffa82 	bl	15278 <testFail>
   1686c:	e3a00001 	mov	r0, #1
   16870:	e28dd048 	add	sp, sp, #72	; 0x48
   16874:	e8bd81f0 	pop	{r4, r5, r6, r7, r8, pc}
   16878:	0001dc2c 	.word	0x0001dc2c
   1687c:	00022820 	.word	0x00022820
   16880:	0001f59d 	.word	0x0001f59d
   16884:	0001d661 	.word	0x0001d661
   16888:	0001dc41 	.word	0x0001dc41
   1688c:	00016440 	.word	0x00016440
   16890:	0001dc59 	.word	0x0001dc59
   16894:	0001e07e 	.word	0x0001e07e
   16898:	0001e091 	.word	0x0001e091
   1689c:	0001e0b3 	.word	0x0001e0b3
   168a0:	0001e0ca 	.word	0x0001e0ca

000168a4 <test_deltaQueue>:
   168a4:	e92d4ff0 	push	{r4, r5, r6, r7, r8, r9, sl, fp, lr}
   168a8:	e1a06000 	mov	r6, r0
   168ac:	e24dd054 	sub	sp, sp, #84	; 0x54
   168b0:	e3a00000 	mov	r0, #0
   168b4:	ebffea30 	bl	1117c <semcreate>
   168b8:	e3500063 	cmp	r0, #99	; 0x63
   168bc:	e58d0014 	str	r0, [sp, #20]
   168c0:	8a000006 	bhi	168e0 <test_deltaQueue+0x3c>
   168c4:	e3a0300c 	mov	r3, #12
   168c8:	e0030093 	mul	r3, r3, r0
   168cc:	e59f23a8 	ldr	r2, [pc, #936]	; 16c7c <test_deltaQueue+0x3d8>
   168d0:	e7d23003 	ldrb	r3, [r2, r3]
   168d4:	e3530001 	cmp	r3, #1
   168d8:	13a05001 	movne	r5, #1
   168dc:	1a000008 	bne	16904 <test_deltaQueue+0x60>
   168e0:	e59f1398 	ldr	r1, [pc, #920]	; 16c80 <test_deltaQueue+0x3dc>
   168e4:	e59d2014 	ldr	r2, [sp, #20]
   168e8:	e28d001c 	add	r0, sp, #28
   168ec:	eb0014d5 	bl	1bc48 <sprintf>
   168f0:	e1a00006 	mov	r0, r6
   168f4:	e28d101c 	add	r1, sp, #28
   168f8:	ebfffa5e 	bl	15278 <testFail>
   168fc:	e3a05000 	mov	r5, #0
   16900:	eaffffff 	b	16904 <test_deltaQueue+0x60>
   16904:	e59d1014 	ldr	r1, [sp, #20]
   16908:	e59f336c 	ldr	r3, [pc, #876]	; 16c7c <test_deltaQueue+0x3d8>
   1690c:	e3a0200c 	mov	r2, #12
   16910:	e0233192 	mla	r3, r2, r1, r3
   16914:	e3a0b000 	mov	fp, #0
   16918:	e5934008 	ldr	r4, [r3, #8]
   1691c:	e3a01801 	mov	r1, #65536	; 0x10000
   16920:	e1a0200b 	mov	r2, fp
   16924:	e59f3358 	ldr	r3, [pc, #856]	; 16c84 <test_deltaQueue+0x3e0>
   16928:	e58db000 	str	fp, [sp]
   1692c:	e1a0000b 	mov	r0, fp
   16930:	ebffe779 	bl	1071c <create>
   16934:	e3a01801 	mov	r1, #65536	; 0x10000
   16938:	e1a09000 	mov	r9, r0
   1693c:	e1a0200b 	mov	r2, fp
   16940:	e59f3340 	ldr	r3, [pc, #832]	; 16c88 <test_deltaQueue+0x3e4>
   16944:	e58db000 	str	fp, [sp]
   16948:	e1a0000b 	mov	r0, fp
   1694c:	ebffe772 	bl	1071c <create>
   16950:	e3a01801 	mov	r1, #65536	; 0x10000
   16954:	e1a0a000 	mov	sl, r0
   16958:	e1a0200b 	mov	r2, fp
   1695c:	e59f3328 	ldr	r3, [pc, #808]	; 16c8c <test_deltaQueue+0x3e8>
   16960:	e58db000 	str	fp, [sp]
   16964:	e1a0000b 	mov	r0, fp
   16968:	ebffe76b 	bl	1071c <create>
   1696c:	e58db000 	str	fp, [sp]
   16970:	e1a08000 	mov	r8, r0
   16974:	e3a01801 	mov	r1, #65536	; 0x10000
   16978:	e1a0000b 	mov	r0, fp
   1697c:	e1a0200b 	mov	r2, fp
   16980:	e59f3308 	ldr	r3, [pc, #776]	; 16c90 <test_deltaQueue+0x3ec>
   16984:	ebffe764 	bl	1071c <create>
   16988:	e37a0001 	cmn	sl, #1
   1698c:	13790001 	cmnne	r9, #1
   16990:	e1a07000 	mov	r7, r0
   16994:	01a0500b 	moveq	r5, fp
   16998:	0a000003 	beq	169ac <test_deltaQueue+0x108>
   1699c:	e3700001 	cmn	r0, #1
   169a0:	13780001 	cmnne	r8, #1
   169a4:	01a0500b 	moveq	r5, fp
   169a8:	eaffffff 	b	169ac <test_deltaQueue+0x108>
   169ac:	e1a00006 	mov	r0, r6
   169b0:	e59f12dc 	ldr	r1, [pc, #732]	; 16c94 <test_deltaQueue+0x3f0>
   169b4:	ebfffa39 	bl	152a0 <testPrint>
   169b8:	e1a01004 	mov	r1, r4
   169bc:	e3a02005 	mov	r2, #5
   169c0:	e1a0000a 	mov	r0, sl
   169c4:	ebffe956 	bl	10f24 <insertd>
   169c8:	e1a01004 	mov	r1, r4
   169cc:	e3a02006 	mov	r2, #6
   169d0:	e1a00008 	mov	r0, r8
   169d4:	ebffe952 	bl	10f24 <insertd>
   169d8:	e1a01004 	mov	r1, r4
   169dc:	e3a02004 	mov	r2, #4
   169e0:	e1a00009 	mov	r0, r9
   169e4:	ebffe94e 	bl	10f24 <insertd>
   169e8:	e1a01004 	mov	r1, r4
   169ec:	e3a02007 	mov	r2, #7
   169f0:	e1a00007 	mov	r0, r7
   169f4:	ebffe94a 	bl	10f24 <insertd>
   169f8:	e59f3298 	ldr	r3, [pc, #664]	; 16c98 <test_deltaQueue+0x3f4>
   169fc:	e3a0200c 	mov	r2, #12
   16a00:	e0213492 	mla	r1, r2, r4, r3
   16a04:	e5910004 	ldr	r0, [r1, #4]
   16a08:	e0000092 	mul	r0, r2, r0
   16a0c:	e7930000 	ldr	r0, [r3, r0]
   16a10:	e3500004 	cmp	r0, #4
   16a14:	1a00002b 	bne	16ac8 <test_deltaQueue+0x224>
   16a18:	e1a00004 	mov	r0, r4
   16a1c:	e58d1008 	str	r1, [sp, #8]
   16a20:	e58d200c 	str	r2, [sp, #12]
   16a24:	e58d3010 	str	r3, [sp, #16]
   16a28:	ebffe71c 	bl	106a0 <dequeue>
   16a2c:	e28d1008 	add	r1, sp, #8
   16a30:	e2509000 	subs	r9, r0, #0
   16a34:	e891000e 	ldm	r1, {r1, r2, r3}
   16a38:	0a000022 	beq	16ac8 <test_deltaQueue+0x224>
   16a3c:	e5910004 	ldr	r0, [r1, #4]
   16a40:	e0000092 	mul	r0, r2, r0
   16a44:	e7930000 	ldr	r0, [r3, r0]
   16a48:	e3500001 	cmp	r0, #1
   16a4c:	1a00001d 	bne	16ac8 <test_deltaQueue+0x224>
   16a50:	e1a00004 	mov	r0, r4
   16a54:	ebffe711 	bl	106a0 <dequeue>
   16a58:	e28d1008 	add	r1, sp, #8
   16a5c:	e250a000 	subs	sl, r0, #0
   16a60:	e891000e 	ldm	r1, {r1, r2, r3}
   16a64:	0a000017 	beq	16ac8 <test_deltaQueue+0x224>
   16a68:	e5910004 	ldr	r0, [r1, #4]
   16a6c:	e0000092 	mul	r0, r2, r0
   16a70:	e7930000 	ldr	r0, [r3, r0]
   16a74:	e3500001 	cmp	r0, #1
   16a78:	1a000012 	bne	16ac8 <test_deltaQueue+0x224>
   16a7c:	e1a00004 	mov	r0, r4
   16a80:	ebffe706 	bl	106a0 <dequeue>
   16a84:	e28d1008 	add	r1, sp, #8
   16a88:	e2508000 	subs	r8, r0, #0
   16a8c:	e891000e 	ldm	r1, {r1, r2, r3}
   16a90:	0a00000c 	beq	16ac8 <test_deltaQueue+0x224>
   16a94:	e5911004 	ldr	r1, [r1, #4]
   16a98:	e0020192 	mul	r2, r2, r1
   16a9c:	e7933002 	ldr	r3, [r3, r2]
   16aa0:	e3530001 	cmp	r3, #1
   16aa4:	1a000007 	bne	16ac8 <test_deltaQueue+0x224>
   16aa8:	e1a00004 	mov	r0, r4
   16aac:	ebffe6fb 	bl	106a0 <dequeue>
   16ab0:	e2507000 	subs	r7, r0, #0
   16ab4:	0a000003 	beq	16ac8 <test_deltaQueue+0x224>
   16ab8:	e1a00006 	mov	r0, r6
   16abc:	e59f11d8 	ldr	r1, [pc, #472]	; 16c9c <test_deltaQueue+0x3f8>
   16ac0:	ebfff9e7 	bl	15264 <testPass>
   16ac4:	ea000003 	b	16ad8 <test_deltaQueue+0x234>
   16ac8:	e1a00006 	mov	r0, r6
   16acc:	e59f11cc 	ldr	r1, [pc, #460]	; 16ca0 <test_deltaQueue+0x3fc>
   16ad0:	ebfff9e8 	bl	15278 <testFail>
   16ad4:	e3a05000 	mov	r5, #0
   16ad8:	e1a00004 	mov	r0, r4
   16adc:	ebffe6ef 	bl	106a0 <dequeue>
   16ae0:	e3700002 	cmn	r0, #2
   16ae4:	1afffffb 	bne	16ad8 <test_deltaQueue+0x234>
   16ae8:	e1a00006 	mov	r0, r6
   16aec:	e59f11b0 	ldr	r1, [pc, #432]	; 16ca4 <test_deltaQueue+0x400>
   16af0:	ebfff9ea 	bl	152a0 <testPrint>
   16af4:	e1a01004 	mov	r1, r4
   16af8:	e3a02005 	mov	r2, #5
   16afc:	e1a00009 	mov	r0, r9
   16b00:	ebffe907 	bl	10f24 <insertd>
   16b04:	e1a01004 	mov	r1, r4
   16b08:	e3a02005 	mov	r2, #5
   16b0c:	e1a0000a 	mov	r0, sl
   16b10:	ebffe903 	bl	10f24 <insertd>
   16b14:	e1a01004 	mov	r1, r4
   16b18:	e3a02005 	mov	r2, #5
   16b1c:	e1a00008 	mov	r0, r8
   16b20:	ebffe8ff 	bl	10f24 <insertd>
   16b24:	e1a01004 	mov	r1, r4
   16b28:	e3a02005 	mov	r2, #5
   16b2c:	e1a00007 	mov	r0, r7
   16b30:	ebffe8fb 	bl	10f24 <insertd>
   16b34:	e59f315c 	ldr	r3, [pc, #348]	; 16c98 <test_deltaQueue+0x3f4>
   16b38:	e3a0200c 	mov	r2, #12
   16b3c:	e0213492 	mla	r1, r2, r4, r3
   16b40:	e5910004 	ldr	r0, [r1, #4]
   16b44:	e0000092 	mul	r0, r2, r0
   16b48:	e7930000 	ldr	r0, [r3, r0]
   16b4c:	e3500005 	cmp	r0, #5
   16b50:	1a00002b 	bne	16c04 <test_deltaQueue+0x360>
   16b54:	e1a00004 	mov	r0, r4
   16b58:	e58d1008 	str	r1, [sp, #8]
   16b5c:	e58d200c 	str	r2, [sp, #12]
   16b60:	e58d3010 	str	r3, [sp, #16]
   16b64:	ebffe6cd 	bl	106a0 <dequeue>
   16b68:	e28d1008 	add	r1, sp, #8
   16b6c:	e2509000 	subs	r9, r0, #0
   16b70:	e891000e 	ldm	r1, {r1, r2, r3}
   16b74:	0a000022 	beq	16c04 <test_deltaQueue+0x360>
   16b78:	e5910004 	ldr	r0, [r1, #4]
   16b7c:	e0000092 	mul	r0, r2, r0
   16b80:	e7930000 	ldr	r0, [r3, r0]
   16b84:	e3500000 	cmp	r0, #0
   16b88:	1a00001d 	bne	16c04 <test_deltaQueue+0x360>
   16b8c:	e1a00004 	mov	r0, r4
   16b90:	ebffe6c2 	bl	106a0 <dequeue>
   16b94:	e28d1008 	add	r1, sp, #8
   16b98:	e250a000 	subs	sl, r0, #0
   16b9c:	e891000e 	ldm	r1, {r1, r2, r3}
   16ba0:	0a000017 	beq	16c04 <test_deltaQueue+0x360>
   16ba4:	e5910004 	ldr	r0, [r1, #4]
   16ba8:	e0000092 	mul	r0, r2, r0
   16bac:	e7930000 	ldr	r0, [r3, r0]
   16bb0:	e3500000 	cmp	r0, #0
   16bb4:	1a000012 	bne	16c04 <test_deltaQueue+0x360>
   16bb8:	e1a00004 	mov	r0, r4
   16bbc:	ebffe6b7 	bl	106a0 <dequeue>
   16bc0:	e28d1008 	add	r1, sp, #8
   16bc4:	e2508000 	subs	r8, r0, #0
   16bc8:	e891000e 	ldm	r1, {r1, r2, r3}
   16bcc:	0a00000c 	beq	16c04 <test_deltaQueue+0x360>
   16bd0:	e5911004 	ldr	r1, [r1, #4]
   16bd4:	e0020192 	mul	r2, r2, r1
   16bd8:	e7933002 	ldr	r3, [r3, r2]
   16bdc:	e3530000 	cmp	r3, #0
   16be0:	1a000007 	bne	16c04 <test_deltaQueue+0x360>
   16be4:	e1a00004 	mov	r0, r4
   16be8:	ebffe6ac 	bl	106a0 <dequeue>
   16bec:	e2507000 	subs	r7, r0, #0
   16bf0:	0a000003 	beq	16c04 <test_deltaQueue+0x360>
   16bf4:	e1a00006 	mov	r0, r6
   16bf8:	e59f109c 	ldr	r1, [pc, #156]	; 16c9c <test_deltaQueue+0x3f8>
   16bfc:	ebfff998 	bl	15264 <testPass>
   16c00:	ea000003 	b	16c14 <test_deltaQueue+0x370>
   16c04:	e1a00006 	mov	r0, r6
   16c08:	e59f1090 	ldr	r1, [pc, #144]	; 16ca0 <test_deltaQueue+0x3fc>
   16c0c:	ebfff999 	bl	15278 <testFail>
   16c10:	e3a05000 	mov	r5, #0
   16c14:	e1a00004 	mov	r0, r4
   16c18:	ebffe6a0 	bl	106a0 <dequeue>
   16c1c:	e3700002 	cmn	r0, #2
   16c20:	1afffffb 	bne	16c14 <test_deltaQueue+0x370>
   16c24:	e1a00009 	mov	r0, r9
   16c28:	ebffe71c 	bl	108a0 <kill>
   16c2c:	e1a0000a 	mov	r0, sl
   16c30:	ebffe71a 	bl	108a0 <kill>
   16c34:	e1a00008 	mov	r0, r8
   16c38:	ebffe718 	bl	108a0 <kill>
   16c3c:	e1a00007 	mov	r0, r7
   16c40:	ebffe716 	bl	108a0 <kill>
   16c44:	e59d0014 	ldr	r0, [sp, #20]
   16c48:	ebffe973 	bl	1121c <semfree>
   16c4c:	e3550001 	cmp	r5, #1
   16c50:	1a000003 	bne	16c64 <test_deltaQueue+0x3c0>
   16c54:	e1a00005 	mov	r0, r5
   16c58:	e59f103c 	ldr	r1, [pc, #60]	; 16c9c <test_deltaQueue+0x3f8>
   16c5c:	ebfff980 	bl	15264 <testPass>
   16c60:	ea000002 	b	16c70 <test_deltaQueue+0x3cc>
   16c64:	e3a00001 	mov	r0, #1
   16c68:	e59f102c 	ldr	r1, [pc, #44]	; 16c9c <test_deltaQueue+0x3f8>
   16c6c:	ebfff981 	bl	15278 <testFail>
   16c70:	e3a00001 	mov	r0, #1
   16c74:	e28dd054 	add	sp, sp, #84	; 0x54
   16c78:	e8bd8ff0 	pop	{r4, r5, r6, r7, r8, r9, sl, fp, pc}
   16c7c:	00022820 	.word	0x00022820
   16c80:	0001e0e2 	.word	0x0001e0e2
   16c84:	0001e0f3 	.word	0x0001e0f3
   16c88:	0001e0fb 	.word	0x0001e0fb
   16c8c:	0001e103 	.word	0x0001e103
   16c90:	0001e10b 	.word	0x0001e10b
   16c94:	0001e113 	.word	0x0001e113
   16c98:	00022d9c 	.word	0x00022d9c
   16c9c:	0001d661 	.word	0x0001d661
   16ca0:	0001e121 	.word	0x0001e121
   16ca4:	0001e136 	.word	0x0001e136

00016ca8 <test_netaddr>:
   16ca8:	e92d4008 	push	{r3, lr}
   16cac:	e3a00001 	mov	r0, #1
   16cb0:	e59f1008 	ldr	r1, [pc, #8]	; 16cc0 <test_netaddr+0x18>
   16cb4:	ebfff974 	bl	1528c <testSkip>
   16cb8:	e3a00001 	mov	r0, #1
   16cbc:	e8bd8008 	pop	{r3, pc}
   16cc0:	0001d661 	.word	0x0001d661

00016cc4 <test_snoop>:
   16cc4:	e92d4008 	push	{r3, lr}
   16cc8:	e3a00001 	mov	r0, #1
   16ccc:	e59f1008 	ldr	r1, [pc, #8]	; 16cdc <test_snoop+0x18>
   16cd0:	ebfff96d 	bl	1528c <testSkip>
   16cd4:	e3a00001 	mov	r0, #1
   16cd8:	e8bd8008 	pop	{r3, pc}
   16cdc:	0001d661 	.word	0x0001d661

00016ce0 <test_ether>:
   16ce0:	e92d4008 	push	{r3, lr}
   16ce4:	e3a00001 	mov	r0, #1
   16ce8:	e59f1008 	ldr	r1, [pc, #8]	; 16cf8 <test_ether+0x18>
   16cec:	ebfff966 	bl	1528c <testSkip>
   16cf0:	e3a00001 	mov	r0, #1
   16cf4:	e8bd8008 	pop	{r3, pc}
   16cf8:	0001d661 	.word	0x0001d661

00016cfc <test_netif>:
   16cfc:	e92d4008 	push	{r3, lr}
   16d00:	e3a00001 	mov	r0, #1
   16d04:	e59f1008 	ldr	r1, [pc, #8]	; 16d14 <test_netif+0x18>
   16d08:	ebfff95f 	bl	1528c <testSkip>
   16d0c:	e3a00001 	mov	r0, #1
   16d10:	e8bd8008 	pop	{r3, pc}
   16d14:	0001d661 	.word	0x0001d661

00016d18 <test_ethloop>:
   16d18:	e92d4008 	push	{r3, lr}
   16d1c:	e3a00001 	mov	r0, #1
   16d20:	e59f1008 	ldr	r1, [pc, #8]	; 16d30 <test_ethloop+0x18>
   16d24:	ebfff958 	bl	1528c <testSkip>
   16d28:	e3a00001 	mov	r0, #1
   16d2c:	e8bd8008 	pop	{r3, pc}
   16d30:	0001d661 	.word	0x0001d661

00016d34 <test_nvram>:
   16d34:	e92d4008 	push	{r3, lr}
   16d38:	e3a00001 	mov	r0, #1
   16d3c:	e59f1008 	ldr	r1, [pc, #8]	; 16d4c <test_nvram+0x18>
   16d40:	ebfff951 	bl	1528c <testSkip>
   16d44:	e3a00001 	mov	r0, #1
   16d48:	e8bd8008 	pop	{r3, pc}
   16d4c:	0001d661 	.word	0x0001d661

00016d50 <test_system>:
   16d50:	e92d4070 	push	{r4, r5, r6, lr}
   16d54:	e59f11c8 	ldr	r1, [pc, #456]	; 16f24 <test_system+0x1d4>
   16d58:	e1a04000 	mov	r4, r0
   16d5c:	ebfff94f 	bl	152a0 <testPrint>
   16d60:	e59f31c0 	ldr	r3, [pc, #448]	; 16f28 <test_system+0x1d8>
   16d64:	e5935000 	ldr	r5, [r3]
   16d68:	ebffe7fd 	bl	10d64 <gettid>
   16d6c:	e1550000 	cmp	r5, r0
   16d70:	e1a00004 	mov	r0, r4
   16d74:	0a000007 	beq	16d98 <test_system+0x48>
   16d78:	e59f11ac 	ldr	r1, [pc, #428]	; 16f2c <test_system+0x1dc>
   16d7c:	ebfff93d 	bl	15278 <testFail>
   16d80:	e59f01a8 	ldr	r0, [pc, #424]	; 16f30 <test_system+0x1e0>
   16d84:	e59f11a8 	ldr	r1, [pc, #424]	; 16f34 <test_system+0x1e4>
   16d88:	e3a02013 	mov	r2, #19
   16d8c:	eb001354 	bl	1bae4 <printf>
   16d90:	e3a05000 	mov	r5, #0
   16d94:	ea000002 	b	16da4 <test_system+0x54>
   16d98:	e59f1198 	ldr	r1, [pc, #408]	; 16f38 <test_system+0x1e8>
   16d9c:	ebfff930 	bl	15264 <testPass>
   16da0:	e3a05001 	mov	r5, #1
   16da4:	e59f1190 	ldr	r1, [pc, #400]	; 16f3c <test_system+0x1ec>
   16da8:	e1a00004 	mov	r0, r4
   16dac:	ebfff93b 	bl	152a0 <testPrint>
   16db0:	ebffe7eb 	bl	10d64 <gettid>
   16db4:	e59f3184 	ldr	r3, [pc, #388]	; 16f40 <test_system+0x1f0>
   16db8:	e3a02054 	mov	r2, #84	; 0x54
   16dbc:	e0203092 	mla	r0, r2, r0, r3
   16dc0:	e5906004 	ldr	r6, [r0, #4]
   16dc4:	ebffe7e6 	bl	10d64 <gettid>
   16dc8:	ebffe756 	bl	10b28 <getprio>
   16dcc:	e1560000 	cmp	r6, r0
   16dd0:	e1a00004 	mov	r0, r4
   16dd4:	0a000007 	beq	16df8 <test_system+0xa8>
   16dd8:	e59f1164 	ldr	r1, [pc, #356]	; 16f44 <test_system+0x1f4>
   16ddc:	ebfff925 	bl	15278 <testFail>
   16de0:	e59f0148 	ldr	r0, [pc, #328]	; 16f30 <test_system+0x1e0>
   16de4:	e59f1148 	ldr	r1, [pc, #328]	; 16f34 <test_system+0x1e4>
   16de8:	e3a02017 	mov	r2, #23
   16dec:	eb00133c 	bl	1bae4 <printf>
   16df0:	e3a05000 	mov	r5, #0
   16df4:	ea000001 	b	16e00 <test_system+0xb0>
   16df8:	e59f1138 	ldr	r1, [pc, #312]	; 16f38 <test_system+0x1e8>
   16dfc:	ebfff918 	bl	15264 <testPass>
   16e00:	e3e00000 	mvn	r0, #0
   16e04:	ebffe747 	bl	10b28 <getprio>
   16e08:	e3700001 	cmn	r0, #1
   16e0c:	e1a00004 	mov	r0, r4
   16e10:	0a000007 	beq	16e34 <test_system+0xe4>
   16e14:	e59f112c 	ldr	r1, [pc, #300]	; 16f48 <test_system+0x1f8>
   16e18:	ebfff916 	bl	15278 <testFail>
   16e1c:	e59f010c 	ldr	r0, [pc, #268]	; 16f30 <test_system+0x1e0>
   16e20:	e59f110c 	ldr	r1, [pc, #268]	; 16f34 <test_system+0x1e4>
   16e24:	e3a02019 	mov	r2, #25
   16e28:	eb00132d 	bl	1bae4 <printf>
   16e2c:	e3a05000 	mov	r5, #0
   16e30:	ea000001 	b	16e3c <test_system+0xec>
   16e34:	e59f10fc 	ldr	r1, [pc, #252]	; 16f38 <test_system+0x1e8>
   16e38:	ebfff909 	bl	15264 <testPass>
   16e3c:	e3a00064 	mov	r0, #100	; 0x64
   16e40:	ebffe738 	bl	10b28 <getprio>
   16e44:	e3700001 	cmn	r0, #1
   16e48:	e1a00004 	mov	r0, r4
   16e4c:	0a000007 	beq	16e70 <test_system+0x120>
   16e50:	e59f10f0 	ldr	r1, [pc, #240]	; 16f48 <test_system+0x1f8>
   16e54:	ebfff907 	bl	15278 <testFail>
   16e58:	e59f00d0 	ldr	r0, [pc, #208]	; 16f30 <test_system+0x1e0>
   16e5c:	e59f10d0 	ldr	r1, [pc, #208]	; 16f34 <test_system+0x1e4>
   16e60:	e3a0201b 	mov	r2, #27
   16e64:	eb00131e 	bl	1bae4 <printf>
   16e68:	e3a05000 	mov	r5, #0
   16e6c:	ea000001 	b	16e78 <test_system+0x128>
   16e70:	e59f10c0 	ldr	r1, [pc, #192]	; 16f38 <test_system+0x1e8>
   16e74:	ebfff8fa 	bl	15264 <testPass>
   16e78:	e1a00004 	mov	r0, r4
   16e7c:	e59f10c8 	ldr	r1, [pc, #200]	; 16f4c <test_system+0x1fc>
   16e80:	ebfff906 	bl	152a0 <testPrint>
   16e84:	e59f00c4 	ldr	r0, [pc, #196]	; 16f50 <test_system+0x200>
   16e88:	ebffeb8a 	bl	11cb8 <getdev>
   16e8c:	e3500000 	cmp	r0, #0
   16e90:	e1a00004 	mov	r0, r4
   16e94:	0a000007 	beq	16eb8 <test_system+0x168>
   16e98:	e59f10b4 	ldr	r1, [pc, #180]	; 16f54 <test_system+0x204>
   16e9c:	ebfff8f5 	bl	15278 <testFail>
   16ea0:	e59f0088 	ldr	r0, [pc, #136]	; 16f30 <test_system+0x1e0>
   16ea4:	e59f1088 	ldr	r1, [pc, #136]	; 16f34 <test_system+0x1e4>
   16ea8:	e3a0201e 	mov	r2, #30
   16eac:	eb00130c 	bl	1bae4 <printf>
   16eb0:	e3a05000 	mov	r5, #0
   16eb4:	ea000001 	b	16ec0 <test_system+0x170>
   16eb8:	e59f1078 	ldr	r1, [pc, #120]	; 16f38 <test_system+0x1e8>
   16ebc:	ebfff8e8 	bl	15264 <testPass>
   16ec0:	e59f0090 	ldr	r0, [pc, #144]	; 16f58 <test_system+0x208>
   16ec4:	ebffeb7b 	bl	11cb8 <getdev>
   16ec8:	e3700001 	cmn	r0, #1
   16ecc:	e1a00004 	mov	r0, r4
   16ed0:	0a000006 	beq	16ef0 <test_system+0x1a0>
   16ed4:	e59f1078 	ldr	r1, [pc, #120]	; 16f54 <test_system+0x204>
   16ed8:	ebfff8e6 	bl	15278 <testFail>
   16edc:	e59f1050 	ldr	r1, [pc, #80]	; 16f34 <test_system+0x1e4>
   16ee0:	e3a0201f 	mov	r2, #31
   16ee4:	e59f0044 	ldr	r0, [pc, #68]	; 16f30 <test_system+0x1e0>
   16ee8:	eb0012fd 	bl	1bae4 <printf>
   16eec:	ea000007 	b	16f10 <test_system+0x1c0>
   16ef0:	e59f1040 	ldr	r1, [pc, #64]	; 16f38 <test_system+0x1e8>
   16ef4:	ebfff8da 	bl	15264 <testPass>
   16ef8:	e3550000 	cmp	r5, #0
   16efc:	0a000003 	beq	16f10 <test_system+0x1c0>
   16f00:	e3a00001 	mov	r0, #1
   16f04:	e59f102c 	ldr	r1, [pc, #44]	; 16f38 <test_system+0x1e8>
   16f08:	ebfff8d5 	bl	15264 <testPass>
   16f0c:	ea000002 	b	16f1c <test_system+0x1cc>
   16f10:	e3a00001 	mov	r0, #1
   16f14:	e59f101c 	ldr	r1, [pc, #28]	; 16f38 <test_system+0x1e8>
   16f18:	ebfff8d6 	bl	15278 <testFail>
   16f1c:	e3a00001 	mov	r0, #1
   16f20:	e8bd8070 	pop	{r4, r5, r6, pc}
   16f24:	0001e141 	.word	0x0001e141
   16f28:	0002281c 	.word	0x0002281c
   16f2c:	0001e153 	.word	0x0001e153
   16f30:	0001e177 	.word	0x0001e177
   16f34:	0001e180 	.word	0x0001e180
   16f38:	0001d661 	.word	0x0001d661
   16f3c:	0001e196 	.word	0x0001e196
   16f40:	0002074c 	.word	0x0002074c
   16f44:	0001e1a9 	.word	0x0001e1a9
   16f48:	0001e1c8 	.word	0x0001e1c8
   16f4c:	0001e1f5 	.word	0x0001e1f5
   16f50:	0001e207 	.word	0x0001e207
   16f54:	0001e20f 	.word	0x0001e20f
   16f58:	0001e21d 	.word	0x0001e21d

00016f5c <test_ip>:
   16f5c:	e92d4008 	push	{r3, lr}
   16f60:	e3a00001 	mov	r0, #1
   16f64:	e59f1008 	ldr	r1, [pc, #8]	; 16f74 <test_ip+0x18>
   16f68:	ebfff8c7 	bl	1528c <testSkip>
   16f6c:	e3a00001 	mov	r0, #1
   16f70:	e8bd8008 	pop	{r3, pc}
   16f74:	0001d661 	.word	0x0001d661

00016f78 <spin>:
   16f78:	e24dd008 	sub	sp, sp, #8
   16f7c:	e3a03001 	mov	r3, #1
   16f80:	e58d3004 	str	r3, [sp, #4]
   16f84:	e59d3004 	ldr	r3, [sp, #4]
   16f88:	e3530000 	cmp	r3, #0
   16f8c:	1afffffc 	bne	16f84 <spin+0xc>
   16f90:	e3a00001 	mov	r0, #1
   16f94:	e28dd008 	add	sp, sp, #8
   16f98:	e12fff1e 	bx	lr

00016f9c <test_preempt>:
   16f9c:	e92d4013 	push	{r0, r1, r4, lr}
   16fa0:	e59f3050 	ldr	r3, [pc, #80]	; 16ff8 <test_preempt+0x5c>
   16fa4:	e59f2050 	ldr	r2, [pc, #80]	; 16ffc <test_preempt+0x60>
   16fa8:	e5933000 	ldr	r3, [r3]
   16fac:	e3a01054 	mov	r1, #84	; 0x54
   16fb0:	e0232391 	mla	r3, r1, r3, r2
   16fb4:	e3a02000 	mov	r2, #0
   16fb8:	e58d2000 	str	r2, [sp]
   16fbc:	e5932004 	ldr	r2, [r3, #4]
   16fc0:	e3a01801 	mov	r1, #65536	; 0x10000
   16fc4:	e59f3034 	ldr	r3, [pc, #52]	; 17000 <test_preempt+0x64>
   16fc8:	e59f0034 	ldr	r0, [pc, #52]	; 17004 <test_preempt+0x68>
   16fcc:	ebffe5d2 	bl	1071c <create>
   16fd0:	e3a01001 	mov	r1, #1
   16fd4:	e1a04000 	mov	r4, r0
   16fd8:	ebffe679 	bl	109c4 <ready>
   16fdc:	e1a00004 	mov	r0, r4
   16fe0:	ebffe62e 	bl	108a0 <kill>
   16fe4:	e3a00001 	mov	r0, #1
   16fe8:	e59f1018 	ldr	r1, [pc, #24]	; 17008 <test_preempt+0x6c>
   16fec:	ebfff89c 	bl	15264 <testPass>
   16ff0:	e3a00001 	mov	r0, #1
   16ff4:	e8bd801c 	pop	{r2, r3, r4, pc}
   16ff8:	0002281c 	.word	0x0002281c
   16ffc:	0002074c 	.word	0x0002074c
   17000:	0001e224 	.word	0x0001e224
   17004:	00016f78 	.word	0x00016f78
   17008:	0001d661 	.word	0x0001d661

0001700c <test_tlb>:
   1700c:	e92d4008 	push	{r3, lr}
   17010:	e3a00001 	mov	r0, #1
   17014:	e59f1008 	ldr	r1, [pc, #8]	; 17024 <test_tlb+0x18>
   17018:	ebfff89b 	bl	1528c <testSkip>
   1701c:	e3a00001 	mov	r0, #1
   17020:	e8bd8008 	pop	{r3, pc}
   17024:	0001d661 	.word	0x0001d661

00017028 <test_libCtype>:
   17028:	e92d41f0 	push	{r4, r5, r6, r7, r8, lr}
   1702c:	e59f12f4 	ldr	r1, [pc, #756]	; 17328 <test_libCtype+0x300>
   17030:	e24dd038 	sub	sp, sp, #56	; 0x38
   17034:	e1a04000 	mov	r4, r0
   17038:	ebfff898 	bl	152a0 <testPrint>
   1703c:	e59f62e8 	ldr	r6, [pc, #744]	; 1732c <test_libCtype+0x304>
   17040:	e3a05001 	mov	r5, #1
   17044:	e2467041 	sub	r7, r6, #65	; 0x41
   17048:	e287805b 	add	r8, r7, #91	; 0x5b
   1704c:	e0672006 	rsb	r2, r7, r6
   17050:	e4d63001 	ldrb	r3, [r6], #1
   17054:	e3130003 	tst	r3, #3
   17058:	0a000008 	beq	17080 <test_libCtype+0x58>
   1705c:	e3130007 	tst	r3, #7
   17060:	0a000006 	beq	17080 <test_libCtype+0x58>
   17064:	e3130001 	tst	r3, #1
   17068:	0a000004 	beq	17080 <test_libCtype+0x58>
   1706c:	e5d6301f 	ldrb	r3, [r6, #31]
   17070:	e2033002 	and	r3, r3, #2
   17074:	e6ef3073 	uxtb	r3, r3
   17078:	e3530000 	cmp	r3, #0
   1707c:	1a000006 	bne	1709c <test_libCtype+0x74>
   17080:	e59f12a8 	ldr	r1, [pc, #680]	; 17330 <test_libCtype+0x308>
   17084:	e28d0004 	add	r0, sp, #4
   17088:	eb0012ee 	bl	1bc48 <sprintf>
   1708c:	e1a00004 	mov	r0, r4
   17090:	e28d1004 	add	r1, sp, #4
   17094:	ebfff877 	bl	15278 <testFail>
   17098:	e3a05000 	mov	r5, #0
   1709c:	e1560008 	cmp	r6, r8
   170a0:	1affffe9 	bne	1704c <test_libCtype+0x24>
   170a4:	e1a00004 	mov	r0, r4
   170a8:	e59f1284 	ldr	r1, [pc, #644]	; 17334 <test_libCtype+0x30c>
   170ac:	ebfff86c 	bl	15264 <testPass>
   170b0:	e1a00004 	mov	r0, r4
   170b4:	e59f127c 	ldr	r1, [pc, #636]	; 17338 <test_libCtype+0x310>
   170b8:	ebfff878 	bl	152a0 <testPrint>
   170bc:	e59f6278 	ldr	r6, [pc, #632]	; 1733c <test_libCtype+0x314>
   170c0:	e286801a 	add	r8, r6, #26
   170c4:	e0672006 	rsb	r2, r7, r6
   170c8:	e4d63001 	ldrb	r3, [r6], #1
   170cc:	e3130003 	tst	r3, #3
   170d0:	0a000008 	beq	170f8 <test_libCtype+0xd0>
   170d4:	e3130007 	tst	r3, #7
   170d8:	0a000006 	beq	170f8 <test_libCtype+0xd0>
   170dc:	e2033002 	and	r3, r3, #2
   170e0:	e6ef3073 	uxtb	r3, r3
   170e4:	e3530000 	cmp	r3, #0
   170e8:	0a000002 	beq	170f8 <test_libCtype+0xd0>
   170ec:	e5563021 	ldrb	r3, [r6, #-33]	; 0x21
   170f0:	e3130001 	tst	r3, #1
   170f4:	1a000006 	bne	17114 <test_libCtype+0xec>
   170f8:	e59f1240 	ldr	r1, [pc, #576]	; 17340 <test_libCtype+0x318>
   170fc:	e28d0004 	add	r0, sp, #4
   17100:	eb0012d0 	bl	1bc48 <sprintf>
   17104:	e1a00004 	mov	r0, r4
   17108:	e28d1004 	add	r1, sp, #4
   1710c:	ebfff859 	bl	15278 <testFail>
   17110:	e3a05000 	mov	r5, #0
   17114:	e1560008 	cmp	r6, r8
   17118:	1affffe9 	bne	170c4 <test_libCtype+0x9c>
   1711c:	e1a00004 	mov	r0, r4
   17120:	e59f120c 	ldr	r1, [pc, #524]	; 17334 <test_libCtype+0x30c>
   17124:	ebfff84e 	bl	15264 <testPass>
   17128:	e1a00004 	mov	r0, r4
   1712c:	e59f1210 	ldr	r1, [pc, #528]	; 17344 <test_libCtype+0x31c>
   17130:	ebfff85a 	bl	152a0 <testPrint>
   17134:	e59f720c 	ldr	r7, [pc, #524]	; 17348 <test_libCtype+0x320>
   17138:	e3a06041 	mov	r6, #65	; 0x41
   1713c:	e7d63007 	ldrb	r3, [r6, r7]
   17140:	e2138044 	ands	r8, r3, #68	; 0x44
   17144:	1a000007 	bne	17168 <test_libCtype+0x140>
   17148:	e59f11fc 	ldr	r1, [pc, #508]	; 1734c <test_libCtype+0x324>
   1714c:	e1a02006 	mov	r2, r6
   17150:	e28d0004 	add	r0, sp, #4
   17154:	eb0012bb 	bl	1bc48 <sprintf>
   17158:	e1a00004 	mov	r0, r4
   1715c:	e28d1004 	add	r1, sp, #4
   17160:	ebfff844 	bl	15278 <testFail>
   17164:	e1a05008 	mov	r5, r8
   17168:	e2866001 	add	r6, r6, #1
   1716c:	e3560047 	cmp	r6, #71	; 0x47
   17170:	1afffff1 	bne	1713c <test_libCtype+0x114>
   17174:	e1a00004 	mov	r0, r4
   17178:	e59f11b4 	ldr	r1, [pc, #436]	; 17334 <test_libCtype+0x30c>
   1717c:	ebfff838 	bl	15264 <testPass>
   17180:	e1a00004 	mov	r0, r4
   17184:	e59f11c4 	ldr	r1, [pc, #452]	; 17350 <test_libCtype+0x328>
   17188:	ebfff844 	bl	152a0 <testPrint>
   1718c:	e59f71b4 	ldr	r7, [pc, #436]	; 17348 <test_libCtype+0x320>
   17190:	e3a06061 	mov	r6, #97	; 0x61
   17194:	e7d63007 	ldrb	r3, [r6, r7]
   17198:	e2138044 	ands	r8, r3, #68	; 0x44
   1719c:	1a000007 	bne	171c0 <test_libCtype+0x198>
   171a0:	e59f11a4 	ldr	r1, [pc, #420]	; 1734c <test_libCtype+0x324>
   171a4:	e1a02006 	mov	r2, r6
   171a8:	e28d0004 	add	r0, sp, #4
   171ac:	eb0012a5 	bl	1bc48 <sprintf>
   171b0:	e1a00004 	mov	r0, r4
   171b4:	e28d1004 	add	r1, sp, #4
   171b8:	ebfff82e 	bl	15278 <testFail>
   171bc:	e1a05008 	mov	r5, r8
   171c0:	e2866001 	add	r6, r6, #1
   171c4:	e3560067 	cmp	r6, #103	; 0x67
   171c8:	1afffff1 	bne	17194 <test_libCtype+0x16c>
   171cc:	e1a00004 	mov	r0, r4
   171d0:	e59f115c 	ldr	r1, [pc, #348]	; 17334 <test_libCtype+0x30c>
   171d4:	ebfff822 	bl	15264 <testPass>
   171d8:	e1a00004 	mov	r0, r4
   171dc:	e59f1170 	ldr	r1, [pc, #368]	; 17354 <test_libCtype+0x32c>
   171e0:	ebfff82e 	bl	152a0 <testPrint>
   171e4:	e59f715c 	ldr	r7, [pc, #348]	; 17348 <test_libCtype+0x320>
   171e8:	e3a06030 	mov	r6, #48	; 0x30
   171ec:	e7d63007 	ldrb	r3, [r6, r7]
   171f0:	e2032004 	and	r2, r3, #4
   171f4:	e6ef2072 	uxtb	r2, r2
   171f8:	e3520000 	cmp	r2, #0
   171fc:	0a000003 	beq	17210 <test_libCtype+0x1e8>
   17200:	e3130007 	tst	r3, #7
   17204:	0a000001 	beq	17210 <test_libCtype+0x1e8>
   17208:	e3130044 	tst	r3, #68	; 0x44
   1720c:	1a000007 	bne	17230 <test_libCtype+0x208>
   17210:	e59f1140 	ldr	r1, [pc, #320]	; 17358 <test_libCtype+0x330>
   17214:	e1a02006 	mov	r2, r6
   17218:	e28d0004 	add	r0, sp, #4
   1721c:	eb001289 	bl	1bc48 <sprintf>
   17220:	e1a00004 	mov	r0, r4
   17224:	e28d1004 	add	r1, sp, #4
   17228:	ebfff812 	bl	15278 <testFail>
   1722c:	e3a05000 	mov	r5, #0
   17230:	e2866001 	add	r6, r6, #1
   17234:	e356003a 	cmp	r6, #58	; 0x3a
   17238:	1affffeb 	bne	171ec <test_libCtype+0x1c4>
   1723c:	e1a00004 	mov	r0, r4
   17240:	e59f10ec 	ldr	r1, [pc, #236]	; 17334 <test_libCtype+0x30c>
   17244:	ebfff806 	bl	15264 <testPass>
   17248:	e1a00004 	mov	r0, r4
   1724c:	e59f1108 	ldr	r1, [pc, #264]	; 1735c <test_libCtype+0x334>
   17250:	ebfff812 	bl	152a0 <testPrint>
   17254:	e59f7104 	ldr	r7, [pc, #260]	; 17360 <test_libCtype+0x338>
   17258:	e59f80e8 	ldr	r8, [pc, #232]	; 17348 <test_libCtype+0x320>
   1725c:	ea00000c 	b	17294 <test_libCtype+0x26c>
   17260:	e5d8603a 	ldrb	r6, [r8, #58]	; 0x3a
   17264:	e2066010 	and	r6, r6, #16
   17268:	e6ef6076 	uxtb	r6, r6
   1726c:	e3560000 	cmp	r6, #0
   17270:	1a000007 	bne	17294 <test_libCtype+0x26c>
   17274:	e59f10e8 	ldr	r1, [pc, #232]	; 17364 <test_libCtype+0x33c>
   17278:	e3a0203a 	mov	r2, #58	; 0x3a
   1727c:	e28d0004 	add	r0, sp, #4
   17280:	eb001270 	bl	1bc48 <sprintf>
   17284:	e1a00004 	mov	r0, r4
   17288:	e28d1004 	add	r1, sp, #4
   1728c:	ebfff7f9 	bl	15278 <testFail>
   17290:	e1a05006 	mov	r5, r6
   17294:	e5f76001 	ldrb	r6, [r7, #1]!
   17298:	e3560000 	cmp	r6, #0
   1729c:	1affffef 	bne	17260 <test_libCtype+0x238>
   172a0:	e1a00004 	mov	r0, r4
   172a4:	e59f1088 	ldr	r1, [pc, #136]	; 17334 <test_libCtype+0x30c>
   172a8:	ebfff7ed 	bl	15264 <testPass>
   172ac:	e1a00004 	mov	r0, r4
   172b0:	e59f10b0 	ldr	r1, [pc, #176]	; 17368 <test_libCtype+0x340>
   172b4:	ebfff7f9 	bl	152a0 <testPrint>
   172b8:	e59f7088 	ldr	r7, [pc, #136]	; 17348 <test_libCtype+0x320>
   172bc:	e7d63007 	ldrb	r3, [r6, r7]
   172c0:	e213803f 	ands	r8, r3, #63	; 0x3f
   172c4:	1a000007 	bne	172e8 <test_libCtype+0x2c0>
   172c8:	e59f109c 	ldr	r1, [pc, #156]	; 1736c <test_libCtype+0x344>
   172cc:	e1a02006 	mov	r2, r6
   172d0:	e28d0004 	add	r0, sp, #4
   172d4:	eb00125b 	bl	1bc48 <sprintf>
   172d8:	e1a00004 	mov	r0, r4
   172dc:	e28d1004 	add	r1, sp, #4
   172e0:	ebfff7e4 	bl	15278 <testFail>
   172e4:	e1a05008 	mov	r5, r8
   172e8:	e2866001 	add	r6, r6, #1
   172ec:	e356007f 	cmp	r6, #127	; 0x7f
   172f0:	1afffff1 	bne	172bc <test_libCtype+0x294>
   172f4:	e1a00004 	mov	r0, r4
   172f8:	e59f1034 	ldr	r1, [pc, #52]	; 17334 <test_libCtype+0x30c>
   172fc:	ebfff7d8 	bl	15264 <testPass>
   17300:	e3550000 	cmp	r5, #0
   17304:	e3a00001 	mov	r0, #1
   17308:	e59f1024 	ldr	r1, [pc, #36]	; 17334 <test_libCtype+0x30c>
   1730c:	0a000001 	beq	17318 <test_libCtype+0x2f0>
   17310:	ebfff7d3 	bl	15264 <testPass>
   17314:	ea000000 	b	1731c <test_libCtype+0x2f4>
   17318:	ebfff7d6 	bl	15278 <testFail>
   1731c:	e3a00001 	mov	r0, #1
   17320:	e28dd038 	add	sp, sp, #56	; 0x38
   17324:	e8bd81f0 	pop	{r4, r5, r6, r7, r8, pc}
   17328:	0001e22e 	.word	0x0001e22e
   1732c:	0001fe4c 	.word	0x0001fe4c
   17330:	0001e23a 	.word	0x0001e23a
   17334:	0001d661 	.word	0x0001d661
   17338:	0001e253 	.word	0x0001e253
   1733c:	0001fe6c 	.word	0x0001fe6c
   17340:	0001e25f 	.word	0x0001e25f
   17344:	0001e278 	.word	0x0001e278
   17348:	0001fe0b 	.word	0x0001fe0b
   1734c:	0001e291 	.word	0x0001e291
   17350:	0001e2b0 	.word	0x0001e2b0
   17354:	0001e2c9 	.word	0x0001e2c9
   17358:	0001e2d0 	.word	0x0001e2d0
   1735c:	0001e2e3 	.word	0x0001e2e3
   17360:	0001e2ee 	.word	0x0001e2ee
   17364:	0001e312 	.word	0x0001e312
   17368:	0001e32b 	.word	0x0001e32b
   1736c:	0001e335 	.word	0x0001e335

00017370 <test_procQueue>:
   17370:	e92d4ff0 	push	{r4, r5, r6, r7, r8, r9, sl, fp, lr}
   17374:	e1a05000 	mov	r5, r0
   17378:	e24dd054 	sub	sp, sp, #84	; 0x54
   1737c:	e3a00000 	mov	r0, #0
   17380:	ebffe77d 	bl	1117c <semcreate>
   17384:	e3500063 	cmp	r0, #99	; 0x63
   17388:	e58d0014 	str	r0, [sp, #20]
   1738c:	8a000006 	bhi	173ac <test_procQueue+0x3c>
   17390:	e3a0900c 	mov	r9, #12
   17394:	e0030099 	mul	r3, r9, r0
   17398:	e59f2490 	ldr	r2, [pc, #1168]	; 17830 <test_procQueue+0x4c0>
   1739c:	e0821003 	add	r1, r2, r3
   173a0:	e7d23003 	ldrb	r3, [r2, r3]
   173a4:	e3530001 	cmp	r3, #1
   173a8:	1a000007 	bne	173cc <test_procQueue+0x5c>
   173ac:	e28d001c 	add	r0, sp, #28
   173b0:	e59f147c 	ldr	r1, [pc, #1148]	; 17834 <test_procQueue+0x4c4>
   173b4:	e59d2014 	ldr	r2, [sp, #20]
   173b8:	eb001222 	bl	1bc48 <sprintf>
   173bc:	e1a00005 	mov	r0, r5
   173c0:	e28d101c 	add	r1, sp, #28
   173c4:	ebfff7ab 	bl	15278 <testFail>
   173c8:	ea000112 	b	17818 <test_procQueue+0x4a8>
   173cc:	e3a06000 	mov	r6, #0
   173d0:	e5914008 	ldr	r4, [r1, #8]
   173d4:	e1a02006 	mov	r2, r6
   173d8:	e58d6000 	str	r6, [sp]
   173dc:	e1a00006 	mov	r0, r6
   173e0:	e3a01801 	mov	r1, #65536	; 0x10000
   173e4:	e59f344c 	ldr	r3, [pc, #1100]	; 17838 <test_procQueue+0x4c8>
   173e8:	ebffe4cb 	bl	1071c <create>
   173ec:	e1a02006 	mov	r2, r6
   173f0:	e1a07000 	mov	r7, r0
   173f4:	e58d6000 	str	r6, [sp]
   173f8:	e1a00006 	mov	r0, r6
   173fc:	e3a01801 	mov	r1, #65536	; 0x10000
   17400:	e59f3434 	ldr	r3, [pc, #1076]	; 1783c <test_procQueue+0x4cc>
   17404:	ebffe4c4 	bl	1071c <create>
   17408:	e1a02006 	mov	r2, r6
   1740c:	e1a0a000 	mov	sl, r0
   17410:	e58d6000 	str	r6, [sp]
   17414:	e1a00006 	mov	r0, r6
   17418:	e3a01801 	mov	r1, #65536	; 0x10000
   1741c:	e59f341c 	ldr	r3, [pc, #1052]	; 17840 <test_procQueue+0x4d0>
   17420:	ebffe4bd 	bl	1071c <create>
   17424:	e58d6000 	str	r6, [sp]
   17428:	e1a02006 	mov	r2, r6
   1742c:	e1a08000 	mov	r8, r0
   17430:	e3a01801 	mov	r1, #65536	; 0x10000
   17434:	e1a00006 	mov	r0, r6
   17438:	e59f3404 	ldr	r3, [pc, #1028]	; 17844 <test_procQueue+0x4d4>
   1743c:	ebffe4b6 	bl	1071c <create>
   17440:	e37a0001 	cmn	sl, #1
   17444:	13770001 	cmnne	r7, #1
   17448:	e1a06000 	mov	r6, r0
   1744c:	e1a00005 	mov	r0, r5
   17450:	0a000002 	beq	17460 <test_procQueue+0xf0>
   17454:	e3760001 	cmn	r6, #1
   17458:	13780001 	cmnne	r8, #1
   1745c:	1a000003 	bne	17470 <test_procQueue+0x100>
   17460:	e59f13e0 	ldr	r1, [pc, #992]	; 17848 <test_procQueue+0x4d8>
   17464:	ebfff783 	bl	15278 <testFail>
   17468:	e3a09000 	mov	r9, #0
   1746c:	ea0000e1 	b	177f8 <test_procQueue+0x488>
   17470:	e59f13d4 	ldr	r1, [pc, #980]	; 1784c <test_procQueue+0x4dc>
   17474:	ebfff789 	bl	152a0 <testPrint>
   17478:	e1a01004 	mov	r1, r4
   1747c:	e3a02005 	mov	r2, #5
   17480:	e1a00008 	mov	r0, r8
   17484:	ebffe60b 	bl	10cb8 <insert>
   17488:	e1a01004 	mov	r1, r4
   1748c:	e3a02006 	mov	r2, #6
   17490:	e1a0000a 	mov	r0, sl
   17494:	ebffe607 	bl	10cb8 <insert>
   17498:	e59fb3b0 	ldr	fp, [pc, #944]	; 17850 <test_procQueue+0x4e0>
   1749c:	e1a01004 	mov	r1, r4
   174a0:	e3a02004 	mov	r2, #4
   174a4:	e1a00006 	mov	r0, r6
   174a8:	ebffe602 	bl	10cb8 <insert>
   174ac:	e1a01004 	mov	r1, r4
   174b0:	e3a02007 	mov	r2, #7
   174b4:	e1a00007 	mov	r0, r7
   174b8:	ebffe5fe 	bl	10cb8 <insert>
   174bc:	e022b499 	mla	r2, r9, r4, fp
   174c0:	e5921004 	ldr	r1, [r2, #4]
   174c4:	e0010199 	mul	r1, r9, r1
   174c8:	e79b1001 	ldr	r1, [fp, r1]
   174cc:	e3510007 	cmp	r1, #7
   174d0:	1a000028 	bne	17578 <test_procQueue+0x208>
   174d4:	e1a00004 	mov	r0, r4
   174d8:	e58d200c 	str	r2, [sp, #12]
   174dc:	ebffe46f 	bl	106a0 <dequeue>
   174e0:	e1570000 	cmp	r7, r0
   174e4:	e59d200c 	ldr	r2, [sp, #12]
   174e8:	1a000022 	bne	17578 <test_procQueue+0x208>
   174ec:	e5921004 	ldr	r1, [r2, #4]
   174f0:	e0010199 	mul	r1, r9, r1
   174f4:	e79b1001 	ldr	r1, [fp, r1]
   174f8:	e3510006 	cmp	r1, #6
   174fc:	1a00001d 	bne	17578 <test_procQueue+0x208>
   17500:	e1a00004 	mov	r0, r4
   17504:	ebffe465 	bl	106a0 <dequeue>
   17508:	e15a0000 	cmp	sl, r0
   1750c:	e59d200c 	ldr	r2, [sp, #12]
   17510:	1a000018 	bne	17578 <test_procQueue+0x208>
   17514:	e5922004 	ldr	r2, [r2, #4]
   17518:	e0090299 	mul	r9, r9, r2
   1751c:	e79b3009 	ldr	r3, [fp, r9]
   17520:	e3530005 	cmp	r3, #5
   17524:	1a000013 	bne	17578 <test_procQueue+0x208>
   17528:	e1a00004 	mov	r0, r4
   1752c:	ebffe45b 	bl	106a0 <dequeue>
   17530:	e1580000 	cmp	r8, r0
   17534:	1a00000f 	bne	17578 <test_procQueue+0x208>
   17538:	e3a0200c 	mov	r2, #12
   1753c:	e021b492 	mla	r1, r2, r4, fp
   17540:	e5911004 	ldr	r1, [r1, #4]
   17544:	e0020192 	mul	r2, r2, r1
   17548:	e79b3002 	ldr	r3, [fp, r2]
   1754c:	e3530004 	cmp	r3, #4
   17550:	1a000008 	bne	17578 <test_procQueue+0x208>
   17554:	e1a00004 	mov	r0, r4
   17558:	ebffe450 	bl	106a0 <dequeue>
   1755c:	e1560000 	cmp	r6, r0
   17560:	1a000004 	bne	17578 <test_procQueue+0x208>
   17564:	e1a00005 	mov	r0, r5
   17568:	e59f12e4 	ldr	r1, [pc, #740]	; 17854 <test_procQueue+0x4e4>
   1756c:	ebfff73c 	bl	15264 <testPass>
   17570:	e3a09001 	mov	r9, #1
   17574:	ea000003 	b	17588 <test_procQueue+0x218>
   17578:	e1a00005 	mov	r0, r5
   1757c:	e59f12d4 	ldr	r1, [pc, #724]	; 17858 <test_procQueue+0x4e8>
   17580:	ebfff73c 	bl	15278 <testFail>
   17584:	e3a09000 	mov	r9, #0
   17588:	e1a00004 	mov	r0, r4
   1758c:	ebffe443 	bl	106a0 <dequeue>
   17590:	e3700002 	cmn	r0, #2
   17594:	1afffffb 	bne	17588 <test_procQueue+0x218>
   17598:	e1a00005 	mov	r0, r5
   1759c:	e59f12b8 	ldr	r1, [pc, #696]	; 1785c <test_procQueue+0x4ec>
   175a0:	ebfff73e 	bl	152a0 <testPrint>
   175a4:	e1a01004 	mov	r1, r4
   175a8:	e3a02005 	mov	r2, #5
   175ac:	e1a00007 	mov	r0, r7
   175b0:	ebffe5c0 	bl	10cb8 <insert>
   175b4:	e1a01004 	mov	r1, r4
   175b8:	e3a02005 	mov	r2, #5
   175bc:	e1a0000a 	mov	r0, sl
   175c0:	ebffe5bc 	bl	10cb8 <insert>
   175c4:	e1a01004 	mov	r1, r4
   175c8:	e3a02005 	mov	r2, #5
   175cc:	e1a00008 	mov	r0, r8
   175d0:	ebffe5b8 	bl	10cb8 <insert>
   175d4:	e59fb274 	ldr	fp, [pc, #628]	; 17850 <test_procQueue+0x4e0>
   175d8:	e1a01004 	mov	r1, r4
   175dc:	e3a02005 	mov	r2, #5
   175e0:	e1a00006 	mov	r0, r6
   175e4:	ebffe5b3 	bl	10cb8 <insert>
   175e8:	e3a0200c 	mov	r2, #12
   175ec:	e021b492 	mla	r1, r2, r4, fp
   175f0:	e5910004 	ldr	r0, [r1, #4]
   175f4:	e0000092 	mul	r0, r2, r0
   175f8:	e79b0000 	ldr	r0, [fp, r0]
   175fc:	e3500005 	cmp	r0, #5
   17600:	1a00002a 	bne	176b0 <test_procQueue+0x340>
   17604:	e1a00004 	mov	r0, r4
   17608:	e58d1010 	str	r1, [sp, #16]
   1760c:	e58d200c 	str	r2, [sp, #12]
   17610:	ebffe422 	bl	106a0 <dequeue>
   17614:	e2507000 	subs	r7, r0, #0
   17618:	e59d1010 	ldr	r1, [sp, #16]
   1761c:	e59d200c 	ldr	r2, [sp, #12]
   17620:	0a000022 	beq	176b0 <test_procQueue+0x340>
   17624:	e5910004 	ldr	r0, [r1, #4]
   17628:	e0000092 	mul	r0, r2, r0
   1762c:	e79b0000 	ldr	r0, [fp, r0]
   17630:	e3500005 	cmp	r0, #5
   17634:	1a00001d 	bne	176b0 <test_procQueue+0x340>
   17638:	e1a00004 	mov	r0, r4
   1763c:	ebffe417 	bl	106a0 <dequeue>
   17640:	e15a0000 	cmp	sl, r0
   17644:	e59d1010 	ldr	r1, [sp, #16]
   17648:	e59d200c 	ldr	r2, [sp, #12]
   1764c:	1a000017 	bne	176b0 <test_procQueue+0x340>
   17650:	e5910004 	ldr	r0, [r1, #4]
   17654:	e0000092 	mul	r0, r2, r0
   17658:	e79b0000 	ldr	r0, [fp, r0]
   1765c:	e3500005 	cmp	r0, #5
   17660:	1a000012 	bne	176b0 <test_procQueue+0x340>
   17664:	e1a00004 	mov	r0, r4
   17668:	ebffe40c 	bl	106a0 <dequeue>
   1766c:	e1580000 	cmp	r8, r0
   17670:	e59d1010 	ldr	r1, [sp, #16]
   17674:	e59d200c 	ldr	r2, [sp, #12]
   17678:	1a00000c 	bne	176b0 <test_procQueue+0x340>
   1767c:	e5911004 	ldr	r1, [r1, #4]
   17680:	e0020192 	mul	r2, r2, r1
   17684:	e79b3002 	ldr	r3, [fp, r2]
   17688:	e3530005 	cmp	r3, #5
   1768c:	1a000007 	bne	176b0 <test_procQueue+0x340>
   17690:	e1a00004 	mov	r0, r4
   17694:	ebffe401 	bl	106a0 <dequeue>
   17698:	e1560000 	cmp	r6, r0
   1769c:	1a000003 	bne	176b0 <test_procQueue+0x340>
   176a0:	e1a00005 	mov	r0, r5
   176a4:	e59f11a8 	ldr	r1, [pc, #424]	; 17854 <test_procQueue+0x4e4>
   176a8:	ebfff6ed 	bl	15264 <testPass>
   176ac:	ea000003 	b	176c0 <test_procQueue+0x350>
   176b0:	e1a00005 	mov	r0, r5
   176b4:	e59f119c 	ldr	r1, [pc, #412]	; 17858 <test_procQueue+0x4e8>
   176b8:	ebfff6ee 	bl	15278 <testFail>
   176bc:	e3a09000 	mov	r9, #0
   176c0:	e1a00004 	mov	r0, r4
   176c4:	ebffe3f5 	bl	106a0 <dequeue>
   176c8:	e3700002 	cmn	r0, #2
   176cc:	1afffffb 	bne	176c0 <test_procQueue+0x350>
   176d0:	e1a00005 	mov	r0, r5
   176d4:	e59f1184 	ldr	r1, [pc, #388]	; 17860 <test_procQueue+0x4f0>
   176d8:	ebfff6f0 	bl	152a0 <testPrint>
   176dc:	e1a01004 	mov	r1, r4
   176e0:	e3a02005 	mov	r2, #5
   176e4:	e1a00008 	mov	r0, r8
   176e8:	ebffe572 	bl	10cb8 <insert>
   176ec:	e1a01004 	mov	r1, r4
   176f0:	e3a02006 	mov	r2, #6
   176f4:	e1a0000a 	mov	r0, sl
   176f8:	ebffe56e 	bl	10cb8 <insert>
   176fc:	e1a01004 	mov	r1, r4
   17700:	e3a02004 	mov	r2, #4
   17704:	e1a00006 	mov	r0, r6
   17708:	ebffe56a 	bl	10cb8 <insert>
   1770c:	e1a01004 	mov	r1, r4
   17710:	e3a02007 	mov	r2, #7
   17714:	e1a00007 	mov	r0, r7
   17718:	ebffe566 	bl	10cb8 <insert>
   1771c:	e1a00004 	mov	r0, r4
   17720:	ebffe537 	bl	10c04 <getfirst>
   17724:	e1570000 	cmp	r7, r0
   17728:	e59f1124 	ldr	r1, [pc, #292]	; 17854 <test_procQueue+0x4e4>
   1772c:	e1a00005 	mov	r0, r5
   17730:	1a000001 	bne	1773c <test_procQueue+0x3cc>
   17734:	ebfff6ca 	bl	15264 <testPass>
   17738:	ea000001 	b	17744 <test_procQueue+0x3d4>
   1773c:	ebfff6cd 	bl	15278 <testFail>
   17740:	e3a09000 	mov	r9, #0
   17744:	e1a00004 	mov	r0, r4
   17748:	ebffe3d4 	bl	106a0 <dequeue>
   1774c:	e3700002 	cmn	r0, #2
   17750:	1afffffb 	bne	17744 <test_procQueue+0x3d4>
   17754:	e1a00005 	mov	r0, r5
   17758:	e59f1104 	ldr	r1, [pc, #260]	; 17864 <test_procQueue+0x4f4>
   1775c:	ebfff6cf 	bl	152a0 <testPrint>
   17760:	e1a01004 	mov	r1, r4
   17764:	e3a02005 	mov	r2, #5
   17768:	e1a00008 	mov	r0, r8
   1776c:	ebffe551 	bl	10cb8 <insert>
   17770:	e1a01004 	mov	r1, r4
   17774:	e3a02006 	mov	r2, #6
   17778:	e1a0000a 	mov	r0, sl
   1777c:	ebffe54d 	bl	10cb8 <insert>
   17780:	e1a01004 	mov	r1, r4
   17784:	e3a02004 	mov	r2, #4
   17788:	e1a00006 	mov	r0, r6
   1778c:	ebffe549 	bl	10cb8 <insert>
   17790:	e1a01004 	mov	r1, r4
   17794:	e3a02007 	mov	r2, #7
   17798:	e1a00007 	mov	r0, r7
   1779c:	ebffe545 	bl	10cb8 <insert>
   177a0:	e1a00004 	mov	r0, r4
   177a4:	ebffe503 	bl	10bb8 <getlast>
   177a8:	e1560000 	cmp	r6, r0
   177ac:	e59f10a0 	ldr	r1, [pc, #160]	; 17854 <test_procQueue+0x4e4>
   177b0:	e1a00005 	mov	r0, r5
   177b4:	1a000001 	bne	177c0 <test_procQueue+0x450>
   177b8:	ebfff6a9 	bl	15264 <testPass>
   177bc:	ea000001 	b	177c8 <test_procQueue+0x458>
   177c0:	ebfff6ac 	bl	15278 <testFail>
   177c4:	e3a09000 	mov	r9, #0
   177c8:	e1a00004 	mov	r0, r4
   177cc:	ebffe3b3 	bl	106a0 <dequeue>
   177d0:	e3700002 	cmn	r0, #2
   177d4:	1afffffb 	bne	177c8 <test_procQueue+0x458>
   177d8:	e1a00007 	mov	r0, r7
   177dc:	ebffe42f 	bl	108a0 <kill>
   177e0:	e1a0000a 	mov	r0, sl
   177e4:	ebffe42d 	bl	108a0 <kill>
   177e8:	e1a00008 	mov	r0, r8
   177ec:	ebffe42b 	bl	108a0 <kill>
   177f0:	e1a00006 	mov	r0, r6
   177f4:	ebffe429 	bl	108a0 <kill>
   177f8:	e59d0014 	ldr	r0, [sp, #20]
   177fc:	ebffe686 	bl	1121c <semfree>
   17800:	e3590001 	cmp	r9, #1
   17804:	1a000003 	bne	17818 <test_procQueue+0x4a8>
   17808:	e1a00009 	mov	r0, r9
   1780c:	e59f1040 	ldr	r1, [pc, #64]	; 17854 <test_procQueue+0x4e4>
   17810:	ebfff693 	bl	15264 <testPass>
   17814:	ea000002 	b	17824 <test_procQueue+0x4b4>
   17818:	e3a00001 	mov	r0, #1
   1781c:	e59f1030 	ldr	r1, [pc, #48]	; 17854 <test_procQueue+0x4e4>
   17820:	ebfff694 	bl	15278 <testFail>
   17824:	e3a00001 	mov	r0, #1
   17828:	e28dd054 	add	sp, sp, #84	; 0x54
   1782c:	e8bd8ff0 	pop	{r4, r5, r6, r7, r8, r9, sl, fp, pc}
   17830:	00022820 	.word	0x00022820
   17834:	0001e0e2 	.word	0x0001e0e2
   17838:	0001e34c 	.word	0x0001e34c
   1783c:	0001e355 	.word	0x0001e355
   17840:	0001e35e 	.word	0x0001e35e
   17844:	0001e367 	.word	0x0001e367
   17848:	0001e370 	.word	0x0001e370
   1784c:	0001e38a 	.word	0x0001e38a
   17850:	00022d9c 	.word	0x00022d9c
   17854:	0001d661 	.word	0x0001d661
   17858:	0001e3a2 	.word	0x0001e3a2
   1785c:	0001e3b6 	.word	0x0001e3b6
   17860:	0001e3cb 	.word	0x0001e3cb
   17864:	0001e3e4 	.word	0x0001e3e4

00017868 <test_ttydriver>:
   17868:	e92d45f0 	push	{r4, r5, r6, r7, r8, sl, lr}
   1786c:	e1a04000 	mov	r4, r0
   17870:	e24dd03c 	sub	sp, sp, #60	; 0x3c
   17874:	e3a00002 	mov	r0, #2
   17878:	ebffe8d4 	bl	11bd0 <open>
   1787c:	e3a01002 	mov	r1, #2
   17880:	e3a00004 	mov	r0, #4
   17884:	ebffe8d1 	bl	11bd0 <open>
   17888:	e3a01021 	mov	r1, #33	; 0x21
   1788c:	e3a0201f 	mov	r2, #31
   17890:	e3a03000 	mov	r3, #0
   17894:	e3a00004 	mov	r0, #4
   17898:	ebffe8b4 	bl	11b70 <control>
   1789c:	e3a01023 	mov	r1, #35	; 0x23
   178a0:	e3a02002 	mov	r2, #2
   178a4:	e3a03000 	mov	r3, #0
   178a8:	e1a0a000 	mov	sl, r0
   178ac:	e3a00004 	mov	r0, #4
   178b0:	ebffe8ae 	bl	11b70 <control>
   178b4:	e3a03000 	mov	r3, #0
   178b8:	e1a08000 	mov	r8, r0
   178bc:	e3a02001 	mov	r2, #1
   178c0:	e3a01022 	mov	r1, #34	; 0x22
   178c4:	e3a00004 	mov	r0, #4
   178c8:	ebffe8a8 	bl	11b70 <control>
   178cc:	e1800008 	orr	r0, r0, r8
   178d0:	e59f15e0 	ldr	r1, [pc, #1504]	; 17eb8 <test_ttydriver+0x650>
   178d4:	e6ef8070 	uxtb	r8, r0
   178d8:	e1a00004 	mov	r0, r4
   178dc:	ebfff66f 	bl	152a0 <testPrint>
   178e0:	e59f15d4 	ldr	r1, [pc, #1492]	; 17ebc <test_ttydriver+0x654>
   178e4:	e3a02013 	mov	r2, #19
   178e8:	e3a00004 	mov	r0, #4
   178ec:	ebffe8e5 	bl	11c88 <write>
   178f0:	e28d1004 	add	r1, sp, #4
   178f4:	e3a02013 	mov	r2, #19
   178f8:	e3a00002 	mov	r0, #2
   178fc:	ebffe8c9 	bl	11c28 <read>
   17900:	e59f15b4 	ldr	r1, [pc, #1460]	; 17ebc <test_ttydriver+0x654>
   17904:	e28d0004 	add	r0, sp, #4
   17908:	e3a02013 	mov	r2, #19
   1790c:	eb001143 	bl	1be20 <strncmp>
   17910:	e3500000 	cmp	r0, #0
   17914:	e59f15a4 	ldr	r1, [pc, #1444]	; 17ec0 <test_ttydriver+0x658>
   17918:	e1a00004 	mov	r0, r4
   1791c:	0a000006 	beq	1793c <test_ttydriver+0xd4>
   17920:	ebfff654 	bl	15278 <testFail>
   17924:	e59f0598 	ldr	r0, [pc, #1432]	; 17ec4 <test_ttydriver+0x65c>
   17928:	e59f1598 	ldr	r1, [pc, #1432]	; 17ec8 <test_ttydriver+0x660>
   1792c:	e3a02024 	mov	r2, #36	; 0x24
   17930:	eb00106b 	bl	1bae4 <printf>
   17934:	e3a05000 	mov	r5, #0
   17938:	ea000001 	b	17944 <test_ttydriver+0xdc>
   1793c:	ebfff648 	bl	15264 <testPass>
   17940:	e3a05001 	mov	r5, #1
   17944:	e1a00004 	mov	r0, r4
   17948:	e59f157c 	ldr	r1, [pc, #1404]	; 17ecc <test_ttydriver+0x664>
   1794c:	ebfff653 	bl	152a0 <testPrint>
   17950:	e59f1578 	ldr	r1, [pc, #1400]	; 17ed0 <test_ttydriver+0x668>
   17954:	e3a02018 	mov	r2, #24
   17958:	e3a00004 	mov	r0, #4
   1795c:	ebffe8c9 	bl	11c88 <write>
   17960:	e28d1004 	add	r1, sp, #4
   17964:	e3a0201a 	mov	r2, #26
   17968:	e3a00002 	mov	r0, #2
   1796c:	ebffe8ad 	bl	11c28 <read>
   17970:	e59f155c 	ldr	r1, [pc, #1372]	; 17ed4 <test_ttydriver+0x66c>
   17974:	e28d0004 	add	r0, sp, #4
   17978:	e3a0201a 	mov	r2, #26
   1797c:	eb001127 	bl	1be20 <strncmp>
   17980:	e3500000 	cmp	r0, #0
   17984:	e59f1534 	ldr	r1, [pc, #1332]	; 17ec0 <test_ttydriver+0x658>
   17988:	e1a00004 	mov	r0, r4
   1798c:	0a000006 	beq	179ac <test_ttydriver+0x144>
   17990:	ebfff638 	bl	15278 <testFail>
   17994:	e59f0528 	ldr	r0, [pc, #1320]	; 17ec4 <test_ttydriver+0x65c>
   17998:	e59f1528 	ldr	r1, [pc, #1320]	; 17ec8 <test_ttydriver+0x660>
   1799c:	e3a0202a 	mov	r2, #42	; 0x2a
   179a0:	eb00104f 	bl	1bae4 <printf>
   179a4:	e3a05000 	mov	r5, #0
   179a8:	ea000000 	b	179b0 <test_ttydriver+0x148>
   179ac:	ebfff62c 	bl	15264 <testPass>
   179b0:	e1a00004 	mov	r0, r4
   179b4:	e59f151c 	ldr	r1, [pc, #1308]	; 17ed8 <test_ttydriver+0x670>
   179b8:	ebfff638 	bl	152a0 <testPrint>
   179bc:	e59f1518 	ldr	r1, [pc, #1304]	; 17edc <test_ttydriver+0x674>
   179c0:	e3a0200c 	mov	r2, #12
   179c4:	e3a00004 	mov	r0, #4
   179c8:	ebffe8ae 	bl	11c88 <write>
   179cc:	e28d1004 	add	r1, sp, #4
   179d0:	e3a0200c 	mov	r2, #12
   179d4:	e3a00002 	mov	r0, #2
   179d8:	ebffe892 	bl	11c28 <read>
   179dc:	e59f14f8 	ldr	r1, [pc, #1272]	; 17edc <test_ttydriver+0x674>
   179e0:	e28d0004 	add	r0, sp, #4
   179e4:	e3a0200c 	mov	r2, #12
   179e8:	eb00110c 	bl	1be20 <strncmp>
   179ec:	e3500000 	cmp	r0, #0
   179f0:	e59f14c8 	ldr	r1, [pc, #1224]	; 17ec0 <test_ttydriver+0x658>
   179f4:	e1a00004 	mov	r0, r4
   179f8:	0a000006 	beq	17a18 <test_ttydriver+0x1b0>
   179fc:	ebfff61d 	bl	15278 <testFail>
   17a00:	e59f04bc 	ldr	r0, [pc, #1212]	; 17ec4 <test_ttydriver+0x65c>
   17a04:	e59f14bc 	ldr	r1, [pc, #1212]	; 17ec8 <test_ttydriver+0x660>
   17a08:	e3a02030 	mov	r2, #48	; 0x30
   17a0c:	eb001034 	bl	1bae4 <printf>
   17a10:	e3a05000 	mov	r5, #0
   17a14:	ea000000 	b	17a1c <test_ttydriver+0x1b4>
   17a18:	ebfff611 	bl	15264 <testPass>
   17a1c:	e1a00004 	mov	r0, r4
   17a20:	e59f14b8 	ldr	r1, [pc, #1208]	; 17ee0 <test_ttydriver+0x678>
   17a24:	ebfff61d 	bl	152a0 <testPrint>
   17a28:	e59f14b4 	ldr	r1, [pc, #1204]	; 17ee4 <test_ttydriver+0x67c>
   17a2c:	e3a0200c 	mov	r2, #12
   17a30:	e3a00002 	mov	r0, #2
   17a34:	ebffe893 	bl	11c88 <write>
   17a38:	e3a00004 	mov	r0, #4
   17a3c:	e08d1000 	add	r1, sp, r0
   17a40:	e3a02028 	mov	r2, #40	; 0x28
   17a44:	ebffe877 	bl	11c28 <read>
   17a48:	e28d0004 	add	r0, sp, #4
   17a4c:	e59f1494 	ldr	r1, [pc, #1172]	; 17ee8 <test_ttydriver+0x680>
   17a50:	e3a02006 	mov	r2, #6
   17a54:	eb0010f1 	bl	1be20 <strncmp>
   17a58:	e3500000 	cmp	r0, #0
   17a5c:	0a000004 	beq	17a74 <test_ttydriver+0x20c>
   17a60:	e1a00004 	mov	r0, r4
   17a64:	e59f1454 	ldr	r1, [pc, #1108]	; 17ec0 <test_ttydriver+0x658>
   17a68:	ebfff602 	bl	15278 <testFail>
   17a6c:	e3a05000 	mov	r5, #0
   17a70:	ea00000c 	b	17aa8 <test_ttydriver+0x240>
   17a74:	e3a00004 	mov	r0, #4
   17a78:	e08d1000 	add	r1, sp, r0
   17a7c:	e3a02028 	mov	r2, #40	; 0x28
   17a80:	ebffe868 	bl	11c28 <read>
   17a84:	e28d0004 	add	r0, sp, #4
   17a88:	e59f145c 	ldr	r1, [pc, #1116]	; 17eec <test_ttydriver+0x684>
   17a8c:	e3a02006 	mov	r2, #6
   17a90:	eb0010e2 	bl	1be20 <strncmp>
   17a94:	e3500000 	cmp	r0, #0
   17a98:	1afffff0 	bne	17a60 <test_ttydriver+0x1f8>
   17a9c:	e1a00004 	mov	r0, r4
   17aa0:	e59f1418 	ldr	r1, [pc, #1048]	; 17ec0 <test_ttydriver+0x658>
   17aa4:	ebfff5ee 	bl	15264 <testPass>
   17aa8:	e1a00004 	mov	r0, r4
   17aac:	e59f143c 	ldr	r1, [pc, #1084]	; 17ef0 <test_ttydriver+0x688>
   17ab0:	ebfff5fa 	bl	152a0 <testPrint>
   17ab4:	e3a03000 	mov	r3, #0
   17ab8:	e3a01020 	mov	r1, #32
   17abc:	e3a02001 	mov	r2, #1
   17ac0:	e3a00004 	mov	r0, #4
   17ac4:	ebffe829 	bl	11b70 <control>
   17ac8:	e59f1424 	ldr	r1, [pc, #1060]	; 17ef4 <test_ttydriver+0x68c>
   17acc:	e3a0200c 	mov	r2, #12
   17ad0:	e3a00002 	mov	r0, #2
   17ad4:	ebffe86b 	bl	11c88 <write>
   17ad8:	e3a00004 	mov	r0, #4
   17adc:	e08d1000 	add	r1, sp, r0
   17ae0:	e3a0200c 	mov	r2, #12
   17ae4:	ebffe84f 	bl	11c28 <read>
   17ae8:	e3a01021 	mov	r1, #33	; 0x21
   17aec:	e3a02001 	mov	r2, #1
   17af0:	e3a03000 	mov	r3, #0
   17af4:	e3a00004 	mov	r0, #4
   17af8:	ebffe81c 	bl	11b70 <control>
   17afc:	e59f13f0 	ldr	r1, [pc, #1008]	; 17ef4 <test_ttydriver+0x68c>
   17b00:	e28d0004 	add	r0, sp, #4
   17b04:	e3a0200c 	mov	r2, #12
   17b08:	eb0010c4 	bl	1be20 <strncmp>
   17b0c:	e3500000 	cmp	r0, #0
   17b10:	e59f13a8 	ldr	r1, [pc, #936]	; 17ec0 <test_ttydriver+0x658>
   17b14:	e1a00004 	mov	r0, r4
   17b18:	0a000006 	beq	17b38 <test_ttydriver+0x2d0>
   17b1c:	ebfff5d5 	bl	15278 <testFail>
   17b20:	e59f039c 	ldr	r0, [pc, #924]	; 17ec4 <test_ttydriver+0x65c>
   17b24:	e59f139c 	ldr	r1, [pc, #924]	; 17ec8 <test_ttydriver+0x660>
   17b28:	e3a0204f 	mov	r2, #79	; 0x4f
   17b2c:	eb000fec 	bl	1bae4 <printf>
   17b30:	e3a05000 	mov	r5, #0
   17b34:	ea000000 	b	17b3c <test_ttydriver+0x2d4>
   17b38:	ebfff5c9 	bl	15264 <testPass>
   17b3c:	e1a00004 	mov	r0, r4
   17b40:	e59f13b0 	ldr	r1, [pc, #944]	; 17ef8 <test_ttydriver+0x690>
   17b44:	ebfff5d5 	bl	152a0 <testPrint>
   17b48:	e3a02006 	mov	r2, #6
   17b4c:	e59f13a8 	ldr	r1, [pc, #936]	; 17efc <test_ttydriver+0x694>
   17b50:	e3a00002 	mov	r0, #2
   17b54:	ebffe84b 	bl	11c88 <write>
   17b58:	e3a01004 	mov	r1, #4
   17b5c:	e3a00002 	mov	r0, #2
   17b60:	ebffe83c 	bl	11c58 <putc>
   17b64:	e59f1394 	ldr	r1, [pc, #916]	; 17f00 <test_ttydriver+0x698>
   17b68:	e3a02006 	mov	r2, #6
   17b6c:	e3a00002 	mov	r0, #2
   17b70:	ebffe844 	bl	11c88 <write>
   17b74:	e3a00004 	mov	r0, #4
   17b78:	e08d1000 	add	r1, sp, r0
   17b7c:	e3a0200a 	mov	r2, #10
   17b80:	ebffe828 	bl	11c28 <read>
   17b84:	e28d0004 	add	r0, sp, #4
   17b88:	e59f136c 	ldr	r1, [pc, #876]	; 17efc <test_ttydriver+0x694>
   17b8c:	e3a02006 	mov	r2, #6
   17b90:	eb0010a2 	bl	1be20 <strncmp>
   17b94:	e3500000 	cmp	r0, #0
   17b98:	1a000005 	bne	17bb4 <test_ttydriver+0x34c>
   17b9c:	e3a00004 	mov	r0, #4
   17ba0:	e08d1000 	add	r1, sp, r0
   17ba4:	e3a0200a 	mov	r2, #10
   17ba8:	ebffe81e 	bl	11c28 <read>
   17bac:	e3700002 	cmn	r0, #2
   17bb0:	0a000004 	beq	17bc8 <test_ttydriver+0x360>
   17bb4:	e1a00004 	mov	r0, r4
   17bb8:	e59f1300 	ldr	r1, [pc, #768]	; 17ec0 <test_ttydriver+0x658>
   17bbc:	ebfff5ad 	bl	15278 <testFail>
   17bc0:	e3a05000 	mov	r5, #0
   17bc4:	ea00000c 	b	17bfc <test_ttydriver+0x394>
   17bc8:	e3a00004 	mov	r0, #4
   17bcc:	e08d1000 	add	r1, sp, r0
   17bd0:	e3a0200a 	mov	r2, #10
   17bd4:	ebffe813 	bl	11c28 <read>
   17bd8:	e28d0004 	add	r0, sp, #4
   17bdc:	e59f131c 	ldr	r1, [pc, #796]	; 17f00 <test_ttydriver+0x698>
   17be0:	e3a02006 	mov	r2, #6
   17be4:	eb00108d 	bl	1be20 <strncmp>
   17be8:	e3500000 	cmp	r0, #0
   17bec:	1afffff0 	bne	17bb4 <test_ttydriver+0x34c>
   17bf0:	e1a00004 	mov	r0, r4
   17bf4:	e59f12c4 	ldr	r1, [pc, #708]	; 17ec0 <test_ttydriver+0x658>
   17bf8:	ebfff599 	bl	15264 <testPass>
   17bfc:	e1a00004 	mov	r0, r4
   17c00:	e59f12fc 	ldr	r1, [pc, #764]	; 17f04 <test_ttydriver+0x69c>
   17c04:	ebfff5a5 	bl	152a0 <testPrint>
   17c08:	e59f12f8 	ldr	r1, [pc, #760]	; 17f08 <test_ttydriver+0x6a0>
   17c0c:	e3a0200d 	mov	r2, #13
   17c10:	e3a00002 	mov	r0, #2
   17c14:	ebffe81b 	bl	11c88 <write>
   17c18:	e3a00004 	mov	r0, #4
   17c1c:	e08d1000 	add	r1, sp, r0
   17c20:	e3a02007 	mov	r2, #7
   17c24:	ebffe7ff 	bl	11c28 <read>
   17c28:	e59f12dc 	ldr	r1, [pc, #732]	; 17f0c <test_ttydriver+0x6a4>
   17c2c:	e28d0004 	add	r0, sp, #4
   17c30:	e3a02007 	mov	r2, #7
   17c34:	eb001079 	bl	1be20 <strncmp>
   17c38:	e3500000 	cmp	r0, #0
   17c3c:	e59f127c 	ldr	r1, [pc, #636]	; 17ec0 <test_ttydriver+0x658>
   17c40:	e1a00004 	mov	r0, r4
   17c44:	0a000006 	beq	17c64 <test_ttydriver+0x3fc>
   17c48:	ebfff58a 	bl	15278 <testFail>
   17c4c:	e59f0270 	ldr	r0, [pc, #624]	; 17ec4 <test_ttydriver+0x65c>
   17c50:	e59f1270 	ldr	r1, [pc, #624]	; 17ec8 <test_ttydriver+0x660>
   17c54:	e3a0206f 	mov	r2, #111	; 0x6f
   17c58:	eb000fa1 	bl	1bae4 <printf>
   17c5c:	e3a05000 	mov	r5, #0
   17c60:	ea000000 	b	17c68 <test_ttydriver+0x400>
   17c64:	ebfff57e 	bl	15264 <testPass>
   17c68:	e1a00004 	mov	r0, r4
   17c6c:	e59f129c 	ldr	r1, [pc, #668]	; 17f10 <test_ttydriver+0x6a8>
   17c70:	ebfff58a 	bl	152a0 <testPrint>
   17c74:	e3a03000 	mov	r3, #0
   17c78:	e3a01020 	mov	r1, #32
   17c7c:	e3a02002 	mov	r2, #2
   17c80:	e3a00004 	mov	r0, #4
   17c84:	ebffe7b9 	bl	11b70 <control>
   17c88:	e59f1284 	ldr	r1, [pc, #644]	; 17f14 <test_ttydriver+0x6ac>
   17c8c:	e3a02004 	mov	r2, #4
   17c90:	e3a00002 	mov	r0, #2
   17c94:	ebffe7fb 	bl	11c88 <write>
   17c98:	e3a00004 	mov	r0, #4
   17c9c:	e08d1000 	add	r1, sp, r0
   17ca0:	e3a0200a 	mov	r2, #10
   17ca4:	ebffe7df 	bl	11c28 <read>
   17ca8:	e3a01021 	mov	r1, #33	; 0x21
   17cac:	e3a02002 	mov	r2, #2
   17cb0:	e3a03000 	mov	r3, #0
   17cb4:	e3a00004 	mov	r0, #4
   17cb8:	ebffe7ac 	bl	11b70 <control>
   17cbc:	e59f1254 	ldr	r1, [pc, #596]	; 17f18 <test_ttydriver+0x6b0>
   17cc0:	e28d0004 	add	r0, sp, #4
   17cc4:	e3a02004 	mov	r2, #4
   17cc8:	eb001054 	bl	1be20 <strncmp>
   17ccc:	e3500000 	cmp	r0, #0
   17cd0:	e59f11e8 	ldr	r1, [pc, #488]	; 17ec0 <test_ttydriver+0x658>
   17cd4:	e1a00004 	mov	r0, r4
   17cd8:	0a000006 	beq	17cf8 <test_ttydriver+0x490>
   17cdc:	ebfff565 	bl	15278 <testFail>
   17ce0:	e59f01dc 	ldr	r0, [pc, #476]	; 17ec4 <test_ttydriver+0x65c>
   17ce4:	e59f11dc 	ldr	r1, [pc, #476]	; 17ec8 <test_ttydriver+0x660>
   17ce8:	e3a02077 	mov	r2, #119	; 0x77
   17cec:	eb000f7c 	bl	1bae4 <printf>
   17cf0:	e3a05000 	mov	r5, #0
   17cf4:	ea000000 	b	17cfc <test_ttydriver+0x494>
   17cf8:	ebfff559 	bl	15264 <testPass>
   17cfc:	e1a00004 	mov	r0, r4
   17d00:	e59f1214 	ldr	r1, [pc, #532]	; 17f1c <test_ttydriver+0x6b4>
   17d04:	ebfff565 	bl	152a0 <testPrint>
   17d08:	e3a00004 	mov	r0, #4
   17d0c:	e3a03000 	mov	r3, #0
   17d10:	e3a01020 	mov	r1, #32
   17d14:	e1a02000 	mov	r2, r0
   17d18:	ebffe794 	bl	11b70 <control>
   17d1c:	e59f11fc 	ldr	r1, [pc, #508]	; 17f20 <test_ttydriver+0x6b8>
   17d20:	e3a02008 	mov	r2, #8
   17d24:	e3a00002 	mov	r0, #2
   17d28:	ebffe7d6 	bl	11c88 <write>
   17d2c:	e3a00004 	mov	r0, #4
   17d30:	e08d1000 	add	r1, sp, r0
   17d34:	e3a0200a 	mov	r2, #10
   17d38:	ebffe7ba 	bl	11c28 <read>
   17d3c:	e3a00004 	mov	r0, #4
   17d40:	e3a01021 	mov	r1, #33	; 0x21
   17d44:	e1a02000 	mov	r2, r0
   17d48:	e3a03000 	mov	r3, #0
   17d4c:	ebffe787 	bl	11b70 <control>
   17d50:	e59f11b4 	ldr	r1, [pc, #436]	; 17f0c <test_ttydriver+0x6a4>
   17d54:	e28d0004 	add	r0, sp, #4
   17d58:	e3a02007 	mov	r2, #7
   17d5c:	eb00102f 	bl	1be20 <strncmp>
   17d60:	e3500000 	cmp	r0, #0
   17d64:	e59f1154 	ldr	r1, [pc, #340]	; 17ec0 <test_ttydriver+0x658>
   17d68:	e1a00004 	mov	r0, r4
   17d6c:	0a000006 	beq	17d8c <test_ttydriver+0x524>
   17d70:	ebfff540 	bl	15278 <testFail>
   17d74:	e59f0148 	ldr	r0, [pc, #328]	; 17ec4 <test_ttydriver+0x65c>
   17d78:	e59f1148 	ldr	r1, [pc, #328]	; 17ec8 <test_ttydriver+0x660>
   17d7c:	e3a0207f 	mov	r2, #127	; 0x7f
   17d80:	eb000f57 	bl	1bae4 <printf>
   17d84:	e3a05000 	mov	r5, #0
   17d88:	ea000000 	b	17d90 <test_ttydriver+0x528>
   17d8c:	ebfff534 	bl	15264 <testPass>
   17d90:	e28d7004 	add	r7, sp, #4
   17d94:	e1a00007 	mov	r0, r7
   17d98:	e3a01032 	mov	r1, #50	; 0x32
   17d9c:	eb000d61 	bl	1b328 <bzero>
   17da0:	e1a00004 	mov	r0, r4
   17da4:	e59f1178 	ldr	r1, [pc, #376]	; 17f24 <test_ttydriver+0x6bc>
   17da8:	ebfff53c 	bl	152a0 <testPrint>
   17dac:	e3a01020 	mov	r1, #32
   17db0:	e3a02008 	mov	r2, #8
   17db4:	e3a03000 	mov	r3, #0
   17db8:	e3a00004 	mov	r0, #4
   17dbc:	ebffe76b 	bl	11b70 <control>
   17dc0:	e3a00002 	mov	r0, #2
   17dc4:	e59f115c 	ldr	r1, [pc, #348]	; 17f28 <test_ttydriver+0x6c0>
   17dc8:	e3a02008 	mov	r2, #8
   17dcc:	ebffe7ad 	bl	11c88 <write>
   17dd0:	e3a06000 	mov	r6, #0
   17dd4:	e0871006 	add	r1, r7, r6
   17dd8:	e2662008 	rsb	r2, r6, #8
   17ddc:	e3a00004 	mov	r0, #4
   17de0:	ebffe790 	bl	11c28 <read>
   17de4:	e0866000 	add	r6, r6, r0
   17de8:	e3560007 	cmp	r6, #7
   17dec:	dafffff8 	ble	17dd4 <test_ttydriver+0x56c>
   17df0:	e3a01021 	mov	r1, #33	; 0x21
   17df4:	e3a02008 	mov	r2, #8
   17df8:	e3a03000 	mov	r3, #0
   17dfc:	e3a00004 	mov	r0, #4
   17e00:	ebffe75a 	bl	11b70 <control>
   17e04:	e59f1120 	ldr	r1, [pc, #288]	; 17f2c <test_ttydriver+0x6c4>
   17e08:	e1a00007 	mov	r0, r7
   17e0c:	e3a02008 	mov	r2, #8
   17e10:	eb001002 	bl	1be20 <strncmp>
   17e14:	e3500000 	cmp	r0, #0
   17e18:	e59f10a0 	ldr	r1, [pc, #160]	; 17ec0 <test_ttydriver+0x658>
   17e1c:	e1a00004 	mov	r0, r4
   17e20:	0a000006 	beq	17e40 <test_ttydriver+0x5d8>
   17e24:	ebfff513 	bl	15278 <testFail>
   17e28:	e59f0094 	ldr	r0, [pc, #148]	; 17ec4 <test_ttydriver+0x65c>
   17e2c:	e59f1094 	ldr	r1, [pc, #148]	; 17ec8 <test_ttydriver+0x660>
   17e30:	e3a0208c 	mov	r2, #140	; 0x8c
   17e34:	eb000f2a 	bl	1bae4 <printf>
   17e38:	e3a05000 	mov	r5, #0
   17e3c:	ea000000 	b	17e44 <test_ttydriver+0x5dc>
   17e40:	ebfff507 	bl	15264 <testPass>
   17e44:	e3a01020 	mov	r1, #32
   17e48:	e6ef207a 	uxtb	r2, sl
   17e4c:	e3a03000 	mov	r3, #0
   17e50:	e3a00004 	mov	r0, #4
   17e54:	ebffe745 	bl	11b70 <control>
   17e58:	e3a01023 	mov	r1, #35	; 0x23
   17e5c:	e3a02001 	mov	r2, #1
   17e60:	e3a03000 	mov	r3, #0
   17e64:	e3a00004 	mov	r0, #4
   17e68:	ebffe740 	bl	11b70 <control>
   17e6c:	e3a01022 	mov	r1, #34	; 0x22
   17e70:	e3a00004 	mov	r0, #4
   17e74:	e1a02008 	mov	r2, r8
   17e78:	e3a03000 	mov	r3, #0
   17e7c:	ebffe73b 	bl	11b70 <control>
   17e80:	e3550000 	cmp	r5, #0
   17e84:	e3a00001 	mov	r0, #1
   17e88:	e59f1030 	ldr	r1, [pc, #48]	; 17ec0 <test_ttydriver+0x658>
   17e8c:	0a000001 	beq	17e98 <test_ttydriver+0x630>
   17e90:	ebfff4f3 	bl	15264 <testPass>
   17e94:	ea000000 	b	17e9c <test_ttydriver+0x634>
   17e98:	ebfff4f6 	bl	15278 <testFail>
   17e9c:	e3a00004 	mov	r0, #4
   17ea0:	ebffe726 	bl	11b40 <close>
   17ea4:	e3a00002 	mov	r0, #2
   17ea8:	ebffe724 	bl	11b40 <close>
   17eac:	e3a00001 	mov	r0, #1
   17eb0:	e28dd03c 	add	sp, sp, #60	; 0x3c
   17eb4:	e8bd85f0 	pop	{r4, r5, r6, r7, r8, sl, pc}
   17eb8:	0001e3fc 	.word	0x0001e3fc
   17ebc:	0001e402 	.word	0x0001e402
   17ec0:	0001d661 	.word	0x0001d661
   17ec4:	0001e177 	.word	0x0001e177
   17ec8:	0001e416 	.word	0x0001e416
   17ecc:	0001e42f 	.word	0x0001e42f
   17ed0:	0001e445 	.word	0x0001e445
   17ed4:	0001e45e 	.word	0x0001e45e
   17ed8:	0001e479 	.word	0x0001e479
   17edc:	0001e496 	.word	0x0001e496
   17ee0:	0001e4a3 	.word	0x0001e4a3
   17ee4:	0001e4a8 	.word	0x0001e4a8
   17ee8:	0001e4b5 	.word	0x0001e4b5
   17eec:	0001e4ae 	.word	0x0001e4ae
   17ef0:	0001e4bc 	.word	0x0001e4bc
   17ef4:	0001e4c6 	.word	0x0001e4c6
   17ef8:	0001e4d3 	.word	0x0001e4d3
   17efc:	0001e4dd 	.word	0x0001e4dd
   17f00:	0001e4e4 	.word	0x0001e4e4
   17f04:	0001e4eb 	.word	0x0001e4eb
   17f08:	0001e507 	.word	0x0001e507
   17f0c:	0001e515 	.word	0x0001e515
   17f10:	0001e51d 	.word	0x0001e51d
   17f14:	0001e534 	.word	0x0001e534
   17f18:	0001e539 	.word	0x0001e539
   17f1c:	0001e53e 	.word	0x0001e53e
   17f20:	0001e54e 	.word	0x0001e54e
   17f24:	0001e557 	.word	0x0001e557
   17f28:	0001e56e 	.word	0x0001e56e
   17f2c:	0001e577 	.word	0x0001e577

00017f30 <test_libLimits>:
   17f30:	e92d4038 	push	{r3, r4, r5, lr}
   17f34:	e59f5160 	ldr	r5, [pc, #352]	; 1809c <test_libLimits+0x16c>
   17f38:	e1a04000 	mov	r4, r0
   17f3c:	e59f115c 	ldr	r1, [pc, #348]	; 180a0 <test_libLimits+0x170>
   17f40:	ebfff4d6 	bl	152a0 <testPrint>
   17f44:	e1a00004 	mov	r0, r4
   17f48:	e1a01005 	mov	r1, r5
   17f4c:	ebfff4c4 	bl	15264 <testPass>
   17f50:	e1a00004 	mov	r0, r4
   17f54:	e59f1148 	ldr	r1, [pc, #328]	; 180a4 <test_libLimits+0x174>
   17f58:	ebfff4d0 	bl	152a0 <testPrint>
   17f5c:	e1a00004 	mov	r0, r4
   17f60:	e1a01005 	mov	r1, r5
   17f64:	ebfff4be 	bl	15264 <testPass>
   17f68:	e1a00004 	mov	r0, r4
   17f6c:	e59f1134 	ldr	r1, [pc, #308]	; 180a8 <test_libLimits+0x178>
   17f70:	ebfff4ca 	bl	152a0 <testPrint>
   17f74:	e1a00004 	mov	r0, r4
   17f78:	e1a01005 	mov	r1, r5
   17f7c:	ebfff4b8 	bl	15264 <testPass>
   17f80:	e1a00004 	mov	r0, r4
   17f84:	e59f1120 	ldr	r1, [pc, #288]	; 180ac <test_libLimits+0x17c>
   17f88:	ebfff4c4 	bl	152a0 <testPrint>
   17f8c:	e1a00004 	mov	r0, r4
   17f90:	e1a01005 	mov	r1, r5
   17f94:	ebfff4b2 	bl	15264 <testPass>
   17f98:	e1a00004 	mov	r0, r4
   17f9c:	e59f110c 	ldr	r1, [pc, #268]	; 180b0 <test_libLimits+0x180>
   17fa0:	ebfff4be 	bl	152a0 <testPrint>
   17fa4:	e1a00004 	mov	r0, r4
   17fa8:	e1a01005 	mov	r1, r5
   17fac:	ebfff4ac 	bl	15264 <testPass>
   17fb0:	e1a00004 	mov	r0, r4
   17fb4:	e59f10f8 	ldr	r1, [pc, #248]	; 180b4 <test_libLimits+0x184>
   17fb8:	ebfff4b8 	bl	152a0 <testPrint>
   17fbc:	e1a00004 	mov	r0, r4
   17fc0:	e1a01005 	mov	r1, r5
   17fc4:	ebfff4a6 	bl	15264 <testPass>
   17fc8:	e1a00004 	mov	r0, r4
   17fcc:	e59f10e4 	ldr	r1, [pc, #228]	; 180b8 <test_libLimits+0x188>
   17fd0:	ebfff4b2 	bl	152a0 <testPrint>
   17fd4:	e1a00004 	mov	r0, r4
   17fd8:	e1a01005 	mov	r1, r5
   17fdc:	ebfff4a0 	bl	15264 <testPass>
   17fe0:	e1a00004 	mov	r0, r4
   17fe4:	e59f10d0 	ldr	r1, [pc, #208]	; 180bc <test_libLimits+0x18c>
   17fe8:	ebfff4ac 	bl	152a0 <testPrint>
   17fec:	e1a00004 	mov	r0, r4
   17ff0:	e1a01005 	mov	r1, r5
   17ff4:	ebfff49a 	bl	15264 <testPass>
   17ff8:	e1a00004 	mov	r0, r4
   17ffc:	e59f10bc 	ldr	r1, [pc, #188]	; 180c0 <test_libLimits+0x190>
   18000:	ebfff4a6 	bl	152a0 <testPrint>
   18004:	e1a00004 	mov	r0, r4
   18008:	e1a01005 	mov	r1, r5
   1800c:	ebfff494 	bl	15264 <testPass>
   18010:	e1a00004 	mov	r0, r4
   18014:	e59f10a8 	ldr	r1, [pc, #168]	; 180c4 <test_libLimits+0x194>
   18018:	ebfff4a0 	bl	152a0 <testPrint>
   1801c:	e1a00004 	mov	r0, r4
   18020:	e1a01005 	mov	r1, r5
   18024:	ebfff48e 	bl	15264 <testPass>
   18028:	e1a00004 	mov	r0, r4
   1802c:	e59f1094 	ldr	r1, [pc, #148]	; 180c8 <test_libLimits+0x198>
   18030:	ebfff49a 	bl	152a0 <testPrint>
   18034:	e1a00004 	mov	r0, r4
   18038:	e1a01005 	mov	r1, r5
   1803c:	ebfff488 	bl	15264 <testPass>
   18040:	e1a00004 	mov	r0, r4
   18044:	e59f1080 	ldr	r1, [pc, #128]	; 180cc <test_libLimits+0x19c>
   18048:	ebfff494 	bl	152a0 <testPrint>
   1804c:	e1a00004 	mov	r0, r4
   18050:	e1a01005 	mov	r1, r5
   18054:	ebfff482 	bl	15264 <testPass>
   18058:	e1a00004 	mov	r0, r4
   1805c:	e59f106c 	ldr	r1, [pc, #108]	; 180d0 <test_libLimits+0x1a0>
   18060:	ebfff48e 	bl	152a0 <testPrint>
   18064:	e1a00004 	mov	r0, r4
   18068:	e1a01005 	mov	r1, r5
   1806c:	ebfff47c 	bl	15264 <testPass>
   18070:	e1a00004 	mov	r0, r4
   18074:	e59f1058 	ldr	r1, [pc, #88]	; 180d4 <test_libLimits+0x1a4>
   18078:	ebfff488 	bl	152a0 <testPrint>
   1807c:	e1a00004 	mov	r0, r4
   18080:	e1a01005 	mov	r1, r5
   18084:	ebfff476 	bl	15264 <testPass>
   18088:	e3a00001 	mov	r0, #1
   1808c:	e1a01005 	mov	r1, r5
   18090:	ebfff473 	bl	15264 <testPass>
   18094:	e3a00001 	mov	r0, #1
   18098:	e8bd8038 	pop	{r3, r4, r5, pc}
   1809c:	0001d661 	.word	0x0001d661
   180a0:	0001e580 	.word	0x0001e580
   180a4:	0001e596 	.word	0x0001e596
   180a8:	0001e5ac 	.word	0x0001e5ac
   180ac:	0001e5c9 	.word	0x0001e5c9
   180b0:	0001e5e6 	.word	0x0001e5e6
   180b4:	0001e605 	.word	0x0001e605
   180b8:	0001e61c 	.word	0x0001e61c
   180bc:	0001e633 	.word	0x0001e633
   180c0:	0001e653 	.word	0x0001e653
   180c4:	0001e668 	.word	0x0001e668
   180c8:	0001e67d 	.word	0x0001e67d
   180cc:	0001e69b 	.word	0x0001e69b
   180d0:	0001e6b1 	.word	0x0001e6b1
   180d4:	0001e6c7 	.word	0x0001e6c7

000180d8 <test_raw>:
   180d8:	e92d4008 	push	{r3, lr}
   180dc:	e3a00001 	mov	r0, #1
   180e0:	e59f1008 	ldr	r1, [pc, #8]	; 180f0 <test_raw+0x18>
   180e4:	ebfff468 	bl	1528c <testSkip>
   180e8:	e3a00001 	mov	r0, #1
   180ec:	e8bd8008 	pop	{r3, pc}
   180f0:	0001d661 	.word	0x0001d661

000180f4 <test_udp>:
   180f4:	e92d4008 	push	{r3, lr}
   180f8:	e3a00001 	mov	r0, #1
   180fc:	e59f1008 	ldr	r1, [pc, #8]	; 1810c <test_udp+0x18>
   18100:	ebfff461 	bl	1528c <testSkip>
   18104:	e3a00001 	mov	r0, #1
   18108:	e8bd8008 	pop	{r3, pc}
   1810c:	0001d661 	.word	0x0001d661

00018110 <test_libStdio>:
   18110:	e92d4ff0 	push	{r4, r5, r6, r7, r8, r9, sl, fp, lr}
   18114:	e28db020 	add	fp, sp, #32
   18118:	e24dd0bc 	sub	sp, sp, #188	; 0xbc
   1811c:	e1a04000 	mov	r4, r0
   18120:	e3a00002 	mov	r0, #2
   18124:	ebffe6a9 	bl	11bd0 <open>
   18128:	e3700001 	cmn	r0, #1
   1812c:	e1a00004 	mov	r0, r4
   18130:	1a000007 	bne	18154 <test_libStdio+0x44>
   18134:	e59f1fd4 	ldr	r1, [pc, #4052]	; 19110 <test_libStdio+0x1000>
   18138:	ebfff44e 	bl	15278 <testFail>
   1813c:	e59f0fd0 	ldr	r0, [pc, #4048]	; 19114 <test_libStdio+0x1004>
   18140:	e59f1fd0 	ldr	r1, [pc, #4048]	; 19118 <test_libStdio+0x1008>
   18144:	e3a02020 	mov	r2, #32
   18148:	eb000e65 	bl	1bae4 <printf>
   1814c:	e3a05000 	mov	r5, #0
   18150:	ea000002 	b	18160 <test_libStdio+0x50>
   18154:	e59f1fc0 	ldr	r1, [pc, #4032]	; 1911c <test_libStdio+0x100c>
   18158:	ebfff441 	bl	15264 <testPass>
   1815c:	e3a05001 	mov	r5, #1
   18160:	e3a01001 	mov	r1, #1
   18164:	e3a00002 	mov	r0, #2
   18168:	e1a02001 	mov	r2, r1
   1816c:	e3a03000 	mov	r3, #0
   18170:	ebffe67e 	bl	11b70 <control>
   18174:	e3700001 	cmn	r0, #1
   18178:	e1a00004 	mov	r0, r4
   1817c:	1a000007 	bne	181a0 <test_libStdio+0x90>
   18180:	e59f1f98 	ldr	r1, [pc, #3992]	; 19120 <test_libStdio+0x1010>
   18184:	ebfff43b 	bl	15278 <testFail>
   18188:	e59f0f84 	ldr	r0, [pc, #3972]	; 19114 <test_libStdio+0x1004>
   1818c:	e59f1f84 	ldr	r1, [pc, #3972]	; 19118 <test_libStdio+0x1008>
   18190:	e3a02023 	mov	r2, #35	; 0x23
   18194:	eb000e52 	bl	1bae4 <printf>
   18198:	e3a05000 	mov	r5, #0
   1819c:	ea000001 	b	181a8 <test_libStdio+0x98>
   181a0:	e59f1f74 	ldr	r1, [pc, #3956]	; 1911c <test_libStdio+0x100c>
   181a4:	ebfff42e 	bl	15264 <testPass>
   181a8:	e1a00004 	mov	r0, r4
   181ac:	e59f1f70 	ldr	r1, [pc, #3952]	; 19124 <test_libStdio+0x1014>
   181b0:	ebfff43a 	bl	152a0 <testPrint>
   181b4:	e3a00061 	mov	r0, #97	; 0x61
   181b8:	e3a01002 	mov	r1, #2
   181bc:	eb000ddf 	bl	1b940 <fputc>
   181c0:	e3500061 	cmp	r0, #97	; 0x61
   181c4:	e1a00004 	mov	r0, r4
   181c8:	0a000007 	beq	181ec <test_libStdio+0xdc>
   181cc:	e59f1f54 	ldr	r1, [pc, #3924]	; 19128 <test_libStdio+0x1018>
   181d0:	ebfff428 	bl	15278 <testFail>
   181d4:	e59f0f38 	ldr	r0, [pc, #3896]	; 19114 <test_libStdio+0x1004>
   181d8:	e59f1f38 	ldr	r1, [pc, #3896]	; 19118 <test_libStdio+0x1008>
   181dc:	e3a0202a 	mov	r2, #42	; 0x2a
   181e0:	eb000e3f 	bl	1bae4 <printf>
   181e4:	e3a05000 	mov	r5, #0
   181e8:	ea000001 	b	181f4 <test_libStdio+0xe4>
   181ec:	e59f1f28 	ldr	r1, [pc, #3880]	; 1911c <test_libStdio+0x100c>
   181f0:	ebfff41b 	bl	15264 <testPass>
   181f4:	e3a0000a 	mov	r0, #10
   181f8:	e3a01002 	mov	r1, #2
   181fc:	eb000dcf 	bl	1b940 <fputc>
   18200:	e350000a 	cmp	r0, #10
   18204:	e1a00004 	mov	r0, r4
   18208:	0a000007 	beq	1822c <test_libStdio+0x11c>
   1820c:	e59f1f14 	ldr	r1, [pc, #3860]	; 19128 <test_libStdio+0x1018>
   18210:	ebfff418 	bl	15278 <testFail>
   18214:	e59f0ef8 	ldr	r0, [pc, #3832]	; 19114 <test_libStdio+0x1004>
   18218:	e59f1ef8 	ldr	r1, [pc, #3832]	; 19118 <test_libStdio+0x1008>
   1821c:	e3a0202c 	mov	r2, #44	; 0x2c
   18220:	eb000e2f 	bl	1bae4 <printf>
   18224:	e3a05000 	mov	r5, #0
   18228:	ea000001 	b	18234 <test_libStdio+0x124>
   1822c:	e59f1ee8 	ldr	r1, [pc, #3816]	; 1911c <test_libStdio+0x100c>
   18230:	ebfff40b 	bl	15264 <testPass>
   18234:	e3a00004 	mov	r0, #4
   18238:	e3a01002 	mov	r1, #2
   1823c:	eb000dbf 	bl	1b940 <fputc>
   18240:	e3500004 	cmp	r0, #4
   18244:	e1a00004 	mov	r0, r4
   18248:	0a000007 	beq	1826c <test_libStdio+0x15c>
   1824c:	e59f1ed4 	ldr	r1, [pc, #3796]	; 19128 <test_libStdio+0x1018>
   18250:	ebfff408 	bl	15278 <testFail>
   18254:	e59f0eb8 	ldr	r0, [pc, #3768]	; 19114 <test_libStdio+0x1004>
   18258:	e59f1eb8 	ldr	r1, [pc, #3768]	; 19118 <test_libStdio+0x1008>
   1825c:	e3a0202e 	mov	r2, #46	; 0x2e
   18260:	eb000e1f 	bl	1bae4 <printf>
   18264:	e3a05000 	mov	r5, #0
   18268:	ea000001 	b	18274 <test_libStdio+0x164>
   1826c:	e59f1ea8 	ldr	r1, [pc, #3752]	; 1911c <test_libStdio+0x100c>
   18270:	ebfff3fb 	bl	15264 <testPass>
   18274:	e3a00002 	mov	r0, #2
   18278:	eb000d84 	bl	1b890 <fgetc>
   1827c:	e3500061 	cmp	r0, #97	; 0x61
   18280:	e1a00004 	mov	r0, r4
   18284:	0a000007 	beq	182a8 <test_libStdio+0x198>
   18288:	e59f1e9c 	ldr	r1, [pc, #3740]	; 1912c <test_libStdio+0x101c>
   1828c:	ebfff3f9 	bl	15278 <testFail>
   18290:	e59f0e7c 	ldr	r0, [pc, #3708]	; 19114 <test_libStdio+0x1004>
   18294:	e59f1e7c 	ldr	r1, [pc, #3708]	; 19118 <test_libStdio+0x1008>
   18298:	e3a02030 	mov	r2, #48	; 0x30
   1829c:	eb000e10 	bl	1bae4 <printf>
   182a0:	e3a05000 	mov	r5, #0
   182a4:	ea000001 	b	182b0 <test_libStdio+0x1a0>
   182a8:	e59f1e6c 	ldr	r1, [pc, #3692]	; 1911c <test_libStdio+0x100c>
   182ac:	ebfff3ec 	bl	15264 <testPass>
   182b0:	e3a00002 	mov	r0, #2
   182b4:	eb000d75 	bl	1b890 <fgetc>
   182b8:	e350000a 	cmp	r0, #10
   182bc:	e1a00004 	mov	r0, r4
   182c0:	0a000007 	beq	182e4 <test_libStdio+0x1d4>
   182c4:	e59f1e60 	ldr	r1, [pc, #3680]	; 1912c <test_libStdio+0x101c>
   182c8:	ebfff3ea 	bl	15278 <testFail>
   182cc:	e59f0e40 	ldr	r0, [pc, #3648]	; 19114 <test_libStdio+0x1004>
   182d0:	e59f1e40 	ldr	r1, [pc, #3648]	; 19118 <test_libStdio+0x1008>
   182d4:	e3a02032 	mov	r2, #50	; 0x32
   182d8:	eb000e01 	bl	1bae4 <printf>
   182dc:	e3a05000 	mov	r5, #0
   182e0:	ea000001 	b	182ec <test_libStdio+0x1dc>
   182e4:	e59f1e30 	ldr	r1, [pc, #3632]	; 1911c <test_libStdio+0x100c>
   182e8:	ebfff3dd 	bl	15264 <testPass>
   182ec:	e3a00002 	mov	r0, #2
   182f0:	eb000d66 	bl	1b890 <fgetc>
   182f4:	e3500004 	cmp	r0, #4
   182f8:	e1a00004 	mov	r0, r4
   182fc:	0a000007 	beq	18320 <test_libStdio+0x210>
   18300:	e59f1e24 	ldr	r1, [pc, #3620]	; 1912c <test_libStdio+0x101c>
   18304:	ebfff3db 	bl	15278 <testFail>
   18308:	e59f0e04 	ldr	r0, [pc, #3588]	; 19114 <test_libStdio+0x1004>
   1830c:	e59f1e04 	ldr	r1, [pc, #3588]	; 19118 <test_libStdio+0x1008>
   18310:	e3a02034 	mov	r2, #52	; 0x34
   18314:	eb000df2 	bl	1bae4 <printf>
   18318:	e3a05000 	mov	r5, #0
   1831c:	ea000001 	b	18328 <test_libStdio+0x218>
   18320:	e59f1df4 	ldr	r1, [pc, #3572]	; 1911c <test_libStdio+0x100c>
   18324:	ebfff3ce 	bl	15264 <testPass>
   18328:	e1a00004 	mov	r0, r4
   1832c:	e59f1dfc 	ldr	r1, [pc, #3580]	; 19130 <test_libStdio+0x1020>
   18330:	ebfff3da 	bl	152a0 <testPrint>
   18334:	e3a00002 	mov	r0, #2
   18338:	e59f1df4 	ldr	r1, [pc, #3572]	; 19134 <test_libStdio+0x1024>
   1833c:	e3a0200f 	mov	r2, #15
   18340:	ebffe650 	bl	11c88 <write>
   18344:	e350000f 	cmp	r0, #15
   18348:	e1a00004 	mov	r0, r4
   1834c:	0a000007 	beq	18370 <test_libStdio+0x260>
   18350:	e59f1ec8 	ldr	r1, [pc, #3784]	; 19220 <test_libStdio+0x1110>
   18354:	ebfff3c7 	bl	15278 <testFail>
   18358:	e59f0db4 	ldr	r0, [pc, #3508]	; 19114 <test_libStdio+0x1004>
   1835c:	e59f1db4 	ldr	r1, [pc, #3508]	; 19118 <test_libStdio+0x1008>
   18360:	e3a0203b 	mov	r2, #59	; 0x3b
   18364:	eb000dde 	bl	1bae4 <printf>
   18368:	e3a05000 	mov	r5, #0
   1836c:	ea000001 	b	18378 <test_libStdio+0x268>
   18370:	e59f1da4 	ldr	r1, [pc, #3492]	; 1911c <test_libStdio+0x100c>
   18374:	ebfff3ba 	bl	15264 <testPass>
   18378:	e24b608c 	sub	r6, fp, #140	; 0x8c
   1837c:	e3a01058 	mov	r1, #88	; 0x58
   18380:	e3a02014 	mov	r2, #20
   18384:	e1a00006 	mov	r0, r6
   18388:	eb000dcd 	bl	1bac4 <memset>
   1838c:	e1a00006 	mov	r0, r6
   18390:	e3a01014 	mov	r1, #20
   18394:	e3a02002 	mov	r2, #2
   18398:	eb000d43 	bl	1b8ac <fgets>
   1839c:	e1560000 	cmp	r6, r0
   183a0:	e1a00004 	mov	r0, r4
   183a4:	0a000007 	beq	183c8 <test_libStdio+0x2b8>
   183a8:	e59f1d88 	ldr	r1, [pc, #3464]	; 19138 <test_libStdio+0x1028>
   183ac:	ebfff3b1 	bl	15278 <testFail>
   183b0:	e59f0d5c 	ldr	r0, [pc, #3420]	; 19114 <test_libStdio+0x1004>
   183b4:	e59f1d5c 	ldr	r1, [pc, #3420]	; 19118 <test_libStdio+0x1008>
   183b8:	e3a0203e 	mov	r2, #62	; 0x3e
   183bc:	eb000dc8 	bl	1bae4 <printf>
   183c0:	e3a05000 	mov	r5, #0
   183c4:	ea000001 	b	183d0 <test_libStdio+0x2c0>
   183c8:	e59f1d4c 	ldr	r1, [pc, #3404]	; 1911c <test_libStdio+0x100c>
   183cc:	ebfff3a4 	bl	15264 <testPass>
   183d0:	e24b008c 	sub	r0, fp, #140	; 0x8c
   183d4:	e59f1d60 	ldr	r1, [pc, #3424]	; 1913c <test_libStdio+0x102c>
   183d8:	e3a02014 	mov	r2, #20
   183dc:	eb000da2 	bl	1ba6c <memcmp>
   183e0:	e3500000 	cmp	r0, #0
   183e4:	e1a00004 	mov	r0, r4
   183e8:	0a000007 	beq	1840c <test_libStdio+0x2fc>
   183ec:	e59f1d4c 	ldr	r1, [pc, #3404]	; 19140 <test_libStdio+0x1030>
   183f0:	ebfff3a0 	bl	15278 <testFail>
   183f4:	e59f0d18 	ldr	r0, [pc, #3352]	; 19114 <test_libStdio+0x1004>
   183f8:	e59f1d18 	ldr	r1, [pc, #3352]	; 19118 <test_libStdio+0x1008>
   183fc:	e3a02040 	mov	r2, #64	; 0x40
   18400:	eb000db7 	bl	1bae4 <printf>
   18404:	e3a05000 	mov	r5, #0
   18408:	ea000001 	b	18414 <test_libStdio+0x304>
   1840c:	e59f1d08 	ldr	r1, [pc, #3336]	; 1911c <test_libStdio+0x100c>
   18410:	ebfff393 	bl	15264 <testPass>
   18414:	e1a00004 	mov	r0, r4
   18418:	e59f1d24 	ldr	r1, [pc, #3364]	; 19144 <test_libStdio+0x1034>
   1841c:	ebfff39f 	bl	152a0 <testPrint>
   18420:	e3a00002 	mov	r0, #2
   18424:	e59f1d08 	ldr	r1, [pc, #3336]	; 19134 <test_libStdio+0x1024>
   18428:	e3a0200f 	mov	r2, #15
   1842c:	ebffe615 	bl	11c88 <write>
   18430:	e350000f 	cmp	r0, #15
   18434:	e1a00004 	mov	r0, r4
   18438:	0a000007 	beq	1845c <test_libStdio+0x34c>
   1843c:	e59f1ddc 	ldr	r1, [pc, #3548]	; 19220 <test_libStdio+0x1110>
   18440:	ebfff38c 	bl	15278 <testFail>
   18444:	e59f0cc8 	ldr	r0, [pc, #3272]	; 19114 <test_libStdio+0x1004>
   18448:	e59f1cc8 	ldr	r1, [pc, #3272]	; 19118 <test_libStdio+0x1008>
   1844c:	e3a02045 	mov	r2, #69	; 0x45
   18450:	eb000da3 	bl	1bae4 <printf>
   18454:	e3a05000 	mov	r5, #0
   18458:	ea000001 	b	18464 <test_libStdio+0x354>
   1845c:	e59f1cb8 	ldr	r1, [pc, #3256]	; 1911c <test_libStdio+0x100c>
   18460:	ebfff37f 	bl	15264 <testPass>
   18464:	e24b608c 	sub	r6, fp, #140	; 0x8c
   18468:	e3a01058 	mov	r1, #88	; 0x58
   1846c:	e3a02014 	mov	r2, #20
   18470:	e1a00006 	mov	r0, r6
   18474:	eb000d92 	bl	1bac4 <memset>
   18478:	e1a00006 	mov	r0, r6
   1847c:	e3a01008 	mov	r1, #8
   18480:	e3a02002 	mov	r2, #2
   18484:	eb000d08 	bl	1b8ac <fgets>
   18488:	e1560000 	cmp	r6, r0
   1848c:	e1a00004 	mov	r0, r4
   18490:	0a000007 	beq	184b4 <test_libStdio+0x3a4>
   18494:	e59f1c9c 	ldr	r1, [pc, #3228]	; 19138 <test_libStdio+0x1028>
   18498:	ebfff376 	bl	15278 <testFail>
   1849c:	e59f0c70 	ldr	r0, [pc, #3184]	; 19114 <test_libStdio+0x1004>
   184a0:	e59f1c70 	ldr	r1, [pc, #3184]	; 19118 <test_libStdio+0x1008>
   184a4:	e3a02048 	mov	r2, #72	; 0x48
   184a8:	eb000d8d 	bl	1bae4 <printf>
   184ac:	e3a05000 	mov	r5, #0
   184b0:	ea000001 	b	184bc <test_libStdio+0x3ac>
   184b4:	e59f1c60 	ldr	r1, [pc, #3168]	; 1911c <test_libStdio+0x100c>
   184b8:	ebfff369 	bl	15264 <testPass>
   184bc:	e24b008c 	sub	r0, fp, #140	; 0x8c
   184c0:	e59f1c80 	ldr	r1, [pc, #3200]	; 19148 <test_libStdio+0x1038>
   184c4:	e3a0200a 	mov	r2, #10
   184c8:	eb000d67 	bl	1ba6c <memcmp>
   184cc:	e3500000 	cmp	r0, #0
   184d0:	e1a00004 	mov	r0, r4
   184d4:	0a000007 	beq	184f8 <test_libStdio+0x3e8>
   184d8:	e59f1c60 	ldr	r1, [pc, #3168]	; 19140 <test_libStdio+0x1030>
   184dc:	ebfff365 	bl	15278 <testFail>
   184e0:	e59f0c2c 	ldr	r0, [pc, #3116]	; 19114 <test_libStdio+0x1004>
   184e4:	e59f1c2c 	ldr	r1, [pc, #3116]	; 19118 <test_libStdio+0x1008>
   184e8:	e3a0204a 	mov	r2, #74	; 0x4a
   184ec:	eb000d7c 	bl	1bae4 <printf>
   184f0:	e3a05000 	mov	r5, #0
   184f4:	ea000001 	b	18500 <test_libStdio+0x3f0>
   184f8:	e59f1c1c 	ldr	r1, [pc, #3100]	; 1911c <test_libStdio+0x100c>
   184fc:	ebfff358 	bl	15264 <testPass>
   18500:	e24b608c 	sub	r6, fp, #140	; 0x8c
   18504:	e3a01058 	mov	r1, #88	; 0x58
   18508:	e3a02014 	mov	r2, #20
   1850c:	e1a00006 	mov	r0, r6
   18510:	eb000d6b 	bl	1bac4 <memset>
   18514:	e1a00006 	mov	r0, r6
   18518:	e3a01009 	mov	r1, #9
   1851c:	e3a02002 	mov	r2, #2
   18520:	eb000ce1 	bl	1b8ac <fgets>
   18524:	e1560000 	cmp	r6, r0
   18528:	e1a00004 	mov	r0, r4
   1852c:	0a000007 	beq	18550 <test_libStdio+0x440>
   18530:	e59f1c00 	ldr	r1, [pc, #3072]	; 19138 <test_libStdio+0x1028>
   18534:	ebfff34f 	bl	15278 <testFail>
   18538:	e59f0bd4 	ldr	r0, [pc, #3028]	; 19114 <test_libStdio+0x1004>
   1853c:	e59f1bd4 	ldr	r1, [pc, #3028]	; 19118 <test_libStdio+0x1008>
   18540:	e3a0204d 	mov	r2, #77	; 0x4d
   18544:	eb000d66 	bl	1bae4 <printf>
   18548:	e3a05000 	mov	r5, #0
   1854c:	ea000001 	b	18558 <test_libStdio+0x448>
   18550:	e59f1bc4 	ldr	r1, [pc, #3012]	; 1911c <test_libStdio+0x100c>
   18554:	ebfff342 	bl	15264 <testPass>
   18558:	e24b008c 	sub	r0, fp, #140	; 0x8c
   1855c:	e59f1be8 	ldr	r1, [pc, #3048]	; 1914c <test_libStdio+0x103c>
   18560:	e3a0200a 	mov	r2, #10
   18564:	eb000d40 	bl	1ba6c <memcmp>
   18568:	e3500000 	cmp	r0, #0
   1856c:	e1a00004 	mov	r0, r4
   18570:	0a000007 	beq	18594 <test_libStdio+0x484>
   18574:	e59f1bc4 	ldr	r1, [pc, #3012]	; 19140 <test_libStdio+0x1030>
   18578:	ebfff33e 	bl	15278 <testFail>
   1857c:	e59f0b90 	ldr	r0, [pc, #2960]	; 19114 <test_libStdio+0x1004>
   18580:	e59f1b90 	ldr	r1, [pc, #2960]	; 19118 <test_libStdio+0x1008>
   18584:	e3a0204f 	mov	r2, #79	; 0x4f
   18588:	eb000d55 	bl	1bae4 <printf>
   1858c:	e3a05000 	mov	r5, #0
   18590:	ea000001 	b	1859c <test_libStdio+0x48c>
   18594:	e59f1b80 	ldr	r1, [pc, #2944]	; 1911c <test_libStdio+0x100c>
   18598:	ebfff331 	bl	15264 <testPass>
   1859c:	e1a00004 	mov	r0, r4
   185a0:	e59f1ba8 	ldr	r1, [pc, #2984]	; 19150 <test_libStdio+0x1040>
   185a4:	ebfff33d 	bl	152a0 <testPrint>
   185a8:	e24b008c 	sub	r0, fp, #140	; 0x8c
   185ac:	e3a01009 	mov	r1, #9
   185b0:	e3a02002 	mov	r2, #2
   185b4:	eb000cbc 	bl	1b8ac <fgets>
   185b8:	e3500000 	cmp	r0, #0
   185bc:	e1a00004 	mov	r0, r4
   185c0:	0a000007 	beq	185e4 <test_libStdio+0x4d4>
   185c4:	e59f1b88 	ldr	r1, [pc, #2952]	; 19154 <test_libStdio+0x1044>
   185c8:	ebfff32a 	bl	15278 <testFail>
   185cc:	e59f0b40 	ldr	r0, [pc, #2880]	; 19114 <test_libStdio+0x1004>
   185d0:	e59f1b40 	ldr	r1, [pc, #2880]	; 19118 <test_libStdio+0x1008>
   185d4:	e3a02054 	mov	r2, #84	; 0x54
   185d8:	eb000d41 	bl	1bae4 <printf>
   185dc:	e3a05000 	mov	r5, #0
   185e0:	ea000001 	b	185ec <test_libStdio+0x4dc>
   185e4:	e59f1b30 	ldr	r1, [pc, #2864]	; 1911c <test_libStdio+0x100c>
   185e8:	ebfff31d 	bl	15264 <testPass>
   185ec:	e1a00004 	mov	r0, r4
   185f0:	e59f1b60 	ldr	r1, [pc, #2912]	; 19158 <test_libStdio+0x1048>
   185f4:	ebfff329 	bl	152a0 <testPrint>
   185f8:	e3a00002 	mov	r0, #2
   185fc:	e59f1b58 	ldr	r1, [pc, #2904]	; 1915c <test_libStdio+0x104c>
   18600:	e3a0200c 	mov	r2, #12
   18604:	ebffe59f 	bl	11c88 <write>
   18608:	e350000c 	cmp	r0, #12
   1860c:	e1a00004 	mov	r0, r4
   18610:	0a000007 	beq	18634 <test_libStdio+0x524>
   18614:	e59f1c04 	ldr	r1, [pc, #3076]	; 19220 <test_libStdio+0x1110>
   18618:	ebfff316 	bl	15278 <testFail>
   1861c:	e59f0af0 	ldr	r0, [pc, #2800]	; 19114 <test_libStdio+0x1004>
   18620:	e59f1af0 	ldr	r1, [pc, #2800]	; 19118 <test_libStdio+0x1008>
   18624:	e3a02059 	mov	r2, #89	; 0x59
   18628:	eb000d2d 	bl	1bae4 <printf>
   1862c:	e3a05000 	mov	r5, #0
   18630:	ea000001 	b	1863c <test_libStdio+0x52c>
   18634:	e59f1ae0 	ldr	r1, [pc, #2784]	; 1911c <test_libStdio+0x100c>
   18638:	ebfff309 	bl	15264 <testPass>
   1863c:	e24b608c 	sub	r6, fp, #140	; 0x8c
   18640:	e3a01058 	mov	r1, #88	; 0x58
   18644:	e3a02014 	mov	r2, #20
   18648:	e1a00006 	mov	r0, r6
   1864c:	eb000d1c 	bl	1bac4 <memset>
   18650:	e1a00006 	mov	r0, r6
   18654:	e3a01010 	mov	r1, #16
   18658:	e3a02002 	mov	r2, #2
   1865c:	eb000c92 	bl	1b8ac <fgets>
   18660:	e1560000 	cmp	r6, r0
   18664:	e1a00004 	mov	r0, r4
   18668:	0a000007 	beq	1868c <test_libStdio+0x57c>
   1866c:	e59f1ac4 	ldr	r1, [pc, #2756]	; 19138 <test_libStdio+0x1028>
   18670:	ebfff300 	bl	15278 <testFail>
   18674:	e59f0a98 	ldr	r0, [pc, #2712]	; 19114 <test_libStdio+0x1004>
   18678:	e59f1a98 	ldr	r1, [pc, #2712]	; 19118 <test_libStdio+0x1008>
   1867c:	e3a0205c 	mov	r2, #92	; 0x5c
   18680:	eb000d17 	bl	1bae4 <printf>
   18684:	e3a05000 	mov	r5, #0
   18688:	ea000001 	b	18694 <test_libStdio+0x584>
   1868c:	e59f1a88 	ldr	r1, [pc, #2696]	; 1911c <test_libStdio+0x100c>
   18690:	ebfff2f3 	bl	15264 <testPass>
   18694:	e24b008c 	sub	r0, fp, #140	; 0x8c
   18698:	e59f1ac0 	ldr	r1, [pc, #2752]	; 19160 <test_libStdio+0x1050>
   1869c:	e3a0200a 	mov	r2, #10
   186a0:	eb000cf1 	bl	1ba6c <memcmp>
   186a4:	e3500000 	cmp	r0, #0
   186a8:	e1a00004 	mov	r0, r4
   186ac:	0a000007 	beq	186d0 <test_libStdio+0x5c0>
   186b0:	e59f1aac 	ldr	r1, [pc, #2732]	; 19164 <test_libStdio+0x1054>
   186b4:	ebfff2ef 	bl	15278 <testFail>
   186b8:	e59f0a54 	ldr	r0, [pc, #2644]	; 19114 <test_libStdio+0x1004>
   186bc:	e59f1a54 	ldr	r1, [pc, #2644]	; 19118 <test_libStdio+0x1008>
   186c0:	e3a0205e 	mov	r2, #94	; 0x5e
   186c4:	eb000d06 	bl	1bae4 <printf>
   186c8:	e3a05000 	mov	r5, #0
   186cc:	ea000001 	b	186d8 <test_libStdio+0x5c8>
   186d0:	e59f1a44 	ldr	r1, [pc, #2628]	; 1911c <test_libStdio+0x100c>
   186d4:	ebfff2e2 	bl	15264 <testPass>
   186d8:	e24b608c 	sub	r6, fp, #140	; 0x8c
   186dc:	e3a01058 	mov	r1, #88	; 0x58
   186e0:	e3a02014 	mov	r2, #20
   186e4:	e1a00006 	mov	r0, r6
   186e8:	eb000cf5 	bl	1bac4 <memset>
   186ec:	e1a00006 	mov	r0, r6
   186f0:	e3a01010 	mov	r1, #16
   186f4:	e3a02002 	mov	r2, #2
   186f8:	eb000c6b 	bl	1b8ac <fgets>
   186fc:	e1560000 	cmp	r6, r0
   18700:	e1a00004 	mov	r0, r4
   18704:	0a000007 	beq	18728 <test_libStdio+0x618>
   18708:	e59f1a28 	ldr	r1, [pc, #2600]	; 19138 <test_libStdio+0x1028>
   1870c:	ebfff2d9 	bl	15278 <testFail>
   18710:	e59f09fc 	ldr	r0, [pc, #2556]	; 19114 <test_libStdio+0x1004>
   18714:	e59f19fc 	ldr	r1, [pc, #2556]	; 19118 <test_libStdio+0x1008>
   18718:	e3a02062 	mov	r2, #98	; 0x62
   1871c:	eb000cf0 	bl	1bae4 <printf>
   18720:	e3a05000 	mov	r5, #0
   18724:	ea000001 	b	18730 <test_libStdio+0x620>
   18728:	e59f19ec 	ldr	r1, [pc, #2540]	; 1911c <test_libStdio+0x100c>
   1872c:	ebfff2cc 	bl	15264 <testPass>
   18730:	e24b008c 	sub	r0, fp, #140	; 0x8c
   18734:	e59f1a2c 	ldr	r1, [pc, #2604]	; 19168 <test_libStdio+0x1058>
   18738:	e3a0200a 	mov	r2, #10
   1873c:	eb000cca 	bl	1ba6c <memcmp>
   18740:	e3500000 	cmp	r0, #0
   18744:	e1a00004 	mov	r0, r4
   18748:	0a000007 	beq	1876c <test_libStdio+0x65c>
   1874c:	e59f1a10 	ldr	r1, [pc, #2576]	; 19164 <test_libStdio+0x1054>
   18750:	ebfff2c8 	bl	15278 <testFail>
   18754:	e59f09b8 	ldr	r0, [pc, #2488]	; 19114 <test_libStdio+0x1004>
   18758:	e59f19b8 	ldr	r1, [pc, #2488]	; 19118 <test_libStdio+0x1008>
   1875c:	e3a02064 	mov	r2, #100	; 0x64
   18760:	eb000cdf 	bl	1bae4 <printf>
   18764:	e3a05000 	mov	r5, #0
   18768:	ea000001 	b	18774 <test_libStdio+0x664>
   1876c:	e59f19a8 	ldr	r1, [pc, #2472]	; 1911c <test_libStdio+0x100c>
   18770:	ebfff2bb 	bl	15264 <testPass>
   18774:	e1a00004 	mov	r0, r4
   18778:	e59f19ec 	ldr	r1, [pc, #2540]	; 1916c <test_libStdio+0x105c>
   1877c:	ebfff2c7 	bl	152a0 <testPrint>
   18780:	e59f09e8 	ldr	r0, [pc, #2536]	; 19170 <test_libStdio+0x1060>
   18784:	e3a01002 	mov	r1, #2
   18788:	eb000c76 	bl	1b968 <fputs>
   1878c:	e3500000 	cmp	r0, #0
   18790:	e1a00004 	mov	r0, r4
   18794:	aa000007 	bge	187b8 <test_libStdio+0x6a8>
   18798:	e59f19d4 	ldr	r1, [pc, #2516]	; 19174 <test_libStdio+0x1064>
   1879c:	ebfff2b5 	bl	15278 <testFail>
   187a0:	e59f096c 	ldr	r0, [pc, #2412]	; 19114 <test_libStdio+0x1004>
   187a4:	e59f196c 	ldr	r1, [pc, #2412]	; 19118 <test_libStdio+0x1008>
   187a8:	e3a02069 	mov	r2, #105	; 0x69
   187ac:	eb000ccc 	bl	1bae4 <printf>
   187b0:	e3a05000 	mov	r5, #0
   187b4:	ea000001 	b	187c0 <test_libStdio+0x6b0>
   187b8:	e59f195c 	ldr	r1, [pc, #2396]	; 1911c <test_libStdio+0x100c>
   187bc:	ebfff2a8 	bl	15264 <testPass>
   187c0:	e3a00002 	mov	r0, #2
   187c4:	e24b108c 	sub	r1, fp, #140	; 0x8c
   187c8:	e3a02009 	mov	r2, #9
   187cc:	ebffe515 	bl	11c28 <read>
   187d0:	e3500009 	cmp	r0, #9
   187d4:	e1a00004 	mov	r0, r4
   187d8:	0a000007 	beq	187fc <test_libStdio+0x6ec>
   187dc:	e59f1994 	ldr	r1, [pc, #2452]	; 19178 <test_libStdio+0x1068>
   187e0:	ebfff2a4 	bl	15278 <testFail>
   187e4:	e59f0928 	ldr	r0, [pc, #2344]	; 19114 <test_libStdio+0x1004>
   187e8:	e59f1928 	ldr	r1, [pc, #2344]	; 19118 <test_libStdio+0x1008>
   187ec:	e3a0206b 	mov	r2, #107	; 0x6b
   187f0:	eb000cbb 	bl	1bae4 <printf>
   187f4:	e3a05000 	mov	r5, #0
   187f8:	ea000001 	b	18804 <test_libStdio+0x6f4>
   187fc:	e59f1918 	ldr	r1, [pc, #2328]	; 1911c <test_libStdio+0x100c>
   18800:	ebfff297 	bl	15264 <testPass>
   18804:	e24b008c 	sub	r0, fp, #140	; 0x8c
   18808:	e59f1960 	ldr	r1, [pc, #2400]	; 19170 <test_libStdio+0x1060>
   1880c:	e3a02009 	mov	r2, #9
   18810:	eb000d82 	bl	1be20 <strncmp>
   18814:	e3500000 	cmp	r0, #0
   18818:	e1a00004 	mov	r0, r4
   1881c:	0a000007 	beq	18840 <test_libStdio+0x730>
   18820:	e59f1954 	ldr	r1, [pc, #2388]	; 1917c <test_libStdio+0x106c>
   18824:	ebfff293 	bl	15278 <testFail>
   18828:	e59f08e4 	ldr	r0, [pc, #2276]	; 19114 <test_libStdio+0x1004>
   1882c:	e59f18e4 	ldr	r1, [pc, #2276]	; 19118 <test_libStdio+0x1008>
   18830:	e3a0206d 	mov	r2, #109	; 0x6d
   18834:	eb000caa 	bl	1bae4 <printf>
   18838:	e3a05000 	mov	r5, #0
   1883c:	ea000001 	b	18848 <test_libStdio+0x738>
   18840:	e59f18d4 	ldr	r1, [pc, #2260]	; 1911c <test_libStdio+0x100c>
   18844:	ebfff286 	bl	15264 <testPass>
   18848:	e59f8930 	ldr	r8, [pc, #2352]	; 19180 <test_libStdio+0x1070>
   1884c:	e1a00004 	mov	r0, r4
   18850:	e59f192c 	ldr	r1, [pc, #2348]	; 19184 <test_libStdio+0x1074>
   18854:	ebfff291 	bl	152a0 <testPrint>
   18858:	e59f6928 	ldr	r6, [pc, #2344]	; 19188 <test_libStdio+0x1078>
   1885c:	e5983000 	ldr	r3, [r8]
   18860:	e3a07054 	mov	r7, #84	; 0x54
   18864:	e0236397 	mla	r3, r7, r3, r6
   18868:	e3a01002 	mov	r1, #2
   1886c:	e593a044 	ldr	sl, [r3, #68]	; 0x44
   18870:	e3a00061 	mov	r0, #97	; 0x61
   18874:	e5831044 	str	r1, [r3, #68]	; 0x44
   18878:	eb000c30 	bl	1b940 <fputc>
   1887c:	e5983000 	ldr	r3, [r8]
   18880:	e3500061 	cmp	r0, #97	; 0x61
   18884:	e0266397 	mla	r6, r7, r3, r6
   18888:	e1a00004 	mov	r0, r4
   1888c:	e586a044 	str	sl, [r6, #68]	; 0x44
   18890:	0a000007 	beq	188b4 <test_libStdio+0x7a4>
   18894:	e59f18f0 	ldr	r1, [pc, #2288]	; 1918c <test_libStdio+0x107c>
   18898:	ebfff276 	bl	15278 <testFail>
   1889c:	e59f0870 	ldr	r0, [pc, #2160]	; 19114 <test_libStdio+0x1004>
   188a0:	e59f1870 	ldr	r1, [pc, #2160]	; 19118 <test_libStdio+0x1008>
   188a4:	e3a02075 	mov	r2, #117	; 0x75
   188a8:	eb000c8d 	bl	1bae4 <printf>
   188ac:	e3a05000 	mov	r5, #0
   188b0:	ea000001 	b	188bc <test_libStdio+0x7ac>
   188b4:	e59f1860 	ldr	r1, [pc, #2144]	; 1911c <test_libStdio+0x100c>
   188b8:	ebfff269 	bl	15264 <testPass>
   188bc:	e59f88bc 	ldr	r8, [pc, #2236]	; 19180 <test_libStdio+0x1070>
   188c0:	e59f68c0 	ldr	r6, [pc, #2240]	; 19188 <test_libStdio+0x1078>
   188c4:	e5983000 	ldr	r3, [r8]
   188c8:	e3a07054 	mov	r7, #84	; 0x54
   188cc:	e0236397 	mla	r3, r7, r3, r6
   188d0:	e3a00002 	mov	r0, #2
   188d4:	e593a040 	ldr	sl, [r3, #64]	; 0x40
   188d8:	e5830040 	str	r0, [r3, #64]	; 0x40
   188dc:	eb000beb 	bl	1b890 <fgetc>
   188e0:	e5983000 	ldr	r3, [r8]
   188e4:	e3500061 	cmp	r0, #97	; 0x61
   188e8:	e0266397 	mla	r6, r7, r3, r6
   188ec:	e1a00004 	mov	r0, r4
   188f0:	e586a040 	str	sl, [r6, #64]	; 0x40
   188f4:	0a000007 	beq	18918 <test_libStdio+0x808>
   188f8:	e59f1890 	ldr	r1, [pc, #2192]	; 19190 <test_libStdio+0x1080>
   188fc:	ebfff25d 	bl	15278 <testFail>
   18900:	e59f080c 	ldr	r0, [pc, #2060]	; 19114 <test_libStdio+0x1004>
   18904:	e59f180c 	ldr	r1, [pc, #2060]	; 19118 <test_libStdio+0x1008>
   18908:	e3a0207a 	mov	r2, #122	; 0x7a
   1890c:	eb000c74 	bl	1bae4 <printf>
   18910:	e3a05000 	mov	r5, #0
   18914:	ea000001 	b	18920 <test_libStdio+0x810>
   18918:	e59f17fc 	ldr	r1, [pc, #2044]	; 1911c <test_libStdio+0x100c>
   1891c:	ebfff250 	bl	15264 <testPass>
   18920:	e59f8858 	ldr	r8, [pc, #2136]	; 19180 <test_libStdio+0x1070>
   18924:	e1a00004 	mov	r0, r4
   18928:	e59f1864 	ldr	r1, [pc, #2148]	; 19194 <test_libStdio+0x1084>
   1892c:	ebfff25b 	bl	152a0 <testPrint>
   18930:	e59f6850 	ldr	r6, [pc, #2128]	; 19188 <test_libStdio+0x1078>
   18934:	e5983000 	ldr	r3, [r8]
   18938:	e3a07054 	mov	r7, #84	; 0x54
   1893c:	e0236397 	mla	r3, r7, r3, r6
   18940:	e3a00002 	mov	r0, #2
   18944:	e593a040 	ldr	sl, [r3, #64]	; 0x40
   18948:	e5830040 	str	r0, [r3, #64]	; 0x40
   1894c:	eb000bcf 	bl	1b890 <fgetc>
   18950:	e5983000 	ldr	r3, [r8]
   18954:	e3700002 	cmn	r0, #2
   18958:	e0266397 	mla	r6, r7, r3, r6
   1895c:	e1a00004 	mov	r0, r4
   18960:	e586a040 	str	sl, [r6, #64]	; 0x40
   18964:	0a000007 	beq	18988 <test_libStdio+0x878>
   18968:	e59f1828 	ldr	r1, [pc, #2088]	; 19198 <test_libStdio+0x1088>
   1896c:	ebfff241 	bl	15278 <testFail>
   18970:	e59f079c 	ldr	r0, [pc, #1948]	; 19114 <test_libStdio+0x1004>
   18974:	e59f179c 	ldr	r1, [pc, #1948]	; 19118 <test_libStdio+0x1008>
   18978:	e3a02081 	mov	r2, #129	; 0x81
   1897c:	eb000c58 	bl	1bae4 <printf>
   18980:	e3a05000 	mov	r5, #0
   18984:	ea000001 	b	18990 <test_libStdio+0x880>
   18988:	e59f178c 	ldr	r1, [pc, #1932]	; 1911c <test_libStdio+0x100c>
   1898c:	ebfff234 	bl	15264 <testPass>
   18990:	e1a00004 	mov	r0, r4
   18994:	e59f1800 	ldr	r1, [pc, #2048]	; 1919c <test_libStdio+0x108c>
   18998:	ebfff240 	bl	152a0 <testPrint>
   1899c:	e59f37fc 	ldr	r3, [pc, #2044]	; 191a0 <test_libStdio+0x1090>
   189a0:	e3a0204b 	mov	r2, #75	; 0x4b
   189a4:	e58d3008 	str	r3, [sp, #8]
   189a8:	e58d2000 	str	r2, [sp]
   189ac:	e58d2004 	str	r2, [sp, #4]
   189b0:	e3a00002 	mov	r0, #2
   189b4:	e59f17e8 	ldr	r1, [pc, #2024]	; 191a4 <test_libStdio+0x1094>
   189b8:	e1a03002 	mov	r3, r2
   189bc:	eb000bd3 	bl	1b910 <fprintf>
   189c0:	e350000f 	cmp	r0, #15
   189c4:	e1a00004 	mov	r0, r4
   189c8:	0a000007 	beq	189ec <test_libStdio+0x8dc>
   189cc:	e59f17d4 	ldr	r1, [pc, #2004]	; 191a8 <test_libStdio+0x1098>
   189d0:	ebfff228 	bl	15278 <testFail>
   189d4:	e59f0738 	ldr	r0, [pc, #1848]	; 19114 <test_libStdio+0x1004>
   189d8:	e59f1738 	ldr	r1, [pc, #1848]	; 19118 <test_libStdio+0x1008>
   189dc:	e3a02088 	mov	r2, #136	; 0x88
   189e0:	eb000c3f 	bl	1bae4 <printf>
   189e4:	e3a05000 	mov	r5, #0
   189e8:	ea000001 	b	189f4 <test_libStdio+0x8e4>
   189ec:	e59f1728 	ldr	r1, [pc, #1832]	; 1911c <test_libStdio+0x100c>
   189f0:	ebfff21b 	bl	15264 <testPass>
   189f4:	e3a00002 	mov	r0, #2
   189f8:	e24b108c 	sub	r1, fp, #140	; 0x8c
   189fc:	e3a0200f 	mov	r2, #15
   18a00:	ebffe488 	bl	11c28 <read>
   18a04:	e350000f 	cmp	r0, #15
   18a08:	e1a00004 	mov	r0, r4
   18a0c:	0a000007 	beq	18a30 <test_libStdio+0x920>
   18a10:	e59f1794 	ldr	r1, [pc, #1940]	; 191ac <test_libStdio+0x109c>
   18a14:	ebfff217 	bl	15278 <testFail>
   18a18:	e59f06f4 	ldr	r0, [pc, #1780]	; 19114 <test_libStdio+0x1004>
   18a1c:	e59f16f4 	ldr	r1, [pc, #1780]	; 19118 <test_libStdio+0x1008>
   18a20:	e3a0208c 	mov	r2, #140	; 0x8c
   18a24:	eb000c2e 	bl	1bae4 <printf>
   18a28:	e3a05000 	mov	r5, #0
   18a2c:	ea000001 	b	18a38 <test_libStdio+0x928>
   18a30:	e59f16e4 	ldr	r1, [pc, #1764]	; 1911c <test_libStdio+0x100c>
   18a34:	ebfff20a 	bl	15264 <testPass>
   18a38:	e24b008c 	sub	r0, fp, #140	; 0x8c
   18a3c:	e59f176c 	ldr	r1, [pc, #1900]	; 191b0 <test_libStdio+0x10a0>
   18a40:	e3a0200f 	mov	r2, #15
   18a44:	eb000cf5 	bl	1be20 <strncmp>
   18a48:	e3500000 	cmp	r0, #0
   18a4c:	e1a00004 	mov	r0, r4
   18a50:	0a000007 	beq	18a74 <test_libStdio+0x964>
   18a54:	e59f1758 	ldr	r1, [pc, #1880]	; 191b4 <test_libStdio+0x10a4>
   18a58:	ebfff206 	bl	15278 <testFail>
   18a5c:	e59f06b0 	ldr	r0, [pc, #1712]	; 19114 <test_libStdio+0x1004>
   18a60:	e59f16b0 	ldr	r1, [pc, #1712]	; 19118 <test_libStdio+0x1008>
   18a64:	e3a0208f 	mov	r2, #143	; 0x8f
   18a68:	eb000c1d 	bl	1bae4 <printf>
   18a6c:	e3a05000 	mov	r5, #0
   18a70:	ea000001 	b	18a7c <test_libStdio+0x96c>
   18a74:	e59f16a0 	ldr	r1, [pc, #1696]	; 1911c <test_libStdio+0x100c>
   18a78:	ebfff1f9 	bl	15264 <testPass>
   18a7c:	e59f86fc 	ldr	r8, [pc, #1788]	; 19180 <test_libStdio+0x1070>
   18a80:	e1a00004 	mov	r0, r4
   18a84:	e59f172c 	ldr	r1, [pc, #1836]	; 191b8 <test_libStdio+0x10a8>
   18a88:	ebfff204 	bl	152a0 <testPrint>
   18a8c:	e59f66f4 	ldr	r6, [pc, #1780]	; 19188 <test_libStdio+0x1078>
   18a90:	e5983000 	ldr	r3, [r8]
   18a94:	e3a07054 	mov	r7, #84	; 0x54
   18a98:	e0236397 	mla	r3, r7, r3, r6
   18a9c:	e3a02002 	mov	r2, #2
   18aa0:	e593a044 	ldr	sl, [r3, #68]	; 0x44
   18aa4:	e5832044 	str	r2, [r3, #68]	; 0x44
   18aa8:	e59f36f0 	ldr	r3, [pc, #1776]	; 191a0 <test_libStdio+0x1090>
   18aac:	e3a0104b 	mov	r1, #75	; 0x4b
   18ab0:	e58d3004 	str	r3, [sp, #4]
   18ab4:	e58d1000 	str	r1, [sp]
   18ab8:	e1a03001 	mov	r3, r1
   18abc:	e59f06e0 	ldr	r0, [pc, #1760]	; 191a4 <test_libStdio+0x1094>
   18ac0:	e1a02001 	mov	r2, r1
   18ac4:	eb000c06 	bl	1bae4 <printf>
   18ac8:	e5983000 	ldr	r3, [r8]
   18acc:	e350000f 	cmp	r0, #15
   18ad0:	e0266397 	mla	r6, r7, r3, r6
   18ad4:	e1a00004 	mov	r0, r4
   18ad8:	e586a044 	str	sl, [r6, #68]	; 0x44
   18adc:	0a000007 	beq	18b00 <test_libStdio+0x9f0>
   18ae0:	e59f16d4 	ldr	r1, [pc, #1748]	; 191bc <test_libStdio+0x10ac>
   18ae4:	ebfff1e3 	bl	15278 <testFail>
   18ae8:	e59f0624 	ldr	r0, [pc, #1572]	; 19114 <test_libStdio+0x1004>
   18aec:	e59f1624 	ldr	r1, [pc, #1572]	; 19118 <test_libStdio+0x1008>
   18af0:	e3a02098 	mov	r2, #152	; 0x98
   18af4:	eb000bfa 	bl	1bae4 <printf>
   18af8:	e3a05000 	mov	r5, #0
   18afc:	ea000001 	b	18b08 <test_libStdio+0x9f8>
   18b00:	e59f1614 	ldr	r1, [pc, #1556]	; 1911c <test_libStdio+0x100c>
   18b04:	ebfff1d6 	bl	15264 <testPass>
   18b08:	e3a00002 	mov	r0, #2
   18b0c:	e24b108c 	sub	r1, fp, #140	; 0x8c
   18b10:	e3a0200f 	mov	r2, #15
   18b14:	ebffe443 	bl	11c28 <read>
   18b18:	e350000f 	cmp	r0, #15
   18b1c:	e1a00004 	mov	r0, r4
   18b20:	0a000007 	beq	18b44 <test_libStdio+0xa34>
   18b24:	e59f1680 	ldr	r1, [pc, #1664]	; 191ac <test_libStdio+0x109c>
   18b28:	ebfff1d2 	bl	15278 <testFail>
   18b2c:	e59f05e0 	ldr	r0, [pc, #1504]	; 19114 <test_libStdio+0x1004>
   18b30:	e59f15e0 	ldr	r1, [pc, #1504]	; 19118 <test_libStdio+0x1008>
   18b34:	e3a0209b 	mov	r2, #155	; 0x9b
   18b38:	eb000be9 	bl	1bae4 <printf>
   18b3c:	e3a05000 	mov	r5, #0
   18b40:	ea000001 	b	18b4c <test_libStdio+0xa3c>
   18b44:	e59f15d0 	ldr	r1, [pc, #1488]	; 1911c <test_libStdio+0x100c>
   18b48:	ebfff1c5 	bl	15264 <testPass>
   18b4c:	e24b008c 	sub	r0, fp, #140	; 0x8c
   18b50:	e59f1658 	ldr	r1, [pc, #1624]	; 191b0 <test_libStdio+0x10a0>
   18b54:	e3a0200f 	mov	r2, #15
   18b58:	eb000cb0 	bl	1be20 <strncmp>
   18b5c:	e3500000 	cmp	r0, #0
   18b60:	e1a00004 	mov	r0, r4
   18b64:	0a000007 	beq	18b88 <test_libStdio+0xa78>
   18b68:	e59f1650 	ldr	r1, [pc, #1616]	; 191c0 <test_libStdio+0x10b0>
   18b6c:	ebfff1c1 	bl	15278 <testFail>
   18b70:	e59f059c 	ldr	r0, [pc, #1436]	; 19114 <test_libStdio+0x1004>
   18b74:	e59f159c 	ldr	r1, [pc, #1436]	; 19118 <test_libStdio+0x1008>
   18b78:	e3a0209d 	mov	r2, #157	; 0x9d
   18b7c:	eb000bd8 	bl	1bae4 <printf>
   18b80:	e3a05000 	mov	r5, #0
   18b84:	ea000001 	b	18b90 <test_libStdio+0xa80>
   18b88:	e59f158c 	ldr	r1, [pc, #1420]	; 1911c <test_libStdio+0x100c>
   18b8c:	ebfff1b4 	bl	15264 <testPass>
   18b90:	e1a00004 	mov	r0, r4
   18b94:	e59f1628 	ldr	r1, [pc, #1576]	; 191c4 <test_libStdio+0x10b4>
   18b98:	ebfff1c0 	bl	152a0 <testPrint>
   18b9c:	e59f35fc 	ldr	r3, [pc, #1532]	; 191a0 <test_libStdio+0x1090>
   18ba0:	e3a0204b 	mov	r2, #75	; 0x4b
   18ba4:	e58d3008 	str	r3, [sp, #8]
   18ba8:	e58d2000 	str	r2, [sp]
   18bac:	e58d2004 	str	r2, [sp, #4]
   18bb0:	e24b008c 	sub	r0, fp, #140	; 0x8c
   18bb4:	e59f15e8 	ldr	r1, [pc, #1512]	; 191a4 <test_libStdio+0x1094>
   18bb8:	e1a03002 	mov	r3, r2
   18bbc:	eb000c21 	bl	1bc48 <sprintf>
   18bc0:	e350000f 	cmp	r0, #15
   18bc4:	e1a00004 	mov	r0, r4
   18bc8:	0a000007 	beq	18bec <test_libStdio+0xadc>
   18bcc:	e59f15f4 	ldr	r1, [pc, #1524]	; 191c8 <test_libStdio+0x10b8>
   18bd0:	ebfff1a8 	bl	15278 <testFail>
   18bd4:	e59f0538 	ldr	r0, [pc, #1336]	; 19114 <test_libStdio+0x1004>
   18bd8:	e59f1538 	ldr	r1, [pc, #1336]	; 19118 <test_libStdio+0x1008>
   18bdc:	e3a020a3 	mov	r2, #163	; 0xa3
   18be0:	eb000bbf 	bl	1bae4 <printf>
   18be4:	e3a05000 	mov	r5, #0
   18be8:	ea000001 	b	18bf4 <test_libStdio+0xae4>
   18bec:	e59f1528 	ldr	r1, [pc, #1320]	; 1911c <test_libStdio+0x100c>
   18bf0:	ebfff19b 	bl	15264 <testPass>
   18bf4:	e24b008c 	sub	r0, fp, #140	; 0x8c
   18bf8:	e59f15b0 	ldr	r1, [pc, #1456]	; 191b0 <test_libStdio+0x10a0>
   18bfc:	e3a0200f 	mov	r2, #15
   18c00:	eb000c86 	bl	1be20 <strncmp>
   18c04:	e3500000 	cmp	r0, #0
   18c08:	e1a00004 	mov	r0, r4
   18c0c:	0a000007 	beq	18c30 <test_libStdio+0xb20>
   18c10:	e59f15b4 	ldr	r1, [pc, #1460]	; 191cc <test_libStdio+0x10bc>
   18c14:	ebfff197 	bl	15278 <testFail>
   18c18:	e59f04f4 	ldr	r0, [pc, #1268]	; 19114 <test_libStdio+0x1004>
   18c1c:	e59f14f4 	ldr	r1, [pc, #1268]	; 19118 <test_libStdio+0x1008>
   18c20:	e3a020a5 	mov	r2, #165	; 0xa5
   18c24:	eb000bae 	bl	1bae4 <printf>
   18c28:	e3a05000 	mov	r5, #0
   18c2c:	ea000001 	b	18c38 <test_libStdio+0xb28>
   18c30:	e59f14e4 	ldr	r1, [pc, #1252]	; 1911c <test_libStdio+0x100c>
   18c34:	ebfff18a 	bl	15264 <testPass>
   18c38:	e1a00004 	mov	r0, r4
   18c3c:	e59f158c 	ldr	r1, [pc, #1420]	; 191d0 <test_libStdio+0x10c0>
   18c40:	ebfff196 	bl	152a0 <testPrint>
   18c44:	e59f1564 	ldr	r1, [pc, #1380]	; 191b0 <test_libStdio+0x10a0>
   18c48:	e3a02010 	mov	r2, #16
   18c4c:	e24b008c 	sub	r0, fp, #140	; 0x8c
   18c50:	eb000c83 	bl	1be64 <strncpy>
   18c54:	e3a06000 	mov	r6, #0
   18c58:	e24b2024 	sub	r2, fp, #36	; 0x24
   18c5c:	e24b3090 	sub	r3, fp, #144	; 0x90
   18c60:	e54b6099 	strb	r6, [fp, #-153]	; 0x99
   18c64:	e50b6090 	str	r6, [fp, #-144]	; 0x90
   18c68:	e50b6094 	str	r6, [fp, #-148]	; 0x94
   18c6c:	e5226074 	str	r6, [r2, #-116]!	; 0x74
   18c70:	e58d3000 	str	r3, [sp]
   18c74:	e24b3099 	sub	r3, fp, #153	; 0x99
   18c78:	e58d3004 	str	r3, [sp, #4]
   18c7c:	e24b3058 	sub	r3, fp, #88	; 0x58
   18c80:	e58d3008 	str	r3, [sp, #8]
   18c84:	e24b008c 	sub	r0, fp, #140	; 0x8c
   18c88:	e59f1514 	ldr	r1, [pc, #1300]	; 191a4 <test_libStdio+0x1094>
   18c8c:	e24b3094 	sub	r3, fp, #148	; 0x94
   18c90:	eb000c0a 	bl	1bcc0 <sscanf>
   18c94:	e3500005 	cmp	r0, #5
   18c98:	e1a00004 	mov	r0, r4
   18c9c:	0a000007 	beq	18cc0 <test_libStdio+0xbb0>
   18ca0:	e59f152c 	ldr	r1, [pc, #1324]	; 191d4 <test_libStdio+0x10c4>
   18ca4:	ebfff173 	bl	15278 <testFail>
   18ca8:	e59f0464 	ldr	r0, [pc, #1124]	; 19114 <test_libStdio+0x1004>
   18cac:	e59f1464 	ldr	r1, [pc, #1124]	; 19118 <test_libStdio+0x1008>
   18cb0:	e3a020ad 	mov	r2, #173	; 0xad
   18cb4:	eb000b8a 	bl	1bae4 <printf>
   18cb8:	e1a05006 	mov	r5, r6
   18cbc:	ea000001 	b	18cc8 <test_libStdio+0xbb8>
   18cc0:	e59f1454 	ldr	r1, [pc, #1108]	; 1911c <test_libStdio+0x100c>
   18cc4:	ebfff166 	bl	15264 <testPass>
   18cc8:	e51b3098 	ldr	r3, [fp, #-152]	; 0x98
   18ccc:	e353004b 	cmp	r3, #75	; 0x4b
   18cd0:	0a000008 	beq	18cf8 <test_libStdio+0xbe8>
   18cd4:	e1a00004 	mov	r0, r4
   18cd8:	e59f14f8 	ldr	r1, [pc, #1272]	; 191d8 <test_libStdio+0x10c8>
   18cdc:	ebfff165 	bl	15278 <testFail>
   18ce0:	e59f042c 	ldr	r0, [pc, #1068]	; 19114 <test_libStdio+0x1004>
   18ce4:	e59f142c 	ldr	r1, [pc, #1068]	; 19118 <test_libStdio+0x1008>
   18ce8:	e3a020b1 	mov	r2, #177	; 0xb1
   18cec:	eb000b7c 	bl	1bae4 <printf>
   18cf0:	e3a05000 	mov	r5, #0
   18cf4:	ea000011 	b	18d40 <test_libStdio+0xc30>
   18cf8:	e51b3094 	ldr	r3, [fp, #-148]	; 0x94
   18cfc:	e353004b 	cmp	r3, #75	; 0x4b
   18d00:	1afffff3 	bne	18cd4 <test_libStdio+0xbc4>
   18d04:	e51b3090 	ldr	r3, [fp, #-144]	; 0x90
   18d08:	e353004b 	cmp	r3, #75	; 0x4b
   18d0c:	1afffff0 	bne	18cd4 <test_libStdio+0xbc4>
   18d10:	e55b3099 	ldrb	r3, [fp, #-153]	; 0x99
   18d14:	e353004b 	cmp	r3, #75	; 0x4b
   18d18:	1affffed 	bne	18cd4 <test_libStdio+0xbc4>
   18d1c:	e24b0058 	sub	r0, fp, #88	; 0x58
   18d20:	e59f1478 	ldr	r1, [pc, #1144]	; 191a0 <test_libStdio+0x1090>
   18d24:	e3a02003 	mov	r2, #3
   18d28:	eb000c3c 	bl	1be20 <strncmp>
   18d2c:	e3500000 	cmp	r0, #0
   18d30:	1affffe7 	bne	18cd4 <test_libStdio+0xbc4>
   18d34:	e1a00004 	mov	r0, r4
   18d38:	e59f13dc 	ldr	r1, [pc, #988]	; 1911c <test_libStdio+0x100c>
   18d3c:	ebfff148 	bl	15264 <testPass>
   18d40:	e1a00004 	mov	r0, r4
   18d44:	e59f1490 	ldr	r1, [pc, #1168]	; 191dc <test_libStdio+0x10cc>
   18d48:	ebfff154 	bl	152a0 <testPrint>
   18d4c:	e3a06000 	mov	r6, #0
   18d50:	e3a00002 	mov	r0, #2
   18d54:	e59f1454 	ldr	r1, [pc, #1108]	; 191b0 <test_libStdio+0x10a0>
   18d58:	e3a0200f 	mov	r2, #15
   18d5c:	e54b6099 	strb	r6, [fp, #-153]	; 0x99
   18d60:	e50b6090 	str	r6, [fp, #-144]	; 0x90
   18d64:	e50b6094 	str	r6, [fp, #-148]	; 0x94
   18d68:	e50b6098 	str	r6, [fp, #-152]	; 0x98
   18d6c:	ebffe3c5 	bl	11c88 <write>
   18d70:	e350000f 	cmp	r0, #15
   18d74:	e1a00004 	mov	r0, r4
   18d78:	0a000007 	beq	18d9c <test_libStdio+0xc8c>
   18d7c:	e59f149c 	ldr	r1, [pc, #1180]	; 19220 <test_libStdio+0x1110>
   18d80:	ebfff13c 	bl	15278 <testFail>
   18d84:	e59f0388 	ldr	r0, [pc, #904]	; 19114 <test_libStdio+0x1004>
   18d88:	e59f1388 	ldr	r1, [pc, #904]	; 19118 <test_libStdio+0x1008>
   18d8c:	e3a020b8 	mov	r2, #184	; 0xb8
   18d90:	eb000b53 	bl	1bae4 <printf>
   18d94:	e1a05006 	mov	r5, r6
   18d98:	ea000001 	b	18da4 <test_libStdio+0xc94>
   18d9c:	e59f1378 	ldr	r1, [pc, #888]	; 1911c <test_libStdio+0x100c>
   18da0:	ebfff12f 	bl	15264 <testPass>
   18da4:	e24b3090 	sub	r3, fp, #144	; 0x90
   18da8:	e58d3000 	str	r3, [sp]
   18dac:	e24b3099 	sub	r3, fp, #153	; 0x99
   18db0:	e58d3004 	str	r3, [sp, #4]
   18db4:	e24b3058 	sub	r3, fp, #88	; 0x58
   18db8:	e58d3008 	str	r3, [sp, #8]
   18dbc:	e3a00002 	mov	r0, #2
   18dc0:	e59f13dc 	ldr	r1, [pc, #988]	; 191a4 <test_libStdio+0x1094>
   18dc4:	e24b2098 	sub	r2, fp, #152	; 0x98
   18dc8:	e24b3094 	sub	r3, fp, #148	; 0x94
   18dcc:	eb000b02 	bl	1b9dc <fscanf>
   18dd0:	e3500005 	cmp	r0, #5
   18dd4:	e1a00004 	mov	r0, r4
   18dd8:	0a000007 	beq	18dfc <test_libStdio+0xcec>
   18ddc:	e59f13fc 	ldr	r1, [pc, #1020]	; 191e0 <test_libStdio+0x10d0>
   18de0:	ebfff124 	bl	15278 <testFail>
   18de4:	e59f0328 	ldr	r0, [pc, #808]	; 19114 <test_libStdio+0x1004>
   18de8:	e59f1328 	ldr	r1, [pc, #808]	; 19118 <test_libStdio+0x1008>
   18dec:	e3a020bb 	mov	r2, #187	; 0xbb
   18df0:	eb000b3b 	bl	1bae4 <printf>
   18df4:	e3a05000 	mov	r5, #0
   18df8:	ea000001 	b	18e04 <test_libStdio+0xcf4>
   18dfc:	e59f1318 	ldr	r1, [pc, #792]	; 1911c <test_libStdio+0x100c>
   18e00:	ebfff117 	bl	15264 <testPass>
   18e04:	e51b3098 	ldr	r3, [fp, #-152]	; 0x98
   18e08:	e353004b 	cmp	r3, #75	; 0x4b
   18e0c:	0a000008 	beq	18e34 <test_libStdio+0xd24>
   18e10:	e1a00004 	mov	r0, r4
   18e14:	e59f13c8 	ldr	r1, [pc, #968]	; 191e4 <test_libStdio+0x10d4>
   18e18:	ebfff116 	bl	15278 <testFail>
   18e1c:	e59f02f0 	ldr	r0, [pc, #752]	; 19114 <test_libStdio+0x1004>
   18e20:	e59f12f0 	ldr	r1, [pc, #752]	; 19118 <test_libStdio+0x1008>
   18e24:	e3a020be 	mov	r2, #190	; 0xbe
   18e28:	eb000b2d 	bl	1bae4 <printf>
   18e2c:	e3a05000 	mov	r5, #0
   18e30:	ea000011 	b	18e7c <test_libStdio+0xd6c>
   18e34:	e51b3094 	ldr	r3, [fp, #-148]	; 0x94
   18e38:	e353004b 	cmp	r3, #75	; 0x4b
   18e3c:	1afffff3 	bne	18e10 <test_libStdio+0xd00>
   18e40:	e51b3090 	ldr	r3, [fp, #-144]	; 0x90
   18e44:	e353004b 	cmp	r3, #75	; 0x4b
   18e48:	1afffff0 	bne	18e10 <test_libStdio+0xd00>
   18e4c:	e55b3099 	ldrb	r3, [fp, #-153]	; 0x99
   18e50:	e353004b 	cmp	r3, #75	; 0x4b
   18e54:	1affffed 	bne	18e10 <test_libStdio+0xd00>
   18e58:	e24b0058 	sub	r0, fp, #88	; 0x58
   18e5c:	e59f133c 	ldr	r1, [pc, #828]	; 191a0 <test_libStdio+0x1090>
   18e60:	e3a02003 	mov	r2, #3
   18e64:	eb000bed 	bl	1be20 <strncmp>
   18e68:	e3500000 	cmp	r0, #0
   18e6c:	1affffe7 	bne	18e10 <test_libStdio+0xd00>
   18e70:	e1a00004 	mov	r0, r4
   18e74:	e59f12a0 	ldr	r1, [pc, #672]	; 1911c <test_libStdio+0x100c>
   18e78:	ebfff0f9 	bl	15264 <testPass>
   18e7c:	e1a00004 	mov	r0, r4
   18e80:	e59f1360 	ldr	r1, [pc, #864]	; 191e8 <test_libStdio+0x10d8>
   18e84:	ebfff105 	bl	152a0 <testPrint>
   18e88:	e3a06000 	mov	r6, #0
   18e8c:	e3a00002 	mov	r0, #2
   18e90:	e59f1318 	ldr	r1, [pc, #792]	; 191b0 <test_libStdio+0x10a0>
   18e94:	e3a0200f 	mov	r2, #15
   18e98:	e54b6099 	strb	r6, [fp, #-153]	; 0x99
   18e9c:	e50b6090 	str	r6, [fp, #-144]	; 0x90
   18ea0:	e50b6094 	str	r6, [fp, #-148]	; 0x94
   18ea4:	e50b6098 	str	r6, [fp, #-152]	; 0x98
   18ea8:	ebffe376 	bl	11c88 <write>
   18eac:	e350000f 	cmp	r0, #15
   18eb0:	e1a00004 	mov	r0, r4
   18eb4:	0a000007 	beq	18ed8 <test_libStdio+0xdc8>
   18eb8:	e59f1360 	ldr	r1, [pc, #864]	; 19220 <test_libStdio+0x1110>
   18ebc:	ebfff0ed 	bl	15278 <testFail>
   18ec0:	e59f024c 	ldr	r0, [pc, #588]	; 19114 <test_libStdio+0x1004>
   18ec4:	e59f124c 	ldr	r1, [pc, #588]	; 19118 <test_libStdio+0x1008>
   18ec8:	e3a020c6 	mov	r2, #198	; 0xc6
   18ecc:	eb000b04 	bl	1bae4 <printf>
   18ed0:	e1a05006 	mov	r5, r6
   18ed4:	ea000001 	b	18ee0 <test_libStdio+0xdd0>
   18ed8:	e59f123c 	ldr	r1, [pc, #572]	; 1911c <test_libStdio+0x100c>
   18edc:	ebfff0e0 	bl	15264 <testPass>
   18ee0:	e59f8298 	ldr	r8, [pc, #664]	; 19180 <test_libStdio+0x1070>
   18ee4:	e59f629c 	ldr	r6, [pc, #668]	; 19188 <test_libStdio+0x1078>
   18ee8:	e5983000 	ldr	r3, [r8]
   18eec:	e3a07054 	mov	r7, #84	; 0x54
   18ef0:	e0236397 	mla	r3, r7, r3, r6
   18ef4:	e3a00002 	mov	r0, #2
   18ef8:	e593a040 	ldr	sl, [r3, #64]	; 0x40
   18efc:	e5830040 	str	r0, [r3, #64]	; 0x40
   18f00:	e24b3090 	sub	r3, fp, #144	; 0x90
   18f04:	e58d3000 	str	r3, [sp]
   18f08:	e24b3099 	sub	r3, fp, #153	; 0x99
   18f0c:	e58d3004 	str	r3, [sp, #4]
   18f10:	e24b3058 	sub	r3, fp, #88	; 0x58
   18f14:	e58d3008 	str	r3, [sp, #8]
   18f18:	e59f1284 	ldr	r1, [pc, #644]	; 191a4 <test_libStdio+0x1094>
   18f1c:	e24b3094 	sub	r3, fp, #148	; 0x94
   18f20:	e24b2098 	sub	r2, fp, #152	; 0x98
   18f24:	eb000aac 	bl	1b9dc <fscanf>
   18f28:	e5983000 	ldr	r3, [r8]
   18f2c:	e3500005 	cmp	r0, #5
   18f30:	e0266397 	mla	r6, r7, r3, r6
   18f34:	e1a00004 	mov	r0, r4
   18f38:	e586a040 	str	sl, [r6, #64]	; 0x40
   18f3c:	0a000007 	beq	18f60 <test_libStdio+0xe50>
   18f40:	e59f12a4 	ldr	r1, [pc, #676]	; 191ec <test_libStdio+0x10dc>
   18f44:	ebfff0cb 	bl	15278 <testFail>
   18f48:	e59f01c4 	ldr	r0, [pc, #452]	; 19114 <test_libStdio+0x1004>
   18f4c:	e59f11c4 	ldr	r1, [pc, #452]	; 19118 <test_libStdio+0x1008>
   18f50:	e3a020cb 	mov	r2, #203	; 0xcb
   18f54:	eb000ae2 	bl	1bae4 <printf>
   18f58:	e3a05000 	mov	r5, #0
   18f5c:	ea000001 	b	18f68 <test_libStdio+0xe58>
   18f60:	e59f11b4 	ldr	r1, [pc, #436]	; 1911c <test_libStdio+0x100c>
   18f64:	ebfff0be 	bl	15264 <testPass>
   18f68:	e51b3098 	ldr	r3, [fp, #-152]	; 0x98
   18f6c:	e353004b 	cmp	r3, #75	; 0x4b
   18f70:	0a000008 	beq	18f98 <test_libStdio+0xe88>
   18f74:	e1a00004 	mov	r0, r4
   18f78:	e59f119c 	ldr	r1, [pc, #412]	; 1911c <test_libStdio+0x100c>
   18f7c:	ebfff0bd 	bl	15278 <testFail>
   18f80:	e59f018c 	ldr	r0, [pc, #396]	; 19114 <test_libStdio+0x1004>
   18f84:	e59f118c 	ldr	r1, [pc, #396]	; 19118 <test_libStdio+0x1008>
   18f88:	e3a020cd 	mov	r2, #205	; 0xcd
   18f8c:	eb000ad4 	bl	1bae4 <printf>
   18f90:	e3a05000 	mov	r5, #0
   18f94:	ea00000f 	b	18fd8 <test_libStdio+0xec8>
   18f98:	e51b3094 	ldr	r3, [fp, #-148]	; 0x94
   18f9c:	e353004b 	cmp	r3, #75	; 0x4b
   18fa0:	1afffff3 	bne	18f74 <test_libStdio+0xe64>
   18fa4:	e51b3090 	ldr	r3, [fp, #-144]	; 0x90
   18fa8:	e353004b 	cmp	r3, #75	; 0x4b
   18fac:	1afffff0 	bne	18f74 <test_libStdio+0xe64>
   18fb0:	e55b3099 	ldrb	r3, [fp, #-153]	; 0x99
   18fb4:	e353004b 	cmp	r3, #75	; 0x4b
   18fb8:	1affffed 	bne	18f74 <test_libStdio+0xe64>
   18fbc:	e24b0058 	sub	r0, fp, #88	; 0x58
   18fc0:	e59f11d8 	ldr	r1, [pc, #472]	; 191a0 <test_libStdio+0x1090>
   18fc4:	e3a02003 	mov	r2, #3
   18fc8:	eb000b94 	bl	1be20 <strncmp>
   18fcc:	e3500000 	cmp	r0, #0
   18fd0:	1affffe7 	bne	18f74 <test_libStdio+0xe64>
   18fd4:	ea000003 	b	18fe8 <test_libStdio+0xed8>
   18fd8:	e3a00000 	mov	r0, #0
   18fdc:	e59fa20c 	ldr	sl, [pc, #524]	; 191f0 <test_libStdio+0x10e0>
   18fe0:	e50b00a0 	str	r0, [fp, #-160]	; 0xa0
   18fe4:	ea000003 	b	18ff8 <test_libStdio+0xee8>
   18fe8:	e1a00004 	mov	r0, r4
   18fec:	e59f1128 	ldr	r1, [pc, #296]	; 1911c <test_libStdio+0x100c>
   18ff0:	ebfff09b 	bl	15264 <testPass>
   18ff4:	eafffff7 	b	18fd8 <test_libStdio+0xec8>
   18ff8:	e51a1004 	ldr	r1, [sl, #-4]
   18ffc:	e51b20a0 	ldr	r2, [fp, #-160]	; 0xa0
   19000:	e50b10a8 	str	r1, [fp, #-168]	; 0xa8
   19004:	e59f11e8 	ldr	r1, [pc, #488]	; 191f4 <test_libStdio+0x10e4>
   19008:	e3a0001c 	mov	r0, #28
   1900c:	e0231290 	mla	r3, r0, r2, r1
   19010:	e59ac000 	ldr	ip, [sl]
   19014:	e283800c 	add	r8, r3, #12
   19018:	e51b00a8 	ldr	r0, [fp, #-168]	; 0xa8
   1901c:	e2833008 	add	r3, r3, #8
   19020:	e51a6008 	ldr	r6, [sl, #-8]
   19024:	e50bd0b0 	str	sp, [fp, #-176]	; 0xb0
   19028:	e50b30cc 	str	r3, [fp, #-204]	; 0xcc
   1902c:	e50bc0c8 	str	ip, [fp, #-200]	; 0xc8
   19030:	eb000b5f 	bl	1bdb4 <strlen>
   19034:	e2802001 	add	r2, r0, #1
   19038:	e50b20ac 	str	r2, [fp, #-172]	; 0xac
   1903c:	e2802008 	add	r2, r0, #8
   19040:	e3c22007 	bic	r2, r2, #7
   19044:	e04dd002 	sub	sp, sp, r2
   19048:	e1a07000 	mov	r7, r0
   1904c:	e28d0010 	add	r0, sp, #16
   19050:	e50b00a4 	str	r0, [fp, #-164]	; 0xa4
   19054:	e1a00006 	mov	r0, r6
   19058:	eb000b55 	bl	1bdb4 <strlen>
   1905c:	e2800039 	add	r0, r0, #57	; 0x39
   19060:	e3c00007 	bic	r0, r0, #7
   19064:	e04dd000 	sub	sp, sp, r0
   19068:	e28d9010 	add	r9, sp, #16
   1906c:	e59f1184 	ldr	r1, [pc, #388]	; 191f8 <test_libStdio+0x10e8>
   19070:	e1a02006 	mov	r2, r6
   19074:	e1a00009 	mov	r0, r9
   19078:	eb000af2 	bl	1bc48 <sprintf>
   1907c:	e1a00004 	mov	r0, r4
   19080:	e1a01009 	mov	r1, r9
   19084:	ebfff085 	bl	152a0 <testPrint>
   19088:	e51bc0c8 	ldr	ip, [fp, #-200]	; 0xc8
   1908c:	e51b30cc 	ldr	r3, [fp, #-204]	; 0xcc
   19090:	e35c0004 	cmp	ip, #4
   19094:	979ff10c 	ldrls	pc, [pc, ip, lsl #2]
   19098:	ea000075 	b	19274 <test_libStdio+0x1164>
   1909c:	000190b0 	.word	0x000190b0
   190a0:	000190c0 	.word	0x000190c0
   190a4:	000190d8 	.word	0x000190d8
   190a8:	000190f0 	.word	0x000190f0
   190ac:	0001924c 	.word	0x0001924c
   190b0:	e1a01006 	mov	r1, r6
   190b4:	e3a00002 	mov	r0, #2
   190b8:	eb000a14 	bl	1b910 <fprintf>
   190bc:	ea000003 	b	190d0 <test_libStdio+0xfc0>
   190c0:	e3a00002 	mov	r0, #2
   190c4:	e1a01006 	mov	r1, r6
   190c8:	e5932004 	ldr	r2, [r3, #4]
   190cc:	eb000a0f 	bl	1b910 <fprintf>
   190d0:	e1a06000 	mov	r6, r0
   190d4:	ea00006f 	b	19298 <test_libStdio+0x1188>
   190d8:	e5932004 	ldr	r2, [r3, #4]
   190dc:	e1a01006 	mov	r1, r6
   190e0:	e5983004 	ldr	r3, [r8, #4]
   190e4:	e3a00002 	mov	r0, #2
   190e8:	eb000a08 	bl	1b910 <fprintf>
   190ec:	eafffff7 	b	190d0 <test_libStdio+0xfc0>
   190f0:	e5982008 	ldr	r2, [r8, #8]
   190f4:	e1a01006 	mov	r1, r6
   190f8:	e58d2000 	str	r2, [sp]
   190fc:	e5932004 	ldr	r2, [r3, #4]
   19100:	e3a00002 	mov	r0, #2
   19104:	e5983004 	ldr	r3, [r8, #4]
   19108:	eb000a00 	bl	1b910 <fprintf>
   1910c:	eaffffef 	b	190d0 <test_libStdio+0xfc0>
   19110:	0001ec50 	.word	0x0001ec50
   19114:	0001e177 	.word	0x0001e177
   19118:	0001ec6f 	.word	0x0001ec6f
   1911c:	0001d661 	.word	0x0001d661
   19120:	0001ec87 	.word	0x0001ec87
   19124:	0001ecb4 	.word	0x0001ecb4
   19128:	0001ecd6 	.word	0x0001ecd6
   1912c:	0001ecfb 	.word	0x0001ecfb
   19130:	0001ed1c 	.word	0x0001ed1c
   19134:	0001ed37 	.word	0x0001ed37
   19138:	0001ed6f 	.word	0x0001ed6f
   1913c:	0001e6e8 	.word	0x0001e6e8
   19140:	0001ed94 	.word	0x0001ed94
   19144:	0001edc2 	.word	0x0001edc2
   19148:	0001e6fd 	.word	0x0001e6fd
   1914c:	0001e708 	.word	0x0001e708
   19150:	0001edd7 	.word	0x0001edd7
   19154:	0001edf9 	.word	0x0001edf9
   19158:	0001ee24 	.word	0x0001ee24
   1915c:	0001ee43 	.word	0x0001ee43
   19160:	0001e713 	.word	0x0001e713
   19164:	0001ee50 	.word	0x0001ee50
   19168:	0001e71e 	.word	0x0001e71e
   1916c:	0001ee77 	.word	0x0001ee77
   19170:	0001ee92 	.word	0x0001ee92
   19174:	0001ee9c 	.word	0x0001ee9c
   19178:	0001eed0 	.word	0x0001eed0
   1917c:	0001eef3 	.word	0x0001eef3
   19180:	0002281c 	.word	0x0002281c
   19184:	0001ef29 	.word	0x0001ef29
   19188:	0002074c 	.word	0x0002074c
   1918c:	0001ef4f 	.word	0x0001ef4f
   19190:	0001ef7a 	.word	0x0001ef7a
   19194:	0001efb0 	.word	0x0001efb0
   19198:	0001efd3 	.word	0x0001efd3
   1919c:	0001efff 	.word	0x0001efff
   191a0:	0001f0a1 	.word	0x0001f0a1
   191a4:	0001f01c 	.word	0x0001f01c
   191a8:	0001f02b 	.word	0x0001f02b
   191ac:	0001f06b 	.word	0x0001f06b
   191b0:	0001f095 	.word	0x0001f095
   191b4:	0001f0a5 	.word	0x0001f0a5
   191b8:	0001f000 	.word	0x0001f000
   191bc:	0001f02c 	.word	0x0001f02c
   191c0:	0001f0a6 	.word	0x0001f0a6
   191c4:	0001f0d2 	.word	0x0001f0d2
   191c8:	0001f0ef 	.word	0x0001f0ef
   191cc:	0001f12f 	.word	0x0001f12f
   191d0:	0001f15c 	.word	0x0001f15c
   191d4:	0001f178 	.word	0x0001f178
   191d8:	0001f1aa 	.word	0x0001f1aa
   191dc:	0001f1cd 	.word	0x0001f1cd
   191e0:	0001f1e9 	.word	0x0001f1e9
   191e4:	0001f21b 	.word	0x0001f21b
   191e8:	0001f1ce 	.word	0x0001f1ce
   191ec:	0001f1ea 	.word	0x0001f1ea
   191f0:	0001e734 	.word	0x0001e734
   191f4:	0001e72c 	.word	0x0001e72c
   191f8:	0001f23e 	.word	0x0001f23e
   191fc:	00000233 	.word	0x00000233
   19200:	0001f27b 	.word	0x0001f27b
   19204:	0000023b 	.word	0x0000023b
   19208:	0001f29d 	.word	0x0001f29d
   1920c:	0000023f 	.word	0x0000023f
   19210:	0001f2bd 	.word	0x0001f2bd
   19214:	00000242 	.word	0x00000242
   19218:	0001f2e2 	.word	0x0001f2e2
   1921c:	0001f302 	.word	0x0001f302
   19220:	0001ed47 	.word	0x0001ed47
   19224:	00000361 	.word	0x00000361
   19228:	0001f25f 	.word	0x0001f25f
   1922c:	0001f314 	.word	0x0001f314
   19230:	0000037e 	.word	0x0000037e
   19234:	00020110 	.word	0x00020110
   19238:	0001f334 	.word	0x0001f334
   1923c:	0001e177 	.word	0x0001e177
   19240:	0001ec6f 	.word	0x0001ec6f
   19244:	00002710 	.word	0x00002710
   19248:	0001d661 	.word	0x0001d661
   1924c:	e5982008 	ldr	r2, [r8, #8]
   19250:	e1a01006 	mov	r1, r6
   19254:	e58d2000 	str	r2, [sp]
   19258:	e598200c 	ldr	r2, [r8, #12]
   1925c:	e3a00002 	mov	r0, #2
   19260:	e58d2004 	str	r2, [sp, #4]
   19264:	e5932004 	ldr	r2, [r3, #4]
   19268:	e5983004 	ldr	r3, [r8, #4]
   1926c:	eb0009a7 	bl	1b910 <fprintf>
   19270:	eaffff96 	b	190d0 <test_libStdio+0xfc0>
   19274:	e1a00004 	mov	r0, r4
   19278:	e51f1058 	ldr	r1, [pc, #-88]	; 19228 <test_libStdio+0x1118>
   1927c:	ebffeffd 	bl	15278 <testFail>
   19280:	e51f004c 	ldr	r0, [pc, #-76]	; 1923c <test_libStdio+0x112c>
   19284:	e51f104c 	ldr	r1, [pc, #-76]	; 19240 <test_libStdio+0x1130>
   19288:	e51f2094 	ldr	r2, [pc, #-148]	; 191fc <test_libStdio+0x10ec>
   1928c:	eb000a14 	bl	1bae4 <printf>
   19290:	e3e06000 	mvn	r6, #0
   19294:	e3a05000 	mov	r5, #0
   19298:	e1a00009 	mov	r0, r9
   1929c:	e51f10a4 	ldr	r1, [pc, #-164]	; 19200 <test_libStdio+0x10f0>
   192a0:	e1a02006 	mov	r2, r6
   192a4:	e1a03007 	mov	r3, r7
   192a8:	eb000a66 	bl	1bc48 <sprintf>
   192ac:	e1560007 	cmp	r6, r7
   192b0:	e1a00004 	mov	r0, r4
   192b4:	0a000007 	beq	192d8 <test_libStdio+0x11c8>
   192b8:	e1a01009 	mov	r1, r9
   192bc:	ebffefed 	bl	15278 <testFail>
   192c0:	e51f008c 	ldr	r0, [pc, #-140]	; 1923c <test_libStdio+0x112c>
   192c4:	e51f108c 	ldr	r1, [pc, #-140]	; 19240 <test_libStdio+0x1130>
   192c8:	e51f20cc 	ldr	r2, [pc, #-204]	; 19204 <test_libStdio+0x10f4>
   192cc:	eb000a04 	bl	1bae4 <printf>
   192d0:	e3a05000 	mov	r5, #0
   192d4:	ea000001 	b	192e0 <test_libStdio+0x11d0>
   192d8:	e51f1098 	ldr	r1, [pc, #-152]	; 19248 <test_libStdio+0x1138>
   192dc:	ebffefe0 	bl	15264 <testPass>
   192e0:	e3a01058 	mov	r1, #88	; 0x58
   192e4:	e51b20ac 	ldr	r2, [fp, #-172]	; 0xac
   192e8:	e51b00a4 	ldr	r0, [fp, #-164]	; 0xa4
   192ec:	eb0009f4 	bl	1bac4 <memset>
   192f0:	e3a00002 	mov	r0, #2
   192f4:	e51b10a4 	ldr	r1, [fp, #-164]	; 0xa4
   192f8:	e51b20ac 	ldr	r2, [fp, #-172]	; 0xac
   192fc:	ebffe249 	bl	11c28 <read>
   19300:	e1500007 	cmp	r0, r7
   19304:	e1a00004 	mov	r0, r4
   19308:	0a000007 	beq	1932c <test_libStdio+0x121c>
   1930c:	e51f110c 	ldr	r1, [pc, #-268]	; 19208 <test_libStdio+0x10f8>
   19310:	ebffefd8 	bl	15278 <testFail>
   19314:	e51f00e0 	ldr	r0, [pc, #-224]	; 1923c <test_libStdio+0x112c>
   19318:	e51f10e0 	ldr	r1, [pc, #-224]	; 19240 <test_libStdio+0x1130>
   1931c:	e51f2118 	ldr	r2, [pc, #-280]	; 1920c <test_libStdio+0x10fc>
   19320:	eb0009ef 	bl	1bae4 <printf>
   19324:	e3a05000 	mov	r5, #0
   19328:	ea000001 	b	19334 <test_libStdio+0x1224>
   1932c:	e51f10ec 	ldr	r1, [pc, #-236]	; 19248 <test_libStdio+0x1138>
   19330:	ebffefcb 	bl	15264 <testPass>
   19334:	e51b00a4 	ldr	r0, [fp, #-164]	; 0xa4
   19338:	e51b10a8 	ldr	r1, [fp, #-168]	; 0xa8
   1933c:	e1a02007 	mov	r2, r7
   19340:	eb0009c9 	bl	1ba6c <memcmp>
   19344:	e3500000 	cmp	r0, #0
   19348:	e1a00004 	mov	r0, r4
   1934c:	0a000007 	beq	19370 <test_libStdio+0x1260>
   19350:	e51f1148 	ldr	r1, [pc, #-328]	; 19210 <test_libStdio+0x1100>
   19354:	ebffefc7 	bl	15278 <testFail>
   19358:	e51f0124 	ldr	r0, [pc, #-292]	; 1923c <test_libStdio+0x112c>
   1935c:	e51f1124 	ldr	r1, [pc, #-292]	; 19240 <test_libStdio+0x1130>
   19360:	e51f2154 	ldr	r2, [pc, #-340]	; 19214 <test_libStdio+0x1104>
   19364:	eb0009de 	bl	1bae4 <printf>
   19368:	e3a05000 	mov	r5, #0
   1936c:	ea000001 	b	19378 <test_libStdio+0x1268>
   19370:	e51f1130 	ldr	r1, [pc, #-304]	; 19248 <test_libStdio+0x1138>
   19374:	ebffefba 	bl	15264 <testPass>
   19378:	e51f613c 	ldr	r6, [pc, #-316]	; 19244 <test_libStdio+0x1134>
   1937c:	e3a00002 	mov	r0, #2
   19380:	eb000942 	bl	1b890 <fgetc>
   19384:	e3700002 	cmn	r0, #2
   19388:	0a000001 	beq	19394 <test_libStdio+0x1284>
   1938c:	e2566001 	subs	r6, r6, #1
   19390:	1afffff9 	bne	1937c <test_libStdio+0x126c>
   19394:	e51b10a0 	ldr	r1, [fp, #-160]	; 0xa0
   19398:	e51bd0b0 	ldr	sp, [fp, #-176]	; 0xb0
   1939c:	e2811001 	add	r1, r1, #1
   193a0:	e351002f 	cmp	r1, #47	; 0x2f
   193a4:	e50b10a0 	str	r1, [fp, #-160]	; 0xa0
   193a8:	e28aa01c 	add	sl, sl, #28
   193ac:	1affff11 	bne	18ff8 <test_libStdio+0xee8>
   193b0:	e3a02000 	mov	r2, #0
   193b4:	e51f8188 	ldr	r8, [pc, #-392]	; 19234 <test_libStdio+0x1124>
   193b8:	e50b20a0 	str	r2, [fp, #-160]	; 0xa0
   193bc:	e5983000 	ldr	r3, [r8]
   193c0:	e598a004 	ldr	sl, [r8, #4]
   193c4:	e1a00003 	mov	r0, r3
   193c8:	e50b30a4 	str	r3, [fp, #-164]	; 0xa4
   193cc:	eb000a78 	bl	1bdb4 <strlen>
   193d0:	e50b00a8 	str	r0, [fp, #-168]	; 0xa8
   193d4:	e5980008 	ldr	r0, [r8, #8]
   193d8:	e3a03001 	mov	r3, #1
   193dc:	e50b00ac 	str	r0, [fp, #-172]	; 0xac
   193e0:	e2439001 	sub	r9, r3, #1
   193e4:	e2833001 	add	r3, r3, #1
   193e8:	e7d87183 	ldrb	r7, [r8, r3, lsl #3]
   193ec:	e3570000 	cmp	r7, #0
   193f0:	1afffffa 	bne	193e0 <test_libStdio+0x12d0>
   193f4:	e1a03109 	lsl	r3, r9, #2
   193f8:	e283300a 	add	r3, r3, #10
   193fc:	e3c33007 	bic	r3, r3, #7
   19400:	e50bd0c0 	str	sp, [fp, #-192]	; 0xc0
   19404:	e04dd003 	sub	sp, sp, r3
   19408:	e28d6010 	add	r6, sp, #16
   1940c:	e04dd003 	sub	sp, sp, r3
   19410:	e28d1010 	add	r1, sp, #16
   19414:	e04dd003 	sub	sp, sp, r3
   19418:	e1a03089 	lsl	r3, r9, #1
   1941c:	e2833008 	add	r3, r3, #8
   19420:	e3c33007 	bic	r3, r3, #7
   19424:	e28d2010 	add	r2, sp, #16
   19428:	e04dd003 	sub	sp, sp, r3
   1942c:	e28d3010 	add	r3, sp, #16
   19430:	e50b30b8 	str	r3, [fp, #-184]	; 0xb8
   19434:	e1a03389 	lsl	r3, r9, #7
   19438:	e04dd003 	sub	sp, sp, r3
   1943c:	e28d0010 	add	r0, sp, #16
   19440:	e50b00bc 	str	r0, [fp, #-188]	; 0xbc
   19444:	e1a0000a 	mov	r0, sl
   19448:	e50b10b0 	str	r1, [fp, #-176]	; 0xb0
   1944c:	e50b20b4 	str	r2, [fp, #-180]	; 0xb4
   19450:	eb000a57 	bl	1bdb4 <strlen>
   19454:	e2800039 	add	r0, r0, #57	; 0x39
   19458:	e3c00007 	bic	r0, r0, #7
   1945c:	e04dd000 	sub	sp, sp, r0
   19460:	e28d3010 	add	r3, sp, #16
   19464:	e1a0200a 	mov	r2, sl
   19468:	e1a00003 	mov	r0, r3
   1946c:	e51f125c 	ldr	r1, [pc, #-604]	; 19218 <test_libStdio+0x1108>
   19470:	e50b30cc 	str	r3, [fp, #-204]	; 0xcc
   19474:	eb0009f3 	bl	1bc48 <sprintf>
   19478:	e51b30cc 	ldr	r3, [fp, #-204]	; 0xcc
   1947c:	e1a00004 	mov	r0, r4
   19480:	e1a01003 	mov	r1, r3
   19484:	ebffef85 	bl	152a0 <testPrint>
   19488:	e51b10a0 	ldr	r1, [fp, #-160]	; 0xa0
   1948c:	e3a0202c 	mov	r2, #44	; 0x2c
   19490:	e0020192 	mul	r2, r2, r1
   19494:	e1a03006 	mov	r3, r6
   19498:	e50b20c4 	str	r2, [fp, #-196]	; 0xc4
   1949c:	ea000030 	b	19564 <test_libStdio+0x1454>
   194a0:	e51b00c4 	ldr	r0, [fp, #-196]	; 0xc4
   194a4:	e2872001 	add	r2, r7, #1
   194a8:	e51f127c 	ldr	r1, [pc, #-636]	; 19234 <test_libStdio+0x1124>
   194ac:	e0802182 	add	r2, r0, r2, lsl #3
   194b0:	e0812002 	add	r2, r1, r2
   194b4:	e5d22008 	ldrb	r2, [r2, #8]
   194b8:	e2422001 	sub	r2, r2, #1
   194bc:	e3520003 	cmp	r2, #3
   194c0:	979ff102 	ldrls	pc, [pc, r2, lsl #2]
   194c4:	ea000019 	b	19530 <test_libStdio+0x1420>
   194c8:	000194d8 	.word	0x000194d8
   194cc:	000194e4 	.word	0x000194e4
   194d0:	000194f4 	.word	0x000194f4
   194d4:	00019500 	.word	0x00019500
   194d8:	e51b00b0 	ldr	r0, [fp, #-176]	; 0xb0
   194dc:	e0802107 	add	r2, r0, r7, lsl #2
   194e0:	ea000001 	b	194ec <test_libStdio+0x13dc>
   194e4:	e51b10b4 	ldr	r1, [fp, #-180]	; 0xb4
   194e8:	e0812107 	add	r2, r1, r7, lsl #2
   194ec:	e5832000 	str	r2, [r3]
   194f0:	ea000019 	b	1955c <test_libStdio+0x144c>
   194f4:	e51b00b8 	ldr	r0, [fp, #-184]	; 0xb8
   194f8:	e0802087 	add	r2, r0, r7, lsl #1
   194fc:	eafffffa 	b	194ec <test_libStdio+0x13dc>
   19500:	e51b10bc 	ldr	r1, [fp, #-188]	; 0xbc
   19504:	e3a02080 	mov	r2, #128	; 0x80
   19508:	e081c387 	add	ip, r1, r7, lsl #7
   1950c:	e1a0000c 	mov	r0, ip
   19510:	e3a01058 	mov	r1, #88	; 0x58
   19514:	e50b30cc 	str	r3, [fp, #-204]	; 0xcc
   19518:	e50bc0c8 	str	ip, [fp, #-200]	; 0xc8
   1951c:	eb000968 	bl	1bac4 <memset>
   19520:	e51b30cc 	ldr	r3, [fp, #-204]	; 0xcc
   19524:	e51bc0c8 	ldr	ip, [fp, #-200]	; 0xc8
   19528:	e583c000 	str	ip, [r3]
   1952c:	ea00000a 	b	1955c <test_libStdio+0x144c>
   19530:	e1a00004 	mov	r0, r4
   19534:	e51f1320 	ldr	r1, [pc, #-800]	; 1921c <test_libStdio+0x110c>
   19538:	e50b30cc 	str	r3, [fp, #-204]	; 0xcc
   1953c:	ebffef4d 	bl	15278 <testFail>
   19540:	e51f030c 	ldr	r0, [pc, #-780]	; 1923c <test_libStdio+0x112c>
   19544:	e51f130c 	ldr	r1, [pc, #-780]	; 19240 <test_libStdio+0x1130>
   19548:	e3a02fd6 	mov	r2, #856	; 0x358
   1954c:	eb000964 	bl	1bae4 <printf>
   19550:	e51b30cc 	ldr	r3, [fp, #-204]	; 0xcc
   19554:	e3a05000 	mov	r5, #0
   19558:	e5835000 	str	r5, [r3]
   1955c:	e2877001 	add	r7, r7, #1
   19560:	e2833004 	add	r3, r3, #4
   19564:	e1570009 	cmp	r7, r9
   19568:	1affffcc 	bne	194a0 <test_libStdio+0x1390>
   1956c:	e3a00002 	mov	r0, #2
   19570:	e51b10a4 	ldr	r1, [fp, #-164]	; 0xa4
   19574:	e51b20a8 	ldr	r2, [fp, #-168]	; 0xa8
   19578:	ebffe1c2 	bl	11c88 <write>
   1957c:	e51b30a8 	ldr	r3, [fp, #-168]	; 0xa8
   19580:	e1500003 	cmp	r0, r3
   19584:	e1a00004 	mov	r0, r4
   19588:	0a000007 	beq	195ac <test_libStdio+0x149c>
   1958c:	e51f1374 	ldr	r1, [pc, #-884]	; 19220 <test_libStdio+0x1110>
   19590:	ebffef38 	bl	15278 <testFail>
   19594:	e51f0360 	ldr	r0, [pc, #-864]	; 1923c <test_libStdio+0x112c>
   19598:	e51f1360 	ldr	r1, [pc, #-864]	; 19240 <test_libStdio+0x1130>
   1959c:	e51f2380 	ldr	r2, [pc, #-896]	; 19224 <test_libStdio+0x1114>
   195a0:	eb00094f 	bl	1bae4 <printf>
   195a4:	e3a05000 	mov	r5, #0
   195a8:	ea000001 	b	195b4 <test_libStdio+0x14a4>
   195ac:	e51f136c 	ldr	r1, [pc, #-876]	; 19248 <test_libStdio+0x1138>
   195b0:	ebffef2b 	bl	15264 <testPass>
   195b4:	e3590004 	cmp	r9, #4
   195b8:	979ff109 	ldrls	pc, [pc, r9, lsl #2]
   195bc:	ea000022 	b	1964c <test_libStdio+0x153c>
   195c0:	000195d4 	.word	0x000195d4
   195c4:	000195e4 	.word	0x000195e4
   195c8:	000195f8 	.word	0x000195f8
   195cc:	0001960c 	.word	0x0001960c
   195d0:	00019628 	.word	0x00019628
   195d4:	e1a0100a 	mov	r1, sl
   195d8:	e3a00002 	mov	r0, #2
   195dc:	eb0008fe 	bl	1b9dc <fscanf>
   195e0:	ea000022 	b	19670 <test_libStdio+0x1560>
   195e4:	e1a0100a 	mov	r1, sl
   195e8:	e5962000 	ldr	r2, [r6]
   195ec:	e3a00002 	mov	r0, #2
   195f0:	eb0008f9 	bl	1b9dc <fscanf>
   195f4:	ea00001d 	b	19670 <test_libStdio+0x1560>
   195f8:	e1a0100a 	mov	r1, sl
   195fc:	e896000c 	ldm	r6, {r2, r3}
   19600:	e3a00002 	mov	r0, #2
   19604:	eb0008f4 	bl	1b9dc <fscanf>
   19608:	ea000018 	b	19670 <test_libStdio+0x1560>
   1960c:	e5963008 	ldr	r3, [r6, #8]
   19610:	e1a0100a 	mov	r1, sl
   19614:	e58d3000 	str	r3, [sp]
   19618:	e896000c 	ldm	r6, {r2, r3}
   1961c:	e3a00002 	mov	r0, #2
   19620:	eb0008ed 	bl	1b9dc <fscanf>
   19624:	ea000011 	b	19670 <test_libStdio+0x1560>
   19628:	e5963008 	ldr	r3, [r6, #8]
   1962c:	e1a0100a 	mov	r1, sl
   19630:	e58d3000 	str	r3, [sp]
   19634:	e596300c 	ldr	r3, [r6, #12]
   19638:	e3a00002 	mov	r0, #2
   1963c:	e58d3004 	str	r3, [sp, #4]
   19640:	e896000c 	ldm	r6, {r2, r3}
   19644:	eb0008e4 	bl	1b9dc <fscanf>
   19648:	ea000008 	b	19670 <test_libStdio+0x1560>
   1964c:	e1a00004 	mov	r0, r4
   19650:	e51f1430 	ldr	r1, [pc, #-1072]	; 19228 <test_libStdio+0x1118>
   19654:	ebffef07 	bl	15278 <testFail>
   19658:	e51f0424 	ldr	r0, [pc, #-1060]	; 1923c <test_libStdio+0x112c>
   1965c:	e51f1424 	ldr	r1, [pc, #-1060]	; 19240 <test_libStdio+0x1130>
   19660:	e3a02fde 	mov	r2, #888	; 0x378
   19664:	eb00091e 	bl	1bae4 <printf>
   19668:	e3a05000 	mov	r5, #0
   1966c:	e3e00000 	mvn	r0, #0
   19670:	e51b10ac 	ldr	r1, [fp, #-172]	; 0xac
   19674:	e1500001 	cmp	r0, r1
   19678:	e1a00004 	mov	r0, r4
   1967c:	0a00000b 	beq	196b0 <test_libStdio+0x15a0>
   19680:	e51f145c 	ldr	r1, [pc, #-1116]	; 1922c <test_libStdio+0x111c>
   19684:	ebffeefb 	bl	15278 <testFail>
   19688:	e51f0454 	ldr	r0, [pc, #-1108]	; 1923c <test_libStdio+0x112c>
   1968c:	e51f1454 	ldr	r1, [pc, #-1108]	; 19240 <test_libStdio+0x1130>
   19690:	e51f2468 	ldr	r2, [pc, #-1128]	; 19230 <test_libStdio+0x1120>
   19694:	eb000912 	bl	1bae4 <printf>
   19698:	e3a05000 	mov	r5, #0
   1969c:	e51b20a0 	ldr	r2, [fp, #-160]	; 0xa0
   196a0:	e3a0702c 	mov	r7, #44	; 0x2c
   196a4:	e3a06000 	mov	r6, #0
   196a8:	e0070297 	mul	r7, r7, r2
   196ac:	ea000049 	b	197d8 <test_libStdio+0x16c8>
   196b0:	e51f1470 	ldr	r1, [pc, #-1136]	; 19248 <test_libStdio+0x1138>
   196b4:	ebffeeea 	bl	15264 <testPass>
   196b8:	eafffff7 	b	1969c <test_libStdio+0x158c>
   196bc:	e51f3490 	ldr	r3, [pc, #-1168]	; 19234 <test_libStdio+0x1124>
   196c0:	e286a001 	add	sl, r6, #1
   196c4:	e087a18a 	add	sl, r7, sl, lsl #3
   196c8:	e083a00a 	add	sl, r3, sl
   196cc:	e5da3008 	ldrb	r3, [sl, #8]
   196d0:	e2433001 	sub	r3, r3, #1
   196d4:	e3530003 	cmp	r3, #3
   196d8:	979ff103 	ldrls	pc, [pc, r3, lsl #2]
   196dc:	ea00003c 	b	197d4 <test_libStdio+0x16c4>
   196e0:	000196f0 	.word	0x000196f0
   196e4:	00019720 	.word	0x00019720
   196e8:	00019758 	.word	0x00019758
   196ec:	0001978c 	.word	0x0001978c
   196f0:	e51b00b0 	ldr	r0, [fp, #-176]	; 0xb0
   196f4:	e59a3004 	ldr	r3, [sl, #4]
   196f8:	e7902106 	ldr	r2, [r0, r6, lsl #2]
   196fc:	e1a00004 	mov	r0, r4
   19700:	e1520003 	cmp	r2, r3
   19704:	0a000030 	beq	197cc <test_libStdio+0x16bc>
   19708:	e51f14d8 	ldr	r1, [pc, #-1240]	; 19238 <test_libStdio+0x1128>
   1970c:	ebffeed9 	bl	15278 <testFail>
   19710:	e51f04dc 	ldr	r0, [pc, #-1244]	; 1923c <test_libStdio+0x112c>
   19714:	e51f14dc 	ldr	r1, [pc, #-1244]	; 19240 <test_libStdio+0x1130>
   19718:	e3a02fe2 	mov	r2, #904	; 0x388
   1971c:	ea00000a 	b	1974c <test_libStdio+0x163c>
   19720:	e51b10b4 	ldr	r1, [fp, #-180]	; 0xb4
   19724:	e59a3004 	ldr	r3, [sl, #4]
   19728:	e7912106 	ldr	r2, [r1, r6, lsl #2]
   1972c:	e1a00004 	mov	r0, r4
   19730:	e1520003 	cmp	r2, r3
   19734:	0a000024 	beq	197cc <test_libStdio+0x16bc>
   19738:	e51f1508 	ldr	r1, [pc, #-1288]	; 19238 <test_libStdio+0x1128>
   1973c:	ebffeecd 	bl	15278 <testFail>
   19740:	e51f050c 	ldr	r0, [pc, #-1292]	; 1923c <test_libStdio+0x112c>
   19744:	e51f150c 	ldr	r1, [pc, #-1292]	; 19240 <test_libStdio+0x1130>
   19748:	e3a02fe3 	mov	r2, #908	; 0x38c
   1974c:	eb0008e4 	bl	1bae4 <printf>
   19750:	e3a05000 	mov	r5, #0
   19754:	ea00001e 	b	197d4 <test_libStdio+0x16c4>
   19758:	e51b00b8 	ldr	r0, [fp, #-184]	; 0xb8
   1975c:	e1a03086 	lsl	r3, r6, #1
   19760:	e19020f3 	ldrsh	r2, [r0, r3]
   19764:	e1da30f4 	ldrsh	r3, [sl, #4]
   19768:	e1a00004 	mov	r0, r4
   1976c:	e1520003 	cmp	r2, r3
   19770:	0a000015 	beq	197cc <test_libStdio+0x16bc>
   19774:	e51f1544 	ldr	r1, [pc, #-1348]	; 19238 <test_libStdio+0x1128>
   19778:	ebffeebe 	bl	15278 <testFail>
   1977c:	e51f0548 	ldr	r0, [pc, #-1352]	; 1923c <test_libStdio+0x112c>
   19780:	e51f1548 	ldr	r1, [pc, #-1352]	; 19240 <test_libStdio+0x1130>
   19784:	e3a02e39 	mov	r2, #912	; 0x390
   19788:	eaffffef 	b	1974c <test_libStdio+0x163c>
   1978c:	e59a0004 	ldr	r0, [sl, #4]
   19790:	eb000987 	bl	1bdb4 <strlen>
   19794:	e51b10bc 	ldr	r1, [fp, #-188]	; 0xbc
   19798:	e1a02000 	mov	r2, r0
   1979c:	e0810386 	add	r0, r1, r6, lsl #7
   197a0:	e59a1004 	ldr	r1, [sl, #4]
   197a4:	eb0008b0 	bl	1ba6c <memcmp>
   197a8:	e3500000 	cmp	r0, #0
   197ac:	e1a00004 	mov	r0, r4
   197b0:	0a000005 	beq	197cc <test_libStdio+0x16bc>
   197b4:	e51f1584 	ldr	r1, [pc, #-1412]	; 19238 <test_libStdio+0x1128>
   197b8:	ebffeeae 	bl	15278 <testFail>
   197bc:	e51f0588 	ldr	r0, [pc, #-1416]	; 1923c <test_libStdio+0x112c>
   197c0:	e51f1588 	ldr	r1, [pc, #-1416]	; 19240 <test_libStdio+0x1130>
   197c4:	e3a02fe6 	mov	r2, #920	; 0x398
   197c8:	eaffffdf 	b	1974c <test_libStdio+0x163c>
   197cc:	e51f158c 	ldr	r1, [pc, #-1420]	; 19248 <test_libStdio+0x1138>
   197d0:	ebffeea3 	bl	15264 <testPass>
   197d4:	e2866001 	add	r6, r6, #1
   197d8:	e51b20ac 	ldr	r2, [fp, #-172]	; 0xac
   197dc:	e1560002 	cmp	r6, r2
   197e0:	1affffb5 	bne	196bc <test_libStdio+0x15ac>
   197e4:	e51f65a8 	ldr	r6, [pc, #-1448]	; 19244 <test_libStdio+0x1134>
   197e8:	e3a00002 	mov	r0, #2
   197ec:	eb000827 	bl	1b890 <fgetc>
   197f0:	e3700002 	cmn	r0, #2
   197f4:	0a000001 	beq	19800 <test_libStdio+0x16f0>
   197f8:	e2566001 	subs	r6, r6, #1
   197fc:	1afffff9 	bne	197e8 <test_libStdio+0x16d8>
   19800:	e51b30a0 	ldr	r3, [fp, #-160]	; 0xa0
   19804:	e51bd0c0 	ldr	sp, [fp, #-192]	; 0xc0
   19808:	e2833001 	add	r3, r3, #1
   1980c:	e353001f 	cmp	r3, #31
   19810:	e50b30a0 	str	r3, [fp, #-160]	; 0xa0
   19814:	e288802c 	add	r8, r8, #44	; 0x2c
   19818:	1afffee7 	bne	193bc <test_libStdio+0x12ac>
   1981c:	e3a00002 	mov	r0, #2
   19820:	e1a01000 	mov	r1, r0
   19824:	e3a02001 	mov	r2, #1
   19828:	e3a03000 	mov	r3, #0
   1982c:	ebffe0cf 	bl	11b70 <control>
   19830:	e3550000 	cmp	r5, #0
   19834:	e3a00001 	mov	r0, #1
   19838:	e51f15f8 	ldr	r1, [pc, #-1528]	; 19248 <test_libStdio+0x1138>
   1983c:	0a000001 	beq	19848 <test_libStdio+0x1738>
   19840:	ebffee87 	bl	15264 <testPass>
   19844:	ea000000 	b	1984c <test_libStdio+0x173c>
   19848:	ebffee8a 	bl	15278 <testFail>
   1984c:	e3a00002 	mov	r0, #2
   19850:	ebffe0ba 	bl	11b40 <close>
   19854:	e3a00001 	mov	r0, #1
   19858:	e24bd020 	sub	sp, fp, #32
   1985c:	e8bd8ff0 	pop	{r4, r5, r6, r7, r8, r9, sl, fp, pc}

00019860 <t5>:
   19860:	e92d4070 	push	{r4, r5, r6, lr}
   19864:	e1a05000 	mov	r5, r0
   19868:	e1a06001 	mov	r6, r1
   1986c:	e1a04002 	mov	r4, r2
   19870:	ebffda2a 	bl	10120 <disable>
   19874:	e3550000 	cmp	r5, #0
   19878:	d8bd8070 	pople	{r4, r5, r6, pc}
   1987c:	e59f204c 	ldr	r2, [pc, #76]	; 198d0 <t5+0x70>
   19880:	e5943000 	ldr	r3, [r4]
   19884:	e5922000 	ldr	r2, [r2]
   19888:	e7c62003 	strb	r2, [r6, r3]
   1988c:	e5943000 	ldr	r3, [r4]
   19890:	e2833001 	add	r3, r3, #1
   19894:	e5843000 	str	r3, [r4]
   19898:	e7c65003 	strb	r5, [r6, r3]
   1989c:	e5943000 	ldr	r3, [r4]
   198a0:	e2833001 	add	r3, r3, #1
   198a4:	e5843000 	str	r3, [r4]
   198a8:	ebffdd38 	bl	10d90 <yield>
   198ac:	e1a02004 	mov	r2, r4
   198b0:	e2450001 	sub	r0, r5, #1
   198b4:	e1a01006 	mov	r1, r6
   198b8:	ebffffe8 	bl	19860 <t5>
   198bc:	e59f3010 	ldr	r3, [pc, #16]	; 198d4 <t5+0x74>
   198c0:	e5932000 	ldr	r2, [r3]
   198c4:	e2822001 	add	r2, r2, #1
   198c8:	e5832000 	str	r2, [r3]
   198cc:	e8bd8070 	pop	{r4, r5, r6, pc}
   198d0:	0002281c 	.word	0x0002281c
   198d4:	00025218 	.word	0x00025218

000198d8 <test_recursion>:
   198d8:	e92d4ff0 	push	{r4, r5, r6, r7, r8, r9, sl, fp, lr}
   198dc:	e59f3264 	ldr	r3, [pc, #612]	; 19b48 <test_recursion+0x270>
   198e0:	e24dd0a4 	sub	sp, sp, #164	; 0xa4
   198e4:	e3a05000 	mov	r5, #0
   198e8:	e3a04005 	mov	r4, #5
   198ec:	e3a06003 	mov	r6, #3
   198f0:	e28d8018 	add	r8, sp, #24
   198f4:	e28db01c 	add	fp, sp, #28
   198f8:	e5835000 	str	r5, [r3]
   198fc:	e1a07000 	mov	r7, r0
   19900:	e58d5018 	str	r5, [sp, #24]
   19904:	ebffda05 	bl	10120 <disable>
   19908:	e3a0201f 	mov	r2, #31
   1990c:	e59f3238 	ldr	r3, [pc, #568]	; 19b4c <test_recursion+0x274>
   19910:	e58d800c 	str	r8, [sp, #12]
   19914:	e3a01801 	mov	r1, #65536	; 0x10000
   19918:	e58d6000 	str	r6, [sp]
   1991c:	e58d4004 	str	r4, [sp, #4]
   19920:	e58db008 	str	fp, [sp, #8]
   19924:	e59f0224 	ldr	r0, [pc, #548]	; 19b50 <test_recursion+0x278>
   19928:	ebffdb7b 	bl	1071c <create>
   1992c:	e1a01005 	mov	r1, r5
   19930:	e1a09000 	mov	r9, r0
   19934:	ebffdc22 	bl	109c4 <ready>
   19938:	e3a02020 	mov	r2, #32
   1993c:	e59f3210 	ldr	r3, [pc, #528]	; 19b54 <test_recursion+0x27c>
   19940:	e58d800c 	str	r8, [sp, #12]
   19944:	e3a01801 	mov	r1, #65536	; 0x10000
   19948:	e58d6000 	str	r6, [sp]
   1994c:	e98d0810 	stmib	sp, {r4, fp}
   19950:	e59f01f8 	ldr	r0, [pc, #504]	; 19b50 <test_recursion+0x278>
   19954:	ebffdb70 	bl	1071c <create>
   19958:	e1a01005 	mov	r1, r5
   1995c:	e1a0a000 	mov	sl, r0
   19960:	ebffdc17 	bl	109c4 <ready>
   19964:	e3a02022 	mov	r2, #34	; 0x22
   19968:	e59f31e8 	ldr	r3, [pc, #488]	; 19b58 <test_recursion+0x280>
   1996c:	e58d800c 	str	r8, [sp, #12]
   19970:	e3a01801 	mov	r1, #65536	; 0x10000
   19974:	e58d6000 	str	r6, [sp]
   19978:	e98d0810 	stmib	sp, {r4, fp}
   1997c:	e59f01cc 	ldr	r0, [pc, #460]	; 19b50 <test_recursion+0x278>
   19980:	ebffdb65 	bl	1071c <create>
   19984:	e1a01005 	mov	r1, r5
   19988:	e58d0014 	str	r0, [sp, #20]
   1998c:	ebffdc0c 	bl	109c4 <ready>
   19990:	e3a02020 	mov	r2, #32
   19994:	e59f31c0 	ldr	r3, [pc, #448]	; 19b5c <test_recursion+0x284>
   19998:	e58d800c 	str	r8, [sp, #12]
   1999c:	e3a01801 	mov	r1, #65536	; 0x10000
   199a0:	e58d6000 	str	r6, [sp]
   199a4:	e98d0810 	stmib	sp, {r4, fp}
   199a8:	e59f01a0 	ldr	r0, [pc, #416]	; 19b50 <test_recursion+0x278>
   199ac:	ebffdb5a 	bl	1071c <create>
   199b0:	e1a01005 	mov	r1, r5
   199b4:	e1a08000 	mov	r8, r0
   199b8:	ebffdc01 	bl	109c4 <ready>
   199bc:	ebffdcf3 	bl	10d90 <yield>
   199c0:	e3a03004 	mov	r3, #4
   199c4:	e59dc014 	ldr	ip, [sp, #20]
   199c8:	e5cd3047 	strb	r3, [sp, #71]	; 0x47
   199cc:	e3a03002 	mov	r3, #2
   199d0:	e6ef207c 	uxtb	r2, ip
   199d4:	e5cd304b 	strb	r3, [sp, #75]	; 0x4b
   199d8:	e3a03001 	mov	r3, #1
   199dc:	e5cd2044 	strb	r2, [sp, #68]	; 0x44
   199e0:	e5cd2046 	strb	r2, [sp, #70]	; 0x46
   199e4:	e5cd2048 	strb	r2, [sp, #72]	; 0x48
   199e8:	e5cd204a 	strb	r2, [sp, #74]	; 0x4a
   199ec:	e5cd204c 	strb	r2, [sp, #76]	; 0x4c
   199f0:	e5cd304d 	strb	r3, [sp, #77]	; 0x4d
   199f4:	e5cd4045 	strb	r4, [sp, #69]	; 0x45
   199f8:	e5cd6049 	strb	r6, [sp, #73]	; 0x49
   199fc:	e28d3044 	add	r3, sp, #68	; 0x44
   19a00:	e1a01004 	mov	r1, r4
   19a04:	e3a0200a 	mov	r2, #10
   19a08:	e28d001c 	add	r0, sp, #28
   19a0c:	e7d20000 	ldrb	r0, [r2, r0]
   19a10:	e150000a 	cmp	r0, sl
   19a14:	1a000004 	bne	19a2c <test_recursion+0x154>
   19a18:	e3510000 	cmp	r1, #0
   19a1c:	c5c3100b 	strbgt	r1, [r3, #11]
   19a20:	c5c3a00a 	strbgt	sl, [r3, #10]
   19a24:	c2411001 	subgt	r1, r1, #1
   19a28:	ca000002 	bgt	19a38 <test_recursion+0x160>
   19a2c:	e5c3400b 	strb	r4, [r3, #11]
   19a30:	e5c3800a 	strb	r8, [r3, #10]
   19a34:	e2444001 	sub	r4, r4, #1
   19a38:	e2822002 	add	r2, r2, #2
   19a3c:	e352001e 	cmp	r2, #30
   19a40:	e2833002 	add	r3, r3, #2
   19a44:	1affffef 	bne	19a08 <test_recursion+0x130>
   19a48:	e3a02005 	mov	r2, #5
   19a4c:	e5cd2063 	strb	r2, [sp, #99]	; 0x63
   19a50:	e3a02004 	mov	r2, #4
   19a54:	e5cd2065 	strb	r2, [sp, #101]	; 0x65
   19a58:	e3a02003 	mov	r2, #3
   19a5c:	e6ef3079 	uxtb	r3, r9
   19a60:	e5cd2067 	strb	r2, [sp, #103]	; 0x67
   19a64:	e3a05001 	mov	r5, #1
   19a68:	e3a02002 	mov	r2, #2
   19a6c:	e5cd3062 	strb	r3, [sp, #98]	; 0x62
   19a70:	e5cd3064 	strb	r3, [sp, #100]	; 0x64
   19a74:	e5cd3066 	strb	r3, [sp, #102]	; 0x66
   19a78:	e5cd3068 	strb	r3, [sp, #104]	; 0x68
   19a7c:	e5cd2069 	strb	r2, [sp, #105]	; 0x69
   19a80:	e5cd306a 	strb	r3, [sp, #106]	; 0x6a
   19a84:	e5cd506b 	strb	r5, [sp, #107]	; 0x6b
   19a88:	e3a04000 	mov	r4, #0
   19a8c:	e28d3044 	add	r3, sp, #68	; 0x44
   19a90:	e28d201c 	add	r2, sp, #28
   19a94:	e7d43003 	ldrb	r3, [r4, r3]
   19a98:	e7d42002 	ldrb	r2, [r4, r2]
   19a9c:	e1530002 	cmp	r3, r2
   19aa0:	0a000008 	beq	19ac8 <test_recursion+0x1f0>
   19aa4:	e58d2000 	str	r2, [sp]
   19aa8:	e59f10b0 	ldr	r1, [pc, #176]	; 19b60 <test_recursion+0x288>
   19aac:	e1a02004 	mov	r2, r4
   19ab0:	e28d006c 	add	r0, sp, #108	; 0x6c
   19ab4:	eb000863 	bl	1bc48 <sprintf>
   19ab8:	e1a00007 	mov	r0, r7
   19abc:	e28d106c 	add	r1, sp, #108	; 0x6c
   19ac0:	ebffedec 	bl	15278 <testFail>
   19ac4:	e3a05000 	mov	r5, #0
   19ac8:	e2844001 	add	r4, r4, #1
   19acc:	e3540028 	cmp	r4, #40	; 0x28
   19ad0:	1affffed 	bne	19a8c <test_recursion+0x1b4>
   19ad4:	e1a00007 	mov	r0, r7
   19ad8:	e59f1084 	ldr	r1, [pc, #132]	; 19b64 <test_recursion+0x28c>
   19adc:	ebffedef 	bl	152a0 <testPrint>
   19ae0:	e59f3060 	ldr	r3, [pc, #96]	; 19b48 <test_recursion+0x270>
   19ae4:	e1a00007 	mov	r0, r7
   19ae8:	e5933000 	ldr	r3, [r3]
   19aec:	e3530014 	cmp	r3, #20
   19af0:	0a000006 	beq	19b10 <test_recursion+0x238>
   19af4:	e59f106c 	ldr	r1, [pc, #108]	; 19b68 <test_recursion+0x290>
   19af8:	ebffedde 	bl	15278 <testFail>
   19afc:	e59f1068 	ldr	r1, [pc, #104]	; 19b6c <test_recursion+0x294>
   19b00:	e3a02067 	mov	r2, #103	; 0x67
   19b04:	e59f0064 	ldr	r0, [pc, #100]	; 19b70 <test_recursion+0x298>
   19b08:	eb0007f5 	bl	1bae4 <printf>
   19b0c:	ea000007 	b	19b30 <test_recursion+0x258>
   19b10:	e59f105c 	ldr	r1, [pc, #92]	; 19b74 <test_recursion+0x29c>
   19b14:	ebffedd2 	bl	15264 <testPass>
   19b18:	e3550001 	cmp	r5, #1
   19b1c:	1a000003 	bne	19b30 <test_recursion+0x258>
   19b20:	e1a00005 	mov	r0, r5
   19b24:	e59f1048 	ldr	r1, [pc, #72]	; 19b74 <test_recursion+0x29c>
   19b28:	ebffedcd 	bl	15264 <testPass>
   19b2c:	ea000002 	b	19b3c <test_recursion+0x264>
   19b30:	e3a00001 	mov	r0, #1
   19b34:	e59f1038 	ldr	r1, [pc, #56]	; 19b74 <test_recursion+0x29c>
   19b38:	ebffedce 	bl	15278 <testFail>
   19b3c:	e3a00001 	mov	r0, #1
   19b40:	e28dd0a4 	add	sp, sp, #164	; 0xa4
   19b44:	e8bd8ff0 	pop	{r4, r5, r6, r7, r8, r9, sl, fp, pc}
   19b48:	00025218 	.word	0x00025218
   19b4c:	0001f68f 	.word	0x0001f68f
   19b50:	00019860 	.word	0x00019860
   19b54:	0001f69b 	.word	0x0001f69b
   19b58:	0001f6a7 	.word	0x0001f6a7
   19b5c:	0001f6b3 	.word	0x0001f6b3
   19b60:	0001f6bf 	.word	0x0001f6bf
   19b64:	0001f6e5 	.word	0x0001f6e5
   19b68:	0001f708 	.word	0x0001f708
   19b6c:	0001f71f 	.word	0x0001f71f
   19b70:	0001e177 	.word	0x0001e177
   19b74:	0001d661 	.word	0x0001d661

00019b78 <list_check>:
   19b78:	e92d4008 	push	{r3, lr}
   19b7c:	ebffdc78 	bl	10d64 <gettid>
   19b80:	e59f3038 	ldr	r3, [pc, #56]	; 19bc0 <list_check+0x48>
   19b84:	e3a02054 	mov	r2, #84	; 0x54
   19b88:	e0203092 	mla	r0, r2, r0, r3
   19b8c:	e3a02000 	mov	r2, #0
   19b90:	e5903038 	ldr	r3, [r0, #56]	; 0x38
   19b94:	ea000002 	b	19ba4 <list_check+0x2c>
   19b98:	e5931004 	ldr	r1, [r3, #4]
   19b9c:	e5933000 	ldr	r3, [r3]
   19ba0:	e0822001 	add	r2, r2, r1
   19ba4:	e3530000 	cmp	r3, #0
   19ba8:	1afffffa 	bne	19b98 <list_check+0x20>
   19bac:	e590003c 	ldr	r0, [r0, #60]	; 0x3c
   19bb0:	e0503002 	subs	r3, r0, r2
   19bb4:	e2730000 	rsbs	r0, r3, #0
   19bb8:	e0b00003 	adcs	r0, r0, r3
   19bbc:	e8bd8008 	pop	{r3, pc}
   19bc0:	0002074c 	.word	0x0002074c

00019bc4 <test_umemory>:
   19bc4:	e92d41f0 	push	{r4, r5, r6, r7, r8, lr}
   19bc8:	e59f11b4 	ldr	r1, [pc, #436]	; 19d84 <test_umemory+0x1c0>
   19bcc:	e1a04000 	mov	r4, r0
   19bd0:	ebffedb2 	bl	152a0 <testPrint>
   19bd4:	e3a00000 	mov	r0, #0
   19bd8:	eb0008d9 	bl	1bf44 <malloc>
   19bdc:	e3500000 	cmp	r0, #0
   19be0:	e1a00004 	mov	r0, r4
   19be4:	0a000007 	beq	19c08 <test_umemory+0x44>
   19be8:	e59f1198 	ldr	r1, [pc, #408]	; 19d88 <test_umemory+0x1c4>
   19bec:	ebffeda1 	bl	15278 <testFail>
   19bf0:	e59f0194 	ldr	r0, [pc, #404]	; 19d8c <test_umemory+0x1c8>
   19bf4:	e59f1194 	ldr	r1, [pc, #404]	; 19d90 <test_umemory+0x1cc>
   19bf8:	e3a02016 	mov	r2, #22
   19bfc:	eb0007b8 	bl	1bae4 <printf>
   19c00:	e3a05000 	mov	r5, #0
   19c04:	ea000002 	b	19c14 <test_umemory+0x50>
   19c08:	e59f1184 	ldr	r1, [pc, #388]	; 19d94 <test_umemory+0x1d0>
   19c0c:	ebffed94 	bl	15264 <testPass>
   19c10:	e3a05001 	mov	r5, #1
   19c14:	e1a00004 	mov	r0, r4
   19c18:	e59f1178 	ldr	r1, [pc, #376]	; 19d98 <test_umemory+0x1d4>
   19c1c:	ebffed9f 	bl	152a0 <testPrint>
   19c20:	e3e00102 	mvn	r0, #-2147483648	; 0x80000000
   19c24:	eb0008c6 	bl	1bf44 <malloc>
   19c28:	e3500000 	cmp	r0, #0
   19c2c:	e1a00004 	mov	r0, r4
   19c30:	0a000007 	beq	19c54 <test_umemory+0x90>
   19c34:	e59f1160 	ldr	r1, [pc, #352]	; 19d9c <test_umemory+0x1d8>
   19c38:	ebffed8e 	bl	15278 <testFail>
   19c3c:	e59f0148 	ldr	r0, [pc, #328]	; 19d8c <test_umemory+0x1c8>
   19c40:	e59f1148 	ldr	r1, [pc, #328]	; 19d90 <test_umemory+0x1cc>
   19c44:	e3a0201b 	mov	r2, #27
   19c48:	eb0007a5 	bl	1bae4 <printf>
   19c4c:	e3a05000 	mov	r5, #0
   19c50:	ea000001 	b	19c5c <test_umemory+0x98>
   19c54:	e59f1138 	ldr	r1, [pc, #312]	; 19d94 <test_umemory+0x1d0>
   19c58:	ebffed81 	bl	15264 <testPass>
   19c5c:	e59f113c 	ldr	r1, [pc, #316]	; 19da0 <test_umemory+0x1dc>
   19c60:	e1a00004 	mov	r0, r4
   19c64:	ebffed8d 	bl	152a0 <testPrint>
   19c68:	e3a00001 	mov	r0, #1
   19c6c:	eb0008b4 	bl	1bf44 <malloc>
   19c70:	e2506000 	subs	r6, r0, #0
   19c74:	01a00004 	moveq	r0, r4
   19c78:	059f1124 	ldreq	r1, [pc, #292]	; 19da4 <test_umemory+0x1e0>
   19c7c:	0a000004 	beq	19c94 <test_umemory+0xd0>
   19c80:	ebffffbc 	bl	19b78 <list_check>
   19c84:	e3500000 	cmp	r0, #0
   19c88:	1a000004 	bne	19ca0 <test_umemory+0xdc>
   19c8c:	e59f1114 	ldr	r1, [pc, #276]	; 19da8 <test_umemory+0x1e4>
   19c90:	e1a00004 	mov	r0, r4
   19c94:	ebffed77 	bl	15278 <testFail>
   19c98:	e3a05000 	mov	r5, #0
   19c9c:	ea00000d 	b	19cd8 <test_umemory+0x114>
   19ca0:	e1a00004 	mov	r0, r4
   19ca4:	e59f10e8 	ldr	r1, [pc, #232]	; 19d94 <test_umemory+0x1d0>
   19ca8:	ebffed6d 	bl	15264 <testPass>
   19cac:	e59f10f8 	ldr	r1, [pc, #248]	; 19dac <test_umemory+0x1e8>
   19cb0:	e1a00004 	mov	r0, r4
   19cb4:	ebffed79 	bl	152a0 <testPrint>
   19cb8:	e1a00006 	mov	r0, r6
   19cbc:	eb0008ad 	bl	1bf78 <free>
   19cc0:	ebffffac 	bl	19b78 <list_check>
   19cc4:	e3500000 	cmp	r0, #0
   19cc8:	0affffef 	beq	19c8c <test_umemory+0xc8>
   19ccc:	e1a00004 	mov	r0, r4
   19cd0:	e59f10bc 	ldr	r1, [pc, #188]	; 19d94 <test_umemory+0x1d0>
   19cd4:	ebffed62 	bl	15264 <testPass>
   19cd8:	e1a00004 	mov	r0, r4
   19cdc:	e59f10cc 	ldr	r1, [pc, #204]	; 19db0 <test_umemory+0x1ec>
   19ce0:	ebffed6e 	bl	152a0 <testPrint>
   19ce4:	e3a08011 	mov	r8, #17
   19ce8:	e3a07601 	mov	r7, #1048576	; 0x100000
   19cec:	e3a06000 	mov	r6, #0
   19cf0:	ea000001 	b	19cfc <test_umemory+0x138>
   19cf4:	e88000c0 	stm	r0, {r6, r7}
   19cf8:	e1a06000 	mov	r6, r0
   19cfc:	e1a00007 	mov	r0, r7
   19d00:	eb00088f 	bl	1bf44 <malloc>
   19d04:	e3500000 	cmp	r0, #0
   19d08:	1afffff9 	bne	19cf4 <test_umemory+0x130>
   19d0c:	e2588001 	subs	r8, r8, #1
   19d10:	e1a070a7 	lsr	r7, r7, #1
   19d14:	1afffff8 	bne	19cfc <test_umemory+0x138>
   19d18:	ea000003 	b	19d2c <test_umemory+0x168>
   19d1c:	e1a00006 	mov	r0, r6
   19d20:	e5967000 	ldr	r7, [r6]
   19d24:	eb000893 	bl	1bf78 <free>
   19d28:	e1a06007 	mov	r6, r7
   19d2c:	e3560000 	cmp	r6, #0
   19d30:	1afffff9 	bne	19d1c <test_umemory+0x158>
   19d34:	ebffff8f 	bl	19b78 <list_check>
   19d38:	e3500000 	cmp	r0, #0
   19d3c:	e1a00004 	mov	r0, r4
   19d40:	1a000002 	bne	19d50 <test_umemory+0x18c>
   19d44:	e59f105c 	ldr	r1, [pc, #92]	; 19da8 <test_umemory+0x1e4>
   19d48:	ebffed4a 	bl	15278 <testFail>
   19d4c:	ea000007 	b	19d70 <test_umemory+0x1ac>
   19d50:	e59f103c 	ldr	r1, [pc, #60]	; 19d94 <test_umemory+0x1d0>
   19d54:	ebffed42 	bl	15264 <testPass>
   19d58:	e3550001 	cmp	r5, #1
   19d5c:	1a000003 	bne	19d70 <test_umemory+0x1ac>
   19d60:	e1a00005 	mov	r0, r5
   19d64:	e59f1028 	ldr	r1, [pc, #40]	; 19d94 <test_umemory+0x1d0>
   19d68:	ebffed3d 	bl	15264 <testPass>
   19d6c:	ea000002 	b	19d7c <test_umemory+0x1b8>
   19d70:	e3a00001 	mov	r0, #1
   19d74:	e59f1018 	ldr	r1, [pc, #24]	; 19d94 <test_umemory+0x1d0>
   19d78:	ebffed3e 	bl	15278 <testFail>
   19d7c:	e3a00001 	mov	r0, #1
   19d80:	e8bd81f0 	pop	{r4, r5, r6, r7, r8, pc}
   19d84:	0001f738 	.word	0x0001f738
   19d88:	0001f742 	.word	0x0001f742
   19d8c:	0001e177 	.word	0x0001e177
   19d90:	0001f75c 	.word	0x0001f75c
   19d94:	0001d661 	.word	0x0001d661
   19d98:	0001f773 	.word	0x0001f773
   19d9c:	0001f786 	.word	0x0001f786
   19da0:	0001dc90 	.word	0x0001dc90
   19da4:	0001f797 	.word	0x0001f797
   19da8:	0001f7a3 	.word	0x0001f7a3
   19dac:	0001dce7 	.word	0x0001dce7
   19db0:	0001dd07 	.word	0x0001dd07

00019db4 <qsort_callback>:
   19db4:	e5d03000 	ldrb	r3, [r0]
   19db8:	e5d12000 	ldrb	r2, [r1]
   19dbc:	e1530002 	cmp	r3, r2
   19dc0:	8a000002 	bhi	19dd0 <qsort_callback+0x1c>
   19dc4:	2a000003 	bcs	19dd8 <qsort_callback+0x24>
   19dc8:	e3e00000 	mvn	r0, #0
   19dcc:	e12fff1e 	bx	lr
   19dd0:	e3a00001 	mov	r0, #1
   19dd4:	e12fff1e 	bx	lr
   19dd8:	e3a00000 	mov	r0, #0
   19ddc:	e12fff1e 	bx	lr

00019de0 <cmp_uints>:
   19de0:	e5903000 	ldr	r3, [r0]
   19de4:	e5912000 	ldr	r2, [r1]
   19de8:	e1530002 	cmp	r3, r2
   19dec:	3a000002 	bcc	19dfc <cmp_uints+0x1c>
   19df0:	03a00000 	moveq	r0, #0
   19df4:	13a00001 	movne	r0, #1
   19df8:	e12fff1e 	bx	lr
   19dfc:	e3e00000 	mvn	r0, #0
   19e00:	e12fff1e 	bx	lr

00019e04 <test_libStdlib>:
   19e04:	e92d4ff0 	push	{r4, r5, r6, r7, r8, r9, sl, fp, lr}
   19e08:	e59f24f0 	ldr	r2, [pc, #1264]	; 1a300 <test_libStdlib+0x4fc>
   19e0c:	e28db020 	add	fp, sp, #32
   19e10:	e24dd01c 	sub	sp, sp, #28
   19e14:	e5921004 	ldr	r1, [r2, #4]
   19e18:	e1a04000 	mov	r4, r0
   19e1c:	e5920000 	ldr	r0, [r2]
   19e20:	e24b3030 	sub	r3, fp, #48	; 0x30
   19e24:	e8a30003 	stmia	r3!, {r0, r1}
   19e28:	e1d220b8 	ldrh	r2, [r2, #8]
   19e2c:	e1a00004 	mov	r0, r4
   19e30:	e59f14cc 	ldr	r1, [pc, #1228]	; 1a304 <test_libStdlib+0x500>
   19e34:	e1c320b0 	strh	r2, [r3]
   19e38:	ebffed18 	bl	152a0 <testPrint>
   19e3c:	e59f04c4 	ldr	r0, [pc, #1220]	; 1a308 <test_libStdlib+0x504>
   19e40:	eb00052e 	bl	1b300 <atoi>
   19e44:	e3700f72 	cmn	r0, #456	; 0x1c8
   19e48:	0a000008 	beq	19e70 <test_libStdlib+0x6c>
   19e4c:	e1a00004 	mov	r0, r4
   19e50:	e59f14b4 	ldr	r1, [pc, #1204]	; 1a30c <test_libStdlib+0x508>
   19e54:	ebffed07 	bl	15278 <testFail>
   19e58:	e59f04b0 	ldr	r0, [pc, #1200]	; 1a310 <test_libStdlib+0x50c>
   19e5c:	e59f14b0 	ldr	r1, [pc, #1200]	; 1a314 <test_libStdlib+0x510>
   19e60:	e3a0203f 	mov	r2, #63	; 0x3f
   19e64:	eb00071e 	bl	1bae4 <printf>
   19e68:	e3a05000 	mov	r5, #0
   19e6c:	ea000023 	b	19f00 <test_libStdlib+0xfc>
   19e70:	e59f04a0 	ldr	r0, [pc, #1184]	; 1a318 <test_libStdlib+0x514>
   19e74:	eb000521 	bl	1b300 <atoi>
   19e78:	e350007b 	cmp	r0, #123	; 0x7b
   19e7c:	1afffff2 	bne	19e4c <test_libStdlib+0x48>
   19e80:	e59f0494 	ldr	r0, [pc, #1172]	; 1a31c <test_libStdlib+0x518>
   19e84:	eb00051d 	bl	1b300 <atoi>
   19e88:	e3700106 	cmn	r0, #-2147483647	; 0x80000001
   19e8c:	1affffee 	bne	19e4c <test_libStdlib+0x48>
   19e90:	e59f0488 	ldr	r0, [pc, #1160]	; 1a320 <test_libStdlib+0x51c>
   19e94:	eb000519 	bl	1b300 <atoi>
   19e98:	e3700001 	cmn	r0, #1
   19e9c:	1affffea 	bne	19e4c <test_libStdlib+0x48>
   19ea0:	e59f047c 	ldr	r0, [pc, #1148]	; 1a324 <test_libStdlib+0x520>
   19ea4:	eb000515 	bl	1b300 <atoi>
   19ea8:	e3500002 	cmp	r0, #2
   19eac:	1affffe6 	bne	19e4c <test_libStdlib+0x48>
   19eb0:	e59f0470 	ldr	r0, [pc, #1136]	; 1a328 <test_libStdlib+0x524>
   19eb4:	eb000511 	bl	1b300 <atoi>
   19eb8:	e3500003 	cmp	r0, #3
   19ebc:	1affffe2 	bne	19e4c <test_libStdlib+0x48>
   19ec0:	e59f0464 	ldr	r0, [pc, #1124]	; 1a32c <test_libStdlib+0x528>
   19ec4:	eb00050d 	bl	1b300 <atoi>
   19ec8:	e3500000 	cmp	r0, #0
   19ecc:	1affffde 	bne	19e4c <test_libStdlib+0x48>
   19ed0:	e59f0458 	ldr	r0, [pc, #1112]	; 1a330 <test_libStdlib+0x52c>
   19ed4:	eb000509 	bl	1b300 <atoi>
   19ed8:	e3500000 	cmp	r0, #0
   19edc:	1affffda 	bne	19e4c <test_libStdlib+0x48>
   19ee0:	e59f044c 	ldr	r0, [pc, #1100]	; 1a334 <test_libStdlib+0x530>
   19ee4:	eb000505 	bl	1b300 <atoi>
   19ee8:	e3500000 	cmp	r0, #0
   19eec:	1affffd6 	bne	19e4c <test_libStdlib+0x48>
   19ef0:	e1a00004 	mov	r0, r4
   19ef4:	e59f1410 	ldr	r1, [pc, #1040]	; 1a30c <test_libStdlib+0x508>
   19ef8:	ebffecd9 	bl	15264 <testPass>
   19efc:	e3a05001 	mov	r5, #1
   19f00:	e1a00004 	mov	r0, r4
   19f04:	e59f142c 	ldr	r1, [pc, #1068]	; 1a338 <test_libStdlib+0x534>
   19f08:	ebffece4 	bl	152a0 <testPrint>
   19f0c:	e59f03f4 	ldr	r0, [pc, #1012]	; 1a308 <test_libStdlib+0x504>
   19f10:	eb0004fb 	bl	1b304 <atol>
   19f14:	e3700f72 	cmn	r0, #456	; 0x1c8
   19f18:	0a000008 	beq	19f40 <test_libStdlib+0x13c>
   19f1c:	e1a00004 	mov	r0, r4
   19f20:	e59f13e4 	ldr	r1, [pc, #996]	; 1a30c <test_libStdlib+0x508>
   19f24:	ebffecd3 	bl	15278 <testFail>
   19f28:	e59f03e0 	ldr	r0, [pc, #992]	; 1a310 <test_libStdlib+0x50c>
   19f2c:	e59f13e0 	ldr	r1, [pc, #992]	; 1a314 <test_libStdlib+0x510>
   19f30:	e3a0204a 	mov	r2, #74	; 0x4a
   19f34:	eb0006ea 	bl	1bae4 <printf>
   19f38:	e3a05000 	mov	r5, #0
   19f3c:	ea000022 	b	19fcc <test_libStdlib+0x1c8>
   19f40:	e59f03d0 	ldr	r0, [pc, #976]	; 1a318 <test_libStdlib+0x514>
   19f44:	eb0004ee 	bl	1b304 <atol>
   19f48:	e350007b 	cmp	r0, #123	; 0x7b
   19f4c:	1afffff2 	bne	19f1c <test_libStdlib+0x118>
   19f50:	e59f03c4 	ldr	r0, [pc, #964]	; 1a31c <test_libStdlib+0x518>
   19f54:	eb0004ea 	bl	1b304 <atol>
   19f58:	e3700106 	cmn	r0, #-2147483647	; 0x80000001
   19f5c:	1affffee 	bne	19f1c <test_libStdlib+0x118>
   19f60:	e59f03b8 	ldr	r0, [pc, #952]	; 1a320 <test_libStdlib+0x51c>
   19f64:	eb0004e6 	bl	1b304 <atol>
   19f68:	e3700001 	cmn	r0, #1
   19f6c:	1affffea 	bne	19f1c <test_libStdlib+0x118>
   19f70:	e59f03ac 	ldr	r0, [pc, #940]	; 1a324 <test_libStdlib+0x520>
   19f74:	eb0004e2 	bl	1b304 <atol>
   19f78:	e3500002 	cmp	r0, #2
   19f7c:	1affffe6 	bne	19f1c <test_libStdlib+0x118>
   19f80:	e59f03a0 	ldr	r0, [pc, #928]	; 1a328 <test_libStdlib+0x524>
   19f84:	eb0004de 	bl	1b304 <atol>
   19f88:	e3500003 	cmp	r0, #3
   19f8c:	1affffe2 	bne	19f1c <test_libStdlib+0x118>
   19f90:	e59f03a4 	ldr	r0, [pc, #932]	; 1a33c <test_libStdlib+0x538>
   19f94:	eb0004da 	bl	1b304 <atol>
   19f98:	e3500000 	cmp	r0, #0
   19f9c:	1affffde 	bne	19f1c <test_libStdlib+0x118>
   19fa0:	e59f0398 	ldr	r0, [pc, #920]	; 1a340 <test_libStdlib+0x53c>
   19fa4:	eb0004d6 	bl	1b304 <atol>
   19fa8:	e3500000 	cmp	r0, #0
   19fac:	1affffda 	bne	19f1c <test_libStdlib+0x118>
   19fb0:	e59f038c 	ldr	r0, [pc, #908]	; 1a344 <test_libStdlib+0x540>
   19fb4:	eb0004d2 	bl	1b304 <atol>
   19fb8:	e3500000 	cmp	r0, #0
   19fbc:	1affffd6 	bne	19f1c <test_libStdlib+0x118>
   19fc0:	e1a00004 	mov	r0, r4
   19fc4:	e59f1340 	ldr	r1, [pc, #832]	; 1a30c <test_libStdlib+0x508>
   19fc8:	ebffeca5 	bl	15264 <testPass>
   19fcc:	e1a00004 	mov	r0, r4
   19fd0:	e59f1370 	ldr	r1, [pc, #880]	; 1a348 <test_libStdlib+0x544>
   19fd4:	ebffecb1 	bl	152a0 <testPrint>
   19fd8:	e24b0030 	sub	r0, fp, #48	; 0x30
   19fdc:	e3a01009 	mov	r1, #9
   19fe0:	e3a02001 	mov	r2, #1
   19fe4:	e59f3360 	ldr	r3, [pc, #864]	; 1a34c <test_libStdlib+0x548>
   19fe8:	eb0006d0 	bl	1bb30 <qsort>
   19fec:	e59f135c 	ldr	r1, [pc, #860]	; 1a350 <test_libStdlib+0x54c>
   19ff0:	e24b0030 	sub	r0, fp, #48	; 0x30
   19ff4:	e3a0200a 	mov	r2, #10
   19ff8:	eb000788 	bl	1be20 <strncmp>
   19ffc:	e3500000 	cmp	r0, #0
   1a000:	e59f1304 	ldr	r1, [pc, #772]	; 1a30c <test_libStdlib+0x508>
   1a004:	e1a00004 	mov	r0, r4
   1a008:	0a000006 	beq	1a028 <test_libStdlib+0x224>
   1a00c:	ebffec99 	bl	15278 <testFail>
   1a010:	e59f02f8 	ldr	r0, [pc, #760]	; 1a310 <test_libStdlib+0x50c>
   1a014:	e59f12f8 	ldr	r1, [pc, #760]	; 1a314 <test_libStdlib+0x510>
   1a018:	e3a0204f 	mov	r2, #79	; 0x4f
   1a01c:	eb0006b0 	bl	1bae4 <printf>
   1a020:	e3a05000 	mov	r5, #0
   1a024:	ea000000 	b	1a02c <test_libStdlib+0x228>
   1a028:	ebffec8d 	bl	15264 <testPass>
   1a02c:	e1a00004 	mov	r0, r4
   1a030:	e59f131c 	ldr	r1, [pc, #796]	; 1a354 <test_libStdlib+0x550>
   1a034:	e24b6030 	sub	r6, fp, #48	; 0x30
   1a038:	ebffec98 	bl	152a0 <testPrint>
   1a03c:	e1a00006 	mov	r0, r6
   1a040:	e3a0100a 	mov	r1, #10
   1a044:	eb0004b7 	bl	1b328 <bzero>
   1a048:	e3a03000 	mov	r3, #0
   1a04c:	e7d62003 	ldrb	r2, [r6, r3]
   1a050:	e3520000 	cmp	r2, #0
   1a054:	0a000004 	beq	1a06c <test_libStdlib+0x268>
   1a058:	e1a00004 	mov	r0, r4
   1a05c:	e59f12a8 	ldr	r1, [pc, #680]	; 1a30c <test_libStdlib+0x508>
   1a060:	ebffec84 	bl	15278 <testFail>
   1a064:	e3a05000 	mov	r5, #0
   1a068:	ea000003 	b	1a07c <test_libStdlib+0x278>
   1a06c:	e2833001 	add	r3, r3, #1
   1a070:	e353000a 	cmp	r3, #10
   1a074:	1afffff4 	bne	1a04c <test_libStdlib+0x248>
   1a078:	ea000099 	b	1a2e4 <test_libStdlib+0x4e0>
   1a07c:	e1a00004 	mov	r0, r4
   1a080:	e59f12d0 	ldr	r1, [pc, #720]	; 1a358 <test_libStdlib+0x554>
   1a084:	ebffec85 	bl	152a0 <testPrint>
   1a088:	e3a00106 	mov	r0, #-2147483647	; 0x80000001
   1a08c:	eb000498 	bl	1b2f4 <abs>
   1a090:	e3700106 	cmn	r0, #-2147483647	; 0x80000001
   1a094:	0a000008 	beq	1a0bc <test_libStdlib+0x2b8>
   1a098:	e1a00004 	mov	r0, r4
   1a09c:	e59f1268 	ldr	r1, [pc, #616]	; 1a30c <test_libStdlib+0x508>
   1a0a0:	ebffec74 	bl	15278 <testFail>
   1a0a4:	e59f0264 	ldr	r0, [pc, #612]	; 1a310 <test_libStdlib+0x50c>
   1a0a8:	e59f1264 	ldr	r1, [pc, #612]	; 1a314 <test_libStdlib+0x510>
   1a0ac:	e3a02065 	mov	r2, #101	; 0x65
   1a0b0:	eb00068b 	bl	1bae4 <printf>
   1a0b4:	e3a05000 	mov	r5, #0
   1a0b8:	ea00000a 	b	1a0e8 <test_libStdlib+0x2e4>
   1a0bc:	e3a0007b 	mov	r0, #123	; 0x7b
   1a0c0:	eb00048b 	bl	1b2f4 <abs>
   1a0c4:	e350007b 	cmp	r0, #123	; 0x7b
   1a0c8:	1afffff2 	bne	1a098 <test_libStdlib+0x294>
   1a0cc:	e3a00000 	mov	r0, #0
   1a0d0:	eb000487 	bl	1b2f4 <abs>
   1a0d4:	e3500000 	cmp	r0, #0
   1a0d8:	1affffee 	bne	1a098 <test_libStdlib+0x294>
   1a0dc:	e1a00004 	mov	r0, r4
   1a0e0:	e59f1224 	ldr	r1, [pc, #548]	; 1a30c <test_libStdlib+0x508>
   1a0e4:	ebffec5e 	bl	15264 <testPass>
   1a0e8:	e1a00004 	mov	r0, r4
   1a0ec:	e59f1268 	ldr	r1, [pc, #616]	; 1a35c <test_libStdlib+0x558>
   1a0f0:	ebffec6a 	bl	152a0 <testPrint>
   1a0f4:	e3a00106 	mov	r0, #-2147483647	; 0x80000001
   1a0f8:	eb00064a 	bl	1ba28 <labs>
   1a0fc:	e3700106 	cmn	r0, #-2147483647	; 0x80000001
   1a100:	0a000008 	beq	1a128 <test_libStdlib+0x324>
   1a104:	e1a00004 	mov	r0, r4
   1a108:	e59f11fc 	ldr	r1, [pc, #508]	; 1a30c <test_libStdlib+0x508>
   1a10c:	ebffec59 	bl	15278 <testFail>
   1a110:	e59f01f8 	ldr	r0, [pc, #504]	; 1a310 <test_libStdlib+0x50c>
   1a114:	e59f11f8 	ldr	r1, [pc, #504]	; 1a314 <test_libStdlib+0x510>
   1a118:	e3a0206a 	mov	r2, #106	; 0x6a
   1a11c:	eb000670 	bl	1bae4 <printf>
   1a120:	e3a05000 	mov	r5, #0
   1a124:	ea00000a 	b	1a154 <test_libStdlib+0x350>
   1a128:	e3a0007b 	mov	r0, #123	; 0x7b
   1a12c:	eb00063d 	bl	1ba28 <labs>
   1a130:	e350007b 	cmp	r0, #123	; 0x7b
   1a134:	1afffff2 	bne	1a104 <test_libStdlib+0x300>
   1a138:	e3a00000 	mov	r0, #0
   1a13c:	eb000639 	bl	1ba28 <labs>
   1a140:	e3500000 	cmp	r0, #0
   1a144:	1affffee 	bne	1a104 <test_libStdlib+0x300>
   1a148:	e1a00004 	mov	r0, r4
   1a14c:	e59f11b8 	ldr	r1, [pc, #440]	; 1a30c <test_libStdlib+0x508>
   1a150:	ebffec43 	bl	15264 <testPass>
   1a154:	e59f1204 	ldr	r1, [pc, #516]	; 1a360 <test_libStdlib+0x55c>
   1a158:	e1a00004 	mov	r0, r4
   1a15c:	ebffec4f 	bl	152a0 <testPrint>
   1a160:	eb0006a7 	bl	1bc04 <rand>
   1a164:	e1a06000 	mov	r6, r0
   1a168:	eb0006a5 	bl	1bc04 <rand>
   1a16c:	e1560000 	cmp	r6, r0
   1a170:	1a000017 	bne	1a1d4 <test_libStdlib+0x3d0>
   1a174:	eb0006a2 	bl	1bc04 <rand>
   1a178:	e1a06000 	mov	r6, r0
   1a17c:	eb0006a0 	bl	1bc04 <rand>
   1a180:	e1560000 	cmp	r6, r0
   1a184:	1a000012 	bne	1a1d4 <test_libStdlib+0x3d0>
   1a188:	eb00069d 	bl	1bc04 <rand>
   1a18c:	e1a06000 	mov	r6, r0
   1a190:	eb00069b 	bl	1bc04 <rand>
   1a194:	e1560000 	cmp	r6, r0
   1a198:	1a00000d 	bne	1a1d4 <test_libStdlib+0x3d0>
   1a19c:	eb000698 	bl	1bc04 <rand>
   1a1a0:	e1a06000 	mov	r6, r0
   1a1a4:	eb000696 	bl	1bc04 <rand>
   1a1a8:	e1560000 	cmp	r6, r0
   1a1ac:	1a000008 	bne	1a1d4 <test_libStdlib+0x3d0>
   1a1b0:	e1a00004 	mov	r0, r4
   1a1b4:	e59f11a8 	ldr	r1, [pc, #424]	; 1a364 <test_libStdlib+0x560>
   1a1b8:	ebffec2e 	bl	15278 <testFail>
   1a1bc:	e59f014c 	ldr	r0, [pc, #332]	; 1a310 <test_libStdlib+0x50c>
   1a1c0:	e59f114c 	ldr	r1, [pc, #332]	; 1a314 <test_libStdlib+0x510>
   1a1c4:	e3a02071 	mov	r2, #113	; 0x71
   1a1c8:	eb000645 	bl	1bae4 <printf>
   1a1cc:	e3a05000 	mov	r5, #0
   1a1d0:	ea000002 	b	1a1e0 <test_libStdlib+0x3dc>
   1a1d4:	e1a00004 	mov	r0, r4
   1a1d8:	e59f112c 	ldr	r1, [pc, #300]	; 1a30c <test_libStdlib+0x508>
   1a1dc:	ebffec20 	bl	15264 <testPass>
   1a1e0:	e3a00001 	mov	r0, #1
   1a1e4:	eb000682 	bl	1bbf4 <srand>
   1a1e8:	e3a08032 	mov	r8, #50	; 0x32
   1a1ec:	e3a07001 	mov	r7, #1
   1a1f0:	e50bd038 	str	sp, [fp, #-56]	; 0x38
   1a1f4:	eb000682 	bl	1bc04 <rand>
   1a1f8:	e3a01064 	mov	r1, #100	; 0x64
   1a1fc:	eb000900 	bl	1c604 <__aeabi_uidivmod>
   1a200:	e1a0a001 	mov	sl, r1
   1a204:	e2811001 	add	r1, r1, #1
   1a208:	e1a03101 	lsl	r3, r1, #2
   1a20c:	e283300a 	add	r3, r3, #10
   1a210:	e3c33007 	bic	r3, r3, #7
   1a214:	e04dd003 	sub	sp, sp, r3
   1a218:	e1a0900d 	mov	r9, sp
   1a21c:	e3a06000 	mov	r6, #0
   1a220:	e50b103c 	str	r1, [fp, #-60]	; 0x3c
   1a224:	eb000676 	bl	1bc04 <rand>
   1a228:	e7890106 	str	r0, [r9, r6, lsl #2]
   1a22c:	e51b103c 	ldr	r1, [fp, #-60]	; 0x3c
   1a230:	e2866001 	add	r6, r6, #1
   1a234:	e1560001 	cmp	r6, r1
   1a238:	3afffff8 	bcc	1a220 <test_libStdlib+0x41c>
   1a23c:	e59f3124 	ldr	r3, [pc, #292]	; 1a368 <test_libStdlib+0x564>
   1a240:	e1a00009 	mov	r0, r9
   1a244:	e3a02004 	mov	r2, #4
   1a248:	eb000638 	bl	1bb30 <qsort>
   1a24c:	e249c004 	sub	ip, r9, #4
   1a250:	e3a03000 	mov	r3, #0
   1a254:	ea000004 	b	1a26c <test_libStdlib+0x468>
   1a258:	e5bc1004 	ldr	r1, [ip, #4]!
   1a25c:	e2833001 	add	r3, r3, #1
   1a260:	e59c2004 	ldr	r2, [ip, #4]
   1a264:	e1510002 	cmp	r1, r2
   1a268:	83a07000 	movhi	r7, #0
   1a26c:	e153000a 	cmp	r3, sl
   1a270:	1afffff8 	bne	1a258 <test_libStdlib+0x454>
   1a274:	e2588001 	subs	r8, r8, #1
   1a278:	e51bd038 	ldr	sp, [fp, #-56]	; 0x38
   1a27c:	1affffdb 	bne	1a1f0 <test_libStdlib+0x3ec>
   1a280:	e1a00004 	mov	r0, r4
   1a284:	e59f10e0 	ldr	r1, [pc, #224]	; 1a36c <test_libStdlib+0x568>
   1a288:	ebffec04 	bl	152a0 <testPrint>
   1a28c:	e3570000 	cmp	r7, #0
   1a290:	e1a00004 	mov	r0, r4
   1a294:	1a000006 	bne	1a2b4 <test_libStdlib+0x4b0>
   1a298:	e59f10d0 	ldr	r1, [pc, #208]	; 1a370 <test_libStdlib+0x56c>
   1a29c:	ebffebf5 	bl	15278 <testFail>
   1a2a0:	e59f106c 	ldr	r1, [pc, #108]	; 1a314 <test_libStdlib+0x510>
   1a2a4:	e3a0208f 	mov	r2, #143	; 0x8f
   1a2a8:	e59f0060 	ldr	r0, [pc, #96]	; 1a310 <test_libStdlib+0x50c>
   1a2ac:	eb00060c 	bl	1bae4 <printf>
   1a2b0:	ea000007 	b	1a2d4 <test_libStdlib+0x4d0>
   1a2b4:	e59f1050 	ldr	r1, [pc, #80]	; 1a30c <test_libStdlib+0x508>
   1a2b8:	ebffebe9 	bl	15264 <testPass>
   1a2bc:	e3550000 	cmp	r5, #0
   1a2c0:	0a000003 	beq	1a2d4 <test_libStdlib+0x4d0>
   1a2c4:	e3a00001 	mov	r0, #1
   1a2c8:	e59f103c 	ldr	r1, [pc, #60]	; 1a30c <test_libStdlib+0x508>
   1a2cc:	ebffebe4 	bl	15264 <testPass>
   1a2d0:	ea000007 	b	1a2f4 <test_libStdlib+0x4f0>
   1a2d4:	e3a00001 	mov	r0, #1
   1a2d8:	e59f102c 	ldr	r1, [pc, #44]	; 1a30c <test_libStdlib+0x508>
   1a2dc:	ebffebe5 	bl	15278 <testFail>
   1a2e0:	ea000003 	b	1a2f4 <test_libStdlib+0x4f0>
   1a2e4:	e1a00004 	mov	r0, r4
   1a2e8:	e59f101c 	ldr	r1, [pc, #28]	; 1a30c <test_libStdlib+0x508>
   1a2ec:	ebffebdc 	bl	15264 <testPass>
   1a2f0:	eaffff61 	b	1a07c <test_libStdlib+0x278>
   1a2f4:	e3a00001 	mov	r0, #1
   1a2f8:	e24bd020 	sub	sp, fp, #32
   1a2fc:	e8bd8ff0 	pop	{r4, r5, r6, r7, r8, r9, sl, fp, pc}
   1a300:	0001f8e0 	.word	0x0001f8e0
   1a304:	0001f7ce 	.word	0x0001f7ce
   1a308:	0001f7df 	.word	0x0001f7df
   1a30c:	0001d661 	.word	0x0001d661
   1a310:	0001e177 	.word	0x0001e177
   1a314:	0001f7e4 	.word	0x0001f7e4
   1a318:	0001f7fd 	.word	0x0001f7fd
   1a31c:	0001f402 	.word	0x0001f402
   1a320:	0001f802 	.word	0x0001f802
   1a324:	0001f808 	.word	0x0001f808
   1a328:	0001f80e 	.word	0x0001f80e
   1a32c:	0001f815 	.word	0x0001f815
   1a330:	0001f81b 	.word	0x0001f81b
   1a334:	0001f821 	.word	0x0001f821
   1a338:	0001f828 	.word	0x0001f828
   1a33c:	0001f836 	.word	0x0001f836
   1a340:	0001f83b 	.word	0x0001f83b
   1a344:	0001f80f 	.word	0x0001f80f
   1a348:	0001f840 	.word	0x0001f840
   1a34c:	00019db4 	.word	0x00019db4
   1a350:	0001f84b 	.word	0x0001f84b
   1a354:	0001f855 	.word	0x0001f855
   1a358:	0001f85b 	.word	0x0001f85b
   1a35c:	0001f86a 	.word	0x0001f86a
   1a360:	0001f87e 	.word	0x0001f87e
   1a364:	0001f897 	.word	0x0001f897
   1a368:	00019de0 	.word	0x00019de0
   1a36c:	0001f8a9 	.word	0x0001f8a9
   1a370:	0001f8c3 	.word	0x0001f8c3

0001a374 <t4>:
   1a374:	e92d41f0 	push	{r4, r5, r6, r7, r8, lr}
   1a378:	e1a06000 	mov	r6, r0
   1a37c:	e1a07001 	mov	r7, r1
   1a380:	e1a05002 	mov	r5, r2
   1a384:	e3a04000 	mov	r4, #0
   1a388:	ebffd764 	bl	10120 <disable>
   1a38c:	e59f802c 	ldr	r8, [pc, #44]	; 1a3c0 <t4+0x4c>
   1a390:	ea000007 	b	1a3b4 <t4+0x40>
   1a394:	e5953000 	ldr	r3, [r5]
   1a398:	e5982000 	ldr	r2, [r8]
   1a39c:	e2844001 	add	r4, r4, #1
   1a3a0:	e7c72003 	strb	r2, [r7, r3]
   1a3a4:	e5953000 	ldr	r3, [r5]
   1a3a8:	e2833001 	add	r3, r3, #1
   1a3ac:	e5853000 	str	r3, [r5]
   1a3b0:	ebffda76 	bl	10d90 <yield>
   1a3b4:	e1540006 	cmp	r4, r6
   1a3b8:	bafffff5 	blt	1a394 <t4+0x20>
   1a3bc:	e8bd81f0 	pop	{r4, r5, r6, r7, r8, pc}
   1a3c0:	0002281c 	.word	0x0002281c

0001a3c4 <test_schedule>:
   1a3c4:	e92d4ff0 	push	{r4, r5, r6, r7, r8, r9, sl, fp, lr}
   1a3c8:	e24dd07c 	sub	sp, sp, #124	; 0x7c
   1a3cc:	e3a05000 	mov	r5, #0
   1a3d0:	e3a04005 	mov	r4, #5
   1a3d4:	e28d6018 	add	r6, sp, #24
   1a3d8:	e3a0b003 	mov	fp, #3
   1a3dc:	e28d801c 	add	r8, sp, #28
   1a3e0:	e1a07000 	mov	r7, r0
   1a3e4:	e58d5018 	str	r5, [sp, #24]
   1a3e8:	ebffd74c 	bl	10120 <disable>
   1a3ec:	e3a0201f 	mov	r2, #31
   1a3f0:	e59f3194 	ldr	r3, [pc, #404]	; 1a58c <test_schedule+0x1c8>
   1a3f4:	e58d600c 	str	r6, [sp, #12]
   1a3f8:	e3a01801 	mov	r1, #65536	; 0x10000
   1a3fc:	e58db000 	str	fp, [sp]
   1a400:	e58d4004 	str	r4, [sp, #4]
   1a404:	e58d8008 	str	r8, [sp, #8]
   1a408:	e59f0180 	ldr	r0, [pc, #384]	; 1a590 <test_schedule+0x1cc>
   1a40c:	ebffd8c2 	bl	1071c <create>
   1a410:	e1a01005 	mov	r1, r5
   1a414:	e1a09000 	mov	r9, r0
   1a418:	ebffd969 	bl	109c4 <ready>
   1a41c:	e3a02020 	mov	r2, #32
   1a420:	e59f316c 	ldr	r3, [pc, #364]	; 1a594 <test_schedule+0x1d0>
   1a424:	e58d600c 	str	r6, [sp, #12]
   1a428:	e3a01801 	mov	r1, #65536	; 0x10000
   1a42c:	e58db000 	str	fp, [sp]
   1a430:	e98d0110 	stmib	sp, {r4, r8}
   1a434:	e59f0154 	ldr	r0, [pc, #340]	; 1a590 <test_schedule+0x1cc>
   1a438:	ebffd8b7 	bl	1071c <create>
   1a43c:	e1a01005 	mov	r1, r5
   1a440:	e1a0a000 	mov	sl, r0
   1a444:	ebffd95e 	bl	109c4 <ready>
   1a448:	e3a02022 	mov	r2, #34	; 0x22
   1a44c:	e59f3144 	ldr	r3, [pc, #324]	; 1a598 <test_schedule+0x1d4>
   1a450:	e58d600c 	str	r6, [sp, #12]
   1a454:	e3a01801 	mov	r1, #65536	; 0x10000
   1a458:	e58db000 	str	fp, [sp]
   1a45c:	e98d0110 	stmib	sp, {r4, r8}
   1a460:	e59f0128 	ldr	r0, [pc, #296]	; 1a590 <test_schedule+0x1cc>
   1a464:	ebffd8ac 	bl	1071c <create>
   1a468:	e1a01005 	mov	r1, r5
   1a46c:	e58d0014 	str	r0, [sp, #20]
   1a470:	ebffd953 	bl	109c4 <ready>
   1a474:	e3a02020 	mov	r2, #32
   1a478:	e59f311c 	ldr	r3, [pc, #284]	; 1a59c <test_schedule+0x1d8>
   1a47c:	e58d600c 	str	r6, [sp, #12]
   1a480:	e3a01801 	mov	r1, #65536	; 0x10000
   1a484:	e58db000 	str	fp, [sp]
   1a488:	e98d0110 	stmib	sp, {r4, r8}
   1a48c:	e59f00fc 	ldr	r0, [pc, #252]	; 1a590 <test_schedule+0x1cc>
   1a490:	ebffd8a1 	bl	1071c <create>
   1a494:	e1a01005 	mov	r1, r5
   1a498:	e1a06000 	mov	r6, r0
   1a49c:	ebffd948 	bl	109c4 <ready>
   1a4a0:	ebffda3a 	bl	10d90 <yield>
   1a4a4:	e59dc014 	ldr	ip, [sp, #20]
   1a4a8:	e1a03004 	mov	r3, r4
   1a4ac:	e6ef207c 	uxtb	r2, ip
   1a4b0:	e5cd2030 	strb	r2, [sp, #48]	; 0x30
   1a4b4:	e5cd2031 	strb	r2, [sp, #49]	; 0x31
   1a4b8:	e5cd2032 	strb	r2, [sp, #50]	; 0x32
   1a4bc:	e5cd2033 	strb	r2, [sp, #51]	; 0x33
   1a4c0:	e5cd2034 	strb	r2, [sp, #52]	; 0x34
   1a4c4:	e28d201c 	add	r2, sp, #28
   1a4c8:	e7d32002 	ldrb	r2, [r3, r2]
   1a4cc:	e152000a 	cmp	r2, sl
   1a4d0:	e28d2030 	add	r2, sp, #48	; 0x30
   1a4d4:	1a000003 	bne	1a4e8 <test_schedule+0x124>
   1a4d8:	e3540000 	cmp	r4, #0
   1a4dc:	c7c2a003 	strbgt	sl, [r2, r3]
   1a4e0:	c2444001 	subgt	r4, r4, #1
   1a4e4:	ca000000 	bgt	1a4ec <test_schedule+0x128>
   1a4e8:	e7c26003 	strb	r6, [r2, r3]
   1a4ec:	e2833001 	add	r3, r3, #1
   1a4f0:	e353000f 	cmp	r3, #15
   1a4f4:	1afffff2 	bne	1a4c4 <test_schedule+0x100>
   1a4f8:	e6ef3079 	uxtb	r3, r9
   1a4fc:	e5cd303f 	strb	r3, [sp, #63]	; 0x3f
   1a500:	e5cd3040 	strb	r3, [sp, #64]	; 0x40
   1a504:	e5cd3041 	strb	r3, [sp, #65]	; 0x41
   1a508:	e5cd3042 	strb	r3, [sp, #66]	; 0x42
   1a50c:	e5cd3043 	strb	r3, [sp, #67]	; 0x43
   1a510:	e3a00001 	mov	r0, #1
   1a514:	e3a04000 	mov	r4, #0
   1a518:	e28d3030 	add	r3, sp, #48	; 0x30
   1a51c:	e28d201c 	add	r2, sp, #28
   1a520:	e7d43003 	ldrb	r3, [r4, r3]
   1a524:	e7d42002 	ldrb	r2, [r4, r2]
   1a528:	e1530002 	cmp	r3, r2
   1a52c:	0a000008 	beq	1a554 <test_schedule+0x190>
   1a530:	e58d2000 	str	r2, [sp]
   1a534:	e59f1064 	ldr	r1, [pc, #100]	; 1a5a0 <test_schedule+0x1dc>
   1a538:	e1a02004 	mov	r2, r4
   1a53c:	e28d0044 	add	r0, sp, #68	; 0x44
   1a540:	eb0005c0 	bl	1bc48 <sprintf>
   1a544:	e1a00007 	mov	r0, r7
   1a548:	e28d1044 	add	r1, sp, #68	; 0x44
   1a54c:	ebffeb49 	bl	15278 <testFail>
   1a550:	e3a00000 	mov	r0, #0
   1a554:	e2844001 	add	r4, r4, #1
   1a558:	e3540014 	cmp	r4, #20
   1a55c:	1affffed 	bne	1a518 <test_schedule+0x154>
   1a560:	e3500001 	cmp	r0, #1
   1a564:	1a000002 	bne	1a574 <test_schedule+0x1b0>
   1a568:	e59f1034 	ldr	r1, [pc, #52]	; 1a5a4 <test_schedule+0x1e0>
   1a56c:	ebffeb3c 	bl	15264 <testPass>
   1a570:	ea000002 	b	1a580 <test_schedule+0x1bc>
   1a574:	e3a00001 	mov	r0, #1
   1a578:	e59f1024 	ldr	r1, [pc, #36]	; 1a5a4 <test_schedule+0x1e0>
   1a57c:	ebffeb3d 	bl	15278 <testFail>
   1a580:	e3a00001 	mov	r0, #1
   1a584:	e28dd07c 	add	sp, sp, #124	; 0x7c
   1a588:	e8bd8ff0 	pop	{r4, r5, r6, r7, r8, r9, sl, fp, pc}
   1a58c:	0001f8ea 	.word	0x0001f8ea
   1a590:	0001a374 	.word	0x0001a374
   1a594:	0001f8f5 	.word	0x0001f8f5
   1a598:	0001f900 	.word	0x0001f900
   1a59c:	0001f90b 	.word	0x0001f90b
   1a5a0:	0001f6bf 	.word	0x0001f6bf
   1a5a4:	0001d661 	.word	0x0001d661

0001a5a8 <test_libString>:
   1a5a8:	e92d40f0 	push	{r4, r5, r6, r7, lr}
   1a5ac:	e59f385c 	ldr	r3, [pc, #2140]	; 1ae10 <test_libString+0x868>
   1a5b0:	e1a04000 	mov	r4, r0
   1a5b4:	e5930000 	ldr	r0, [r3]
   1a5b8:	e24dd044 	sub	sp, sp, #68	; 0x44
   1a5bc:	e1d320b4 	ldrh	r2, [r3, #4]
   1a5c0:	e5d33006 	ldrb	r3, [r3, #6]
   1a5c4:	e58d0024 	str	r0, [sp, #36]	; 0x24
   1a5c8:	e59f1844 	ldr	r1, [pc, #2116]	; 1ae14 <test_libString+0x86c>
   1a5cc:	e1a00004 	mov	r0, r4
   1a5d0:	e1cd22b8 	strh	r2, [sp, #40]	; 0x28
   1a5d4:	e5cd302a 	strb	r3, [sp, #42]	; 0x2a
   1a5d8:	ebffeb30 	bl	152a0 <testPrint>
   1a5dc:	e59f0834 	ldr	r0, [pc, #2100]	; 1ae18 <test_libString+0x870>
   1a5e0:	e59f1834 	ldr	r1, [pc, #2100]	; 1ae1c <test_libString+0x874>
   1a5e4:	e3a02002 	mov	r2, #2
   1a5e8:	eb00060c 	bl	1be20 <strncmp>
   1a5ec:	e3500000 	cmp	r0, #0
   1a5f0:	aa000008 	bge	1a618 <test_libString+0x70>
   1a5f4:	e1a00004 	mov	r0, r4
   1a5f8:	e59f1820 	ldr	r1, [pc, #2080]	; 1ae20 <test_libString+0x878>
   1a5fc:	ebffeb1d 	bl	15278 <testFail>
   1a600:	e59f081c 	ldr	r0, [pc, #2076]	; 1ae24 <test_libString+0x87c>
   1a604:	e59f181c 	ldr	r1, [pc, #2076]	; 1ae28 <test_libString+0x880>
   1a608:	e3a0201e 	mov	r2, #30
   1a60c:	eb000534 	bl	1bae4 <printf>
   1a610:	e3a05000 	mov	r5, #0
   1a614:	ea000033 	b	1a6e8 <test_libString+0x140>
   1a618:	e59f080c 	ldr	r0, [pc, #2060]	; 1ae2c <test_libString+0x884>
   1a61c:	e59f180c 	ldr	r1, [pc, #2060]	; 1ae30 <test_libString+0x888>
   1a620:	e3a02002 	mov	r2, #2
   1a624:	eb0005fd 	bl	1be20 <strncmp>
   1a628:	e3500000 	cmp	r0, #0
   1a62c:	cafffff0 	bgt	1a5f4 <test_libString+0x4c>
   1a630:	e59f07f4 	ldr	r0, [pc, #2036]	; 1ae2c <test_libString+0x884>
   1a634:	e59f17f4 	ldr	r1, [pc, #2036]	; 1ae30 <test_libString+0x888>
   1a638:	e3a02032 	mov	r2, #50	; 0x32
   1a63c:	eb0005f7 	bl	1be20 <strncmp>
   1a640:	e3500000 	cmp	r0, #0
   1a644:	caffffea 	bgt	1a5f4 <test_libString+0x4c>
   1a648:	e59f07e0 	ldr	r0, [pc, #2016]	; 1ae30 <test_libString+0x888>
   1a64c:	e59f17d8 	ldr	r1, [pc, #2008]	; 1ae2c <test_libString+0x884>
   1a650:	e3a02032 	mov	r2, #50	; 0x32
   1a654:	eb0005f1 	bl	1be20 <strncmp>
   1a658:	e3500000 	cmp	r0, #0
   1a65c:	baffffe4 	blt	1a5f4 <test_libString+0x4c>
   1a660:	e59f07cc 	ldr	r0, [pc, #1996]	; 1ae34 <test_libString+0x88c>
   1a664:	e3a02032 	mov	r2, #50	; 0x32
   1a668:	e1a01000 	mov	r1, r0
   1a66c:	eb0005eb 	bl	1be20 <strncmp>
   1a670:	e3500000 	cmp	r0, #0
   1a674:	1affffde 	bne	1a5f4 <test_libString+0x4c>
   1a678:	e59f07b8 	ldr	r0, [pc, #1976]	; 1ae38 <test_libString+0x890>
   1a67c:	e3a02002 	mov	r2, #2
   1a680:	e1a01000 	mov	r1, r0
   1a684:	eb0005e5 	bl	1be20 <strncmp>
   1a688:	e3500000 	cmp	r0, #0
   1a68c:	1affffd8 	bne	1a5f4 <test_libString+0x4c>
   1a690:	e59f07a4 	ldr	r0, [pc, #1956]	; 1ae3c <test_libString+0x894>
   1a694:	e59f17a4 	ldr	r1, [pc, #1956]	; 1ae40 <test_libString+0x898>
   1a698:	e3a02003 	mov	r2, #3
   1a69c:	eb0005df 	bl	1be20 <strncmp>
   1a6a0:	e3500000 	cmp	r0, #0
   1a6a4:	caffffd2 	bgt	1a5f4 <test_libString+0x4c>
   1a6a8:	e59f0794 	ldr	r0, [pc, #1940]	; 1ae44 <test_libString+0x89c>
   1a6ac:	e59f1794 	ldr	r1, [pc, #1940]	; 1ae48 <test_libString+0x8a0>
   1a6b0:	e3a02003 	mov	r2, #3
   1a6b4:	eb0005d9 	bl	1be20 <strncmp>
   1a6b8:	e3500000 	cmp	r0, #0
   1a6bc:	baffffcc 	blt	1a5f4 <test_libString+0x4c>
   1a6c0:	e59f0784 	ldr	r0, [pc, #1924]	; 1ae4c <test_libString+0x8a4>
   1a6c4:	e59f1784 	ldr	r1, [pc, #1924]	; 1ae50 <test_libString+0x8a8>
   1a6c8:	e3a02002 	mov	r2, #2
   1a6cc:	eb0005d3 	bl	1be20 <strncmp>
   1a6d0:	e3500000 	cmp	r0, #0
   1a6d4:	1affffc6 	bne	1a5f4 <test_libString+0x4c>
   1a6d8:	e1a00004 	mov	r0, r4
   1a6dc:	e59f173c 	ldr	r1, [pc, #1852]	; 1ae20 <test_libString+0x878>
   1a6e0:	ebffeadf 	bl	15264 <testPass>
   1a6e4:	e3a05001 	mov	r5, #1
   1a6e8:	e1a00004 	mov	r0, r4
   1a6ec:	e59f1760 	ldr	r1, [pc, #1888]	; 1ae54 <test_libString+0x8ac>
   1a6f0:	ebffeaea 	bl	152a0 <testPrint>
   1a6f4:	e59f375c 	ldr	r3, [pc, #1884]	; 1ae58 <test_libString+0x8b0>
   1a6f8:	e28d6004 	add	r6, sp, #4
   1a6fc:	e5930000 	ldr	r0, [r3]
   1a700:	e1d330b4 	ldrh	r3, [r3, #4]
   1a704:	e58d0004 	str	r0, [sp, #4]
   1a708:	e59f174c 	ldr	r1, [pc, #1868]	; 1ae5c <test_libString+0x8b4>
   1a70c:	e3a02003 	mov	r2, #3
   1a710:	e1a00006 	mov	r0, r6
   1a714:	e1cd30b8 	strh	r3, [sp, #8]
   1a718:	eb0005d1 	bl	1be64 <strncpy>
   1a71c:	e59f173c 	ldr	r1, [pc, #1852]	; 1ae60 <test_libString+0x8b8>
   1a720:	e1a07000 	mov	r7, r0
   1a724:	e3a02005 	mov	r2, #5
   1a728:	e1a00006 	mov	r0, r6
   1a72c:	eb0005bb 	bl	1be20 <strncmp>
   1a730:	e3500000 	cmp	r0, #0
   1a734:	e59f16e4 	ldr	r1, [pc, #1764]	; 1ae20 <test_libString+0x878>
   1a738:	e1a00004 	mov	r0, r4
   1a73c:	1a000001 	bne	1a748 <test_libString+0x1a0>
   1a740:	e1570006 	cmp	r7, r6
   1a744:	0a000006 	beq	1a764 <test_libString+0x1bc>
   1a748:	ebffeaca 	bl	15278 <testFail>
   1a74c:	e59f06d0 	ldr	r0, [pc, #1744]	; 1ae24 <test_libString+0x87c>
   1a750:	e59f16d0 	ldr	r1, [pc, #1744]	; 1ae28 <test_libString+0x880>
   1a754:	e3a02025 	mov	r2, #37	; 0x25
   1a758:	eb0004e1 	bl	1bae4 <printf>
   1a75c:	e3a05000 	mov	r5, #0
   1a760:	ea000000 	b	1a768 <test_libString+0x1c0>
   1a764:	ebffeabe 	bl	15264 <testPass>
   1a768:	e1a00004 	mov	r0, r4
   1a76c:	e59f16f0 	ldr	r1, [pc, #1776]	; 1ae64 <test_libString+0x8bc>
   1a770:	ebffeaca 	bl	152a0 <testPrint>
   1a774:	e59f16a4 	ldr	r1, [pc, #1700]	; 1ae20 <test_libString+0x878>
   1a778:	e3a02006 	mov	r2, #6
   1a77c:	e28d0004 	add	r0, sp, #4
   1a780:	eb0005b7 	bl	1be64 <strncpy>
   1a784:	e59f16dc 	ldr	r1, [pc, #1756]	; 1ae68 <test_libString+0x8c0>
   1a788:	e28d0004 	add	r0, sp, #4
   1a78c:	e3a02006 	mov	r2, #6
   1a790:	eb0004b5 	bl	1ba6c <memcmp>
   1a794:	e3500000 	cmp	r0, #0
   1a798:	e59f1680 	ldr	r1, [pc, #1664]	; 1ae20 <test_libString+0x878>
   1a79c:	e1a00004 	mov	r0, r4
   1a7a0:	0a000006 	beq	1a7c0 <test_libString+0x218>
   1a7a4:	ebffeab3 	bl	15278 <testFail>
   1a7a8:	e59f0674 	ldr	r0, [pc, #1652]	; 1ae24 <test_libString+0x87c>
   1a7ac:	e59f1674 	ldr	r1, [pc, #1652]	; 1ae28 <test_libString+0x880>
   1a7b0:	e3a02029 	mov	r2, #41	; 0x29
   1a7b4:	eb0004ca 	bl	1bae4 <printf>
   1a7b8:	e3a05000 	mov	r5, #0
   1a7bc:	ea000000 	b	1a7c4 <test_libString+0x21c>
   1a7c0:	ebffeaa7 	bl	15264 <testPass>
   1a7c4:	e1a00004 	mov	r0, r4
   1a7c8:	e59f169c 	ldr	r1, [pc, #1692]	; 1ae6c <test_libString+0x8c4>
   1a7cc:	ebffeab3 	bl	152a0 <testPrint>
   1a7d0:	e59f3698 	ldr	r3, [pc, #1688]	; 1ae70 <test_libString+0x8c8>
   1a7d4:	e59f1698 	ldr	r1, [pc, #1688]	; 1ae74 <test_libString+0x8cc>
   1a7d8:	e58d300c 	str	r3, [sp, #12]
   1a7dc:	e3a02001 	mov	r2, #1
   1a7e0:	e3a03000 	mov	r3, #0
   1a7e4:	e28d000c 	add	r0, sp, #12
   1a7e8:	e1cd31b0 	strh	r3, [sp, #16]
   1a7ec:	eb000578 	bl	1bdd4 <strncat>
   1a7f0:	e59f1680 	ldr	r1, [pc, #1664]	; 1ae78 <test_libString+0x8d0>
   1a7f4:	e1a06000 	mov	r6, r0
   1a7f8:	e3a02004 	mov	r2, #4
   1a7fc:	e28d000c 	add	r0, sp, #12
   1a800:	eb000586 	bl	1be20 <strncmp>
   1a804:	e3500000 	cmp	r0, #0
   1a808:	0a000008 	beq	1a830 <test_libString+0x288>
   1a80c:	e1a00004 	mov	r0, r4
   1a810:	e59f1608 	ldr	r1, [pc, #1544]	; 1ae20 <test_libString+0x878>
   1a814:	ebffea97 	bl	15278 <testFail>
   1a818:	e59f0604 	ldr	r0, [pc, #1540]	; 1ae24 <test_libString+0x87c>
   1a81c:	e59f1604 	ldr	r1, [pc, #1540]	; 1ae28 <test_libString+0x880>
   1a820:	e3a02031 	mov	r2, #49	; 0x31
   1a824:	eb0004ae 	bl	1bae4 <printf>
   1a828:	e3a05000 	mov	r5, #0
   1a82c:	ea000008 	b	1a854 <test_libString+0x2ac>
   1a830:	e1a00006 	mov	r0, r6
   1a834:	e59f163c 	ldr	r1, [pc, #1596]	; 1ae78 <test_libString+0x8d0>
   1a838:	e3a02004 	mov	r2, #4
   1a83c:	eb000577 	bl	1be20 <strncmp>
   1a840:	e3500000 	cmp	r0, #0
   1a844:	1afffff0 	bne	1a80c <test_libString+0x264>
   1a848:	e1a00004 	mov	r0, r4
   1a84c:	e59f15cc 	ldr	r1, [pc, #1484]	; 1ae20 <test_libString+0x878>
   1a850:	ebffea83 	bl	15264 <testPass>
   1a854:	e1a00004 	mov	r0, r4
   1a858:	e59f161c 	ldr	r1, [pc, #1564]	; 1ae7c <test_libString+0x8d4>
   1a85c:	ebffea8f 	bl	152a0 <testPrint>
   1a860:	e3a01061 	mov	r1, #97	; 0x61
   1a864:	e28d0024 	add	r0, sp, #36	; 0x24
   1a868:	eb000527 	bl	1bd0c <strchr>
   1a86c:	e3500000 	cmp	r0, #0
   1a870:	e59f15a8 	ldr	r1, [pc, #1448]	; 1ae20 <test_libString+0x878>
   1a874:	e1a00004 	mov	r0, r4
   1a878:	0a000006 	beq	1a898 <test_libString+0x2f0>
   1a87c:	ebffea7d 	bl	15278 <testFail>
   1a880:	e59f059c 	ldr	r0, [pc, #1436]	; 1ae24 <test_libString+0x87c>
   1a884:	e59f159c 	ldr	r1, [pc, #1436]	; 1ae28 <test_libString+0x880>
   1a888:	e3a02037 	mov	r2, #55	; 0x37
   1a88c:	eb000494 	bl	1bae4 <printf>
   1a890:	e3a05000 	mov	r5, #0
   1a894:	ea000000 	b	1a89c <test_libString+0x2f4>
   1a898:	ebffea71 	bl	15264 <testPass>
   1a89c:	e1a00004 	mov	r0, r4
   1a8a0:	e59f15d8 	ldr	r1, [pc, #1496]	; 1ae80 <test_libString+0x8d8>
   1a8a4:	ebffea7d 	bl	152a0 <testPrint>
   1a8a8:	e3a01058 	mov	r1, #88	; 0x58
   1a8ac:	e28d0024 	add	r0, sp, #36	; 0x24
   1a8b0:	eb000515 	bl	1bd0c <strchr>
   1a8b4:	e5d03001 	ldrb	r3, [r0, #1]
   1a8b8:	e59f1560 	ldr	r1, [pc, #1376]	; 1ae20 <test_libString+0x878>
   1a8bc:	e3530057 	cmp	r3, #87	; 0x57
   1a8c0:	e1a00004 	mov	r0, r4
   1a8c4:	0a000006 	beq	1a8e4 <test_libString+0x33c>
   1a8c8:	ebffea6a 	bl	15278 <testFail>
   1a8cc:	e59f0550 	ldr	r0, [pc, #1360]	; 1ae24 <test_libString+0x87c>
   1a8d0:	e59f1550 	ldr	r1, [pc, #1360]	; 1ae28 <test_libString+0x880>
   1a8d4:	e3a0203c 	mov	r2, #60	; 0x3c
   1a8d8:	eb000481 	bl	1bae4 <printf>
   1a8dc:	e3a05000 	mov	r5, #0
   1a8e0:	ea000000 	b	1a8e8 <test_libString+0x340>
   1a8e4:	ebffea5e 	bl	15264 <testPass>
   1a8e8:	e1a00004 	mov	r0, r4
   1a8ec:	e59f1590 	ldr	r1, [pc, #1424]	; 1ae84 <test_libString+0x8dc>
   1a8f0:	ebffea6a 	bl	152a0 <testPrint>
   1a8f4:	e3a01059 	mov	r1, #89	; 0x59
   1a8f8:	e28d0024 	add	r0, sp, #36	; 0x24
   1a8fc:	eb000502 	bl	1bd0c <strchr>
   1a900:	e5d03001 	ldrb	r3, [r0, #1]
   1a904:	e59f1514 	ldr	r1, [pc, #1300]	; 1ae20 <test_libString+0x878>
   1a908:	e3530058 	cmp	r3, #88	; 0x58
   1a90c:	e1a00004 	mov	r0, r4
   1a910:	0a000006 	beq	1a930 <test_libString+0x388>
   1a914:	ebffea57 	bl	15278 <testFail>
   1a918:	e59f0504 	ldr	r0, [pc, #1284]	; 1ae24 <test_libString+0x87c>
   1a91c:	e59f1504 	ldr	r1, [pc, #1284]	; 1ae28 <test_libString+0x880>
   1a920:	e3a02041 	mov	r2, #65	; 0x41
   1a924:	eb00046e 	bl	1bae4 <printf>
   1a928:	e3a05000 	mov	r5, #0
   1a92c:	ea000000 	b	1a934 <test_libString+0x38c>
   1a930:	ebffea4b 	bl	15264 <testPass>
   1a934:	e1a00004 	mov	r0, r4
   1a938:	e59f1548 	ldr	r1, [pc, #1352]	; 1ae88 <test_libString+0x8e0>
   1a93c:	ebffea57 	bl	152a0 <testPrint>
   1a940:	e3a01000 	mov	r1, #0
   1a944:	e28d0024 	add	r0, sp, #36	; 0x24
   1a948:	eb0004ef 	bl	1bd0c <strchr>
   1a94c:	e28d302a 	add	r3, sp, #42	; 0x2a
   1a950:	e1530000 	cmp	r3, r0
   1a954:	e59f14c4 	ldr	r1, [pc, #1220]	; 1ae20 <test_libString+0x878>
   1a958:	e1a00004 	mov	r0, r4
   1a95c:	1a000002 	bne	1a96c <test_libString+0x3c4>
   1a960:	e5dd302a 	ldrb	r3, [sp, #42]	; 0x2a
   1a964:	e3530000 	cmp	r3, #0
   1a968:	0a000006 	beq	1a988 <test_libString+0x3e0>
   1a96c:	ebffea41 	bl	15278 <testFail>
   1a970:	e59f04ac 	ldr	r0, [pc, #1196]	; 1ae24 <test_libString+0x87c>
   1a974:	e59f14ac 	ldr	r1, [pc, #1196]	; 1ae28 <test_libString+0x880>
   1a978:	e3a02046 	mov	r2, #70	; 0x46
   1a97c:	eb000458 	bl	1bae4 <printf>
   1a980:	e3a05000 	mov	r5, #0
   1a984:	ea000000 	b	1a98c <test_libString+0x3e4>
   1a988:	ebffea35 	bl	15264 <testPass>
   1a98c:	e1a00004 	mov	r0, r4
   1a990:	e59f14f4 	ldr	r1, [pc, #1268]	; 1ae8c <test_libString+0x8e4>
   1a994:	ebffea41 	bl	152a0 <testPrint>
   1a998:	e3a01061 	mov	r1, #97	; 0x61
   1a99c:	e28d0024 	add	r0, sp, #36	; 0x24
   1a9a0:	eb000548 	bl	1bec8 <strrchr>
   1a9a4:	e3500000 	cmp	r0, #0
   1a9a8:	e59f1470 	ldr	r1, [pc, #1136]	; 1ae20 <test_libString+0x878>
   1a9ac:	e1a00004 	mov	r0, r4
   1a9b0:	0a000006 	beq	1a9d0 <test_libString+0x428>
   1a9b4:	ebffea2f 	bl	15278 <testFail>
   1a9b8:	e59f0464 	ldr	r0, [pc, #1124]	; 1ae24 <test_libString+0x87c>
   1a9bc:	e59f1464 	ldr	r1, [pc, #1124]	; 1ae28 <test_libString+0x880>
   1a9c0:	e3a0204c 	mov	r2, #76	; 0x4c
   1a9c4:	eb000446 	bl	1bae4 <printf>
   1a9c8:	e3a05000 	mov	r5, #0
   1a9cc:	ea000000 	b	1a9d4 <test_libString+0x42c>
   1a9d0:	ebffea23 	bl	15264 <testPass>
   1a9d4:	e1a00004 	mov	r0, r4
   1a9d8:	e59f14b0 	ldr	r1, [pc, #1200]	; 1ae90 <test_libString+0x8e8>
   1a9dc:	ebffea2f 	bl	152a0 <testPrint>
   1a9e0:	e3a01058 	mov	r1, #88	; 0x58
   1a9e4:	e28d0024 	add	r0, sp, #36	; 0x24
   1a9e8:	eb000536 	bl	1bec8 <strrchr>
   1a9ec:	e5d03001 	ldrb	r3, [r0, #1]
   1a9f0:	e59f1428 	ldr	r1, [pc, #1064]	; 1ae20 <test_libString+0x878>
   1a9f4:	e3530057 	cmp	r3, #87	; 0x57
   1a9f8:	e1a00004 	mov	r0, r4
   1a9fc:	0a000006 	beq	1aa1c <test_libString+0x474>
   1aa00:	ebffea1c 	bl	15278 <testFail>
   1aa04:	e59f0418 	ldr	r0, [pc, #1048]	; 1ae24 <test_libString+0x87c>
   1aa08:	e59f1418 	ldr	r1, [pc, #1048]	; 1ae28 <test_libString+0x880>
   1aa0c:	e3a02051 	mov	r2, #81	; 0x51
   1aa10:	eb000433 	bl	1bae4 <printf>
   1aa14:	e3a05000 	mov	r5, #0
   1aa18:	ea000000 	b	1aa20 <test_libString+0x478>
   1aa1c:	ebffea10 	bl	15264 <testPass>
   1aa20:	e1a00004 	mov	r0, r4
   1aa24:	e59f1468 	ldr	r1, [pc, #1128]	; 1ae94 <test_libString+0x8ec>
   1aa28:	ebffea1c 	bl	152a0 <testPrint>
   1aa2c:	e3a01059 	mov	r1, #89	; 0x59
   1aa30:	e28d0024 	add	r0, sp, #36	; 0x24
   1aa34:	eb000523 	bl	1bec8 <strrchr>
   1aa38:	e5d03001 	ldrb	r3, [r0, #1]
   1aa3c:	e59f13dc 	ldr	r1, [pc, #988]	; 1ae20 <test_libString+0x878>
   1aa40:	e353005a 	cmp	r3, #90	; 0x5a
   1aa44:	e1a00004 	mov	r0, r4
   1aa48:	0a000006 	beq	1aa68 <test_libString+0x4c0>
   1aa4c:	ebffea09 	bl	15278 <testFail>
   1aa50:	e59f03cc 	ldr	r0, [pc, #972]	; 1ae24 <test_libString+0x87c>
   1aa54:	e59f13cc 	ldr	r1, [pc, #972]	; 1ae28 <test_libString+0x880>
   1aa58:	e3a02056 	mov	r2, #86	; 0x56
   1aa5c:	eb000420 	bl	1bae4 <printf>
   1aa60:	e3a05000 	mov	r5, #0
   1aa64:	ea000000 	b	1aa6c <test_libString+0x4c4>
   1aa68:	ebffe9fd 	bl	15264 <testPass>
   1aa6c:	e1a00004 	mov	r0, r4
   1aa70:	e59f1420 	ldr	r1, [pc, #1056]	; 1ae98 <test_libString+0x8f0>
   1aa74:	ebffea09 	bl	152a0 <testPrint>
   1aa78:	e3a01000 	mov	r1, #0
   1aa7c:	e28d0024 	add	r0, sp, #36	; 0x24
   1aa80:	eb000510 	bl	1bec8 <strrchr>
   1aa84:	e28d302a 	add	r3, sp, #42	; 0x2a
   1aa88:	e1530000 	cmp	r3, r0
   1aa8c:	e59f138c 	ldr	r1, [pc, #908]	; 1ae20 <test_libString+0x878>
   1aa90:	e1a00004 	mov	r0, r4
   1aa94:	1a000002 	bne	1aaa4 <test_libString+0x4fc>
   1aa98:	e5dd302a 	ldrb	r3, [sp, #42]	; 0x2a
   1aa9c:	e3530000 	cmp	r3, #0
   1aaa0:	0a000006 	beq	1aac0 <test_libString+0x518>
   1aaa4:	ebffe9f3 	bl	15278 <testFail>
   1aaa8:	e59f0374 	ldr	r0, [pc, #884]	; 1ae24 <test_libString+0x87c>
   1aaac:	e59f1374 	ldr	r1, [pc, #884]	; 1ae28 <test_libString+0x880>
   1aab0:	e3a0205b 	mov	r2, #91	; 0x5b
   1aab4:	eb00040a 	bl	1bae4 <printf>
   1aab8:	e3a05000 	mov	r5, #0
   1aabc:	ea000000 	b	1aac4 <test_libString+0x51c>
   1aac0:	ebffe9e7 	bl	15264 <testPass>
   1aac4:	e1a00004 	mov	r0, r4
   1aac8:	e59f13cc 	ldr	r1, [pc, #972]	; 1ae9c <test_libString+0x8f4>
   1aacc:	ebffe9f3 	bl	152a0 <testPrint>
   1aad0:	e59f23c8 	ldr	r2, [pc, #968]	; 1aea0 <test_libString+0x8f8>
   1aad4:	e28d3034 	add	r3, sp, #52	; 0x34
   1aad8:	e5920000 	ldr	r0, [r2]
   1aadc:	e5921004 	ldr	r1, [r2, #4]
   1aae0:	e5d22008 	ldrb	r2, [r2, #8]
   1aae4:	e8a30003 	stmia	r3!, {r0, r1}
   1aae8:	e59f13b4 	ldr	r1, [pc, #948]	; 1aea4 <test_libString+0x8fc>
   1aaec:	e28d0034 	add	r0, sp, #52	; 0x34
   1aaf0:	e5c32000 	strb	r2, [r3]
   1aaf4:	eb0004fd 	bl	1bef0 <strstr>
   1aaf8:	e5d03003 	ldrb	r3, [r0, #3]
   1aafc:	e59f131c 	ldr	r1, [pc, #796]	; 1ae20 <test_libString+0x878>
   1ab00:	e3530045 	cmp	r3, #69	; 0x45
   1ab04:	e1a00004 	mov	r0, r4
   1ab08:	0a000006 	beq	1ab28 <test_libString+0x580>
   1ab0c:	ebffe9d9 	bl	15278 <testFail>
   1ab10:	e59f030c 	ldr	r0, [pc, #780]	; 1ae24 <test_libString+0x87c>
   1ab14:	e59f130c 	ldr	r1, [pc, #780]	; 1ae28 <test_libString+0x880>
   1ab18:	e3a02063 	mov	r2, #99	; 0x63
   1ab1c:	eb0003f0 	bl	1bae4 <printf>
   1ab20:	e3a05000 	mov	r5, #0
   1ab24:	ea000000 	b	1ab2c <test_libString+0x584>
   1ab28:	ebffe9cd 	bl	15264 <testPass>
   1ab2c:	e1a00004 	mov	r0, r4
   1ab30:	e59f1370 	ldr	r1, [pc, #880]	; 1aea8 <test_libString+0x900>
   1ab34:	ebffe9d9 	bl	152a0 <testPrint>
   1ab38:	e3a01064 	mov	r1, #100	; 0x64
   1ab3c:	e59f0368 	ldr	r0, [pc, #872]	; 1aeac <test_libString+0x904>
   1ab40:	eb0004d6 	bl	1bea0 <strnlen>
   1ab44:	e3500005 	cmp	r0, #5
   1ab48:	e1a01000 	mov	r1, r0
   1ab4c:	0a000008 	beq	1ab74 <test_libString+0x5cc>
   1ab50:	e1a00004 	mov	r0, r4
   1ab54:	e59f12c4 	ldr	r1, [pc, #708]	; 1ae20 <test_libString+0x878>
   1ab58:	ebffe9c6 	bl	15278 <testFail>
   1ab5c:	e59f02c0 	ldr	r0, [pc, #704]	; 1ae24 <test_libString+0x87c>
   1ab60:	e59f12c0 	ldr	r1, [pc, #704]	; 1ae28 <test_libString+0x880>
   1ab64:	e3a0206a 	mov	r2, #106	; 0x6a
   1ab68:	eb0003dd 	bl	1bae4 <printf>
   1ab6c:	e3a05000 	mov	r5, #0
   1ab70:	ea000010 	b	1abb8 <test_libString+0x610>
   1ab74:	e59f02a4 	ldr	r0, [pc, #676]	; 1ae20 <test_libString+0x878>
   1ab78:	eb0004c8 	bl	1bea0 <strnlen>
   1ab7c:	e2506000 	subs	r6, r0, #0
   1ab80:	1afffff2 	bne	1ab50 <test_libString+0x5a8>
   1ab84:	e59f0320 	ldr	r0, [pc, #800]	; 1aeac <test_libString+0x904>
   1ab88:	e3a01003 	mov	r1, #3
   1ab8c:	eb0004c3 	bl	1bea0 <strnlen>
   1ab90:	e3500003 	cmp	r0, #3
   1ab94:	1affffed 	bne	1ab50 <test_libString+0x5a8>
   1ab98:	e59f030c 	ldr	r0, [pc, #780]	; 1aeac <test_libString+0x904>
   1ab9c:	e1a01006 	mov	r1, r6
   1aba0:	eb0004be 	bl	1bea0 <strnlen>
   1aba4:	e3500000 	cmp	r0, #0
   1aba8:	1affffe8 	bne	1ab50 <test_libString+0x5a8>
   1abac:	e1a00004 	mov	r0, r4
   1abb0:	e59f1268 	ldr	r1, [pc, #616]	; 1ae20 <test_libString+0x878>
   1abb4:	ebffe9aa 	bl	15264 <testPass>
   1abb8:	e1a00004 	mov	r0, r4
   1abbc:	e59f12ec 	ldr	r1, [pc, #748]	; 1aeb0 <test_libString+0x908>
   1abc0:	ebffe9b6 	bl	152a0 <testPrint>
   1abc4:	e59f02e8 	ldr	r0, [pc, #744]	; 1aeb4 <test_libString+0x90c>
   1abc8:	e59f12e8 	ldr	r1, [pc, #744]	; 1aeb8 <test_libString+0x910>
   1abcc:	e3a02003 	mov	r2, #3
   1abd0:	eb0003a5 	bl	1ba6c <memcmp>
   1abd4:	e3500000 	cmp	r0, #0
   1abd8:	da000008 	ble	1ac00 <test_libString+0x658>
   1abdc:	e1a00004 	mov	r0, r4
   1abe0:	e59f1238 	ldr	r1, [pc, #568]	; 1ae20 <test_libString+0x878>
   1abe4:	ebffe9a3 	bl	15278 <testFail>
   1abe8:	e59f0234 	ldr	r0, [pc, #564]	; 1ae24 <test_libString+0x87c>
   1abec:	e59f1234 	ldr	r1, [pc, #564]	; 1ae28 <test_libString+0x880>
   1abf0:	e3a02070 	mov	r2, #112	; 0x70
   1abf4:	eb0003ba 	bl	1bae4 <printf>
   1abf8:	e3a05000 	mov	r5, #0
   1abfc:	ea00000e 	b	1ac3c <test_libString+0x694>
   1ac00:	e59f02b4 	ldr	r0, [pc, #692]	; 1aebc <test_libString+0x914>
   1ac04:	e59f1228 	ldr	r1, [pc, #552]	; 1ae34 <test_libString+0x88c>
   1ac08:	e3a02003 	mov	r2, #3
   1ac0c:	eb000396 	bl	1ba6c <memcmp>
   1ac10:	e3500000 	cmp	r0, #0
   1ac14:	bafffff0 	blt	1abdc <test_libString+0x634>
   1ac18:	e59f02a0 	ldr	r0, [pc, #672]	; 1aec0 <test_libString+0x918>
   1ac1c:	e3a02003 	mov	r2, #3
   1ac20:	e1a01000 	mov	r1, r0
   1ac24:	eb000390 	bl	1ba6c <memcmp>
   1ac28:	e3500000 	cmp	r0, #0
   1ac2c:	1affffea 	bne	1abdc <test_libString+0x634>
   1ac30:	e1a00004 	mov	r0, r4
   1ac34:	e59f11e4 	ldr	r1, [pc, #484]	; 1ae20 <test_libString+0x878>
   1ac38:	ebffe989 	bl	15264 <testPass>
   1ac3c:	e1a00004 	mov	r0, r4
   1ac40:	e59f127c 	ldr	r1, [pc, #636]	; 1aec4 <test_libString+0x91c>
   1ac44:	ebffe995 	bl	152a0 <testPrint>
   1ac48:	e59f3278 	ldr	r3, [pc, #632]	; 1aec8 <test_libString+0x920>
   1ac4c:	e59f1278 	ldr	r1, [pc, #632]	; 1aecc <test_libString+0x924>
   1ac50:	e5930000 	ldr	r0, [r3]
   1ac54:	e1d330b4 	ldrh	r3, [r3, #4]
   1ac58:	e58d0014 	str	r0, [sp, #20]
   1ac5c:	e3a02005 	mov	r2, #5
   1ac60:	e28d0014 	add	r0, sp, #20
   1ac64:	e1cd31b8 	strh	r3, [sp, #24]
   1ac68:	eb00038d 	bl	1baa4 <memcpy>
   1ac6c:	e59f1258 	ldr	r1, [pc, #600]	; 1aecc <test_libString+0x924>
   1ac70:	e1a06000 	mov	r6, r0
   1ac74:	e3a02005 	mov	r2, #5
   1ac78:	e28d0014 	add	r0, sp, #20
   1ac7c:	eb00037a 	bl	1ba6c <memcmp>
   1ac80:	e3500000 	cmp	r0, #0
   1ac84:	0a000008 	beq	1acac <test_libString+0x704>
   1ac88:	e1a00004 	mov	r0, r4
   1ac8c:	e59f118c 	ldr	r1, [pc, #396]	; 1ae20 <test_libString+0x878>
   1ac90:	ebffe978 	bl	15278 <testFail>
   1ac94:	e59f0188 	ldr	r0, [pc, #392]	; 1ae24 <test_libString+0x87c>
   1ac98:	e59f1188 	ldr	r1, [pc, #392]	; 1ae28 <test_libString+0x880>
   1ac9c:	e3a02078 	mov	r2, #120	; 0x78
   1aca0:	eb00038f 	bl	1bae4 <printf>
   1aca4:	e3a05000 	mov	r5, #0
   1aca8:	ea000008 	b	1acd0 <test_libString+0x728>
   1acac:	e1a00006 	mov	r0, r6
   1acb0:	e59f1214 	ldr	r1, [pc, #532]	; 1aecc <test_libString+0x924>
   1acb4:	e3a02005 	mov	r2, #5
   1acb8:	eb00036b 	bl	1ba6c <memcmp>
   1acbc:	e3500000 	cmp	r0, #0
   1acc0:	1afffff0 	bne	1ac88 <test_libString+0x6e0>
   1acc4:	e1a00004 	mov	r0, r4
   1acc8:	e59f1150 	ldr	r1, [pc, #336]	; 1ae20 <test_libString+0x878>
   1accc:	ebffe964 	bl	15264 <testPass>
   1acd0:	e1a00004 	mov	r0, r4
   1acd4:	e59f11f4 	ldr	r1, [pc, #500]	; 1aed0 <test_libString+0x928>
   1acd8:	ebffe970 	bl	152a0 <testPrint>
   1acdc:	e59f31f0 	ldr	r3, [pc, #496]	; 1aed4 <test_libString+0x92c>
   1ace0:	e3a01062 	mov	r1, #98	; 0x62
   1ace4:	e5930000 	ldr	r0, [r3]
   1ace8:	e1d320b4 	ldrh	r2, [r3, #4]
   1acec:	e5d33006 	ldrb	r3, [r3, #6]
   1acf0:	e58d002c 	str	r0, [sp, #44]	; 0x2c
   1acf4:	e1cd23b0 	strh	r2, [sp, #48]	; 0x30
   1acf8:	e28d002c 	add	r0, sp, #44	; 0x2c
   1acfc:	e3a02006 	mov	r2, #6
   1ad00:	e5cd3032 	strb	r3, [sp, #50]	; 0x32
   1ad04:	eb00034a 	bl	1ba34 <memchr>
   1ad08:	e3a01063 	mov	r1, #99	; 0x63
   1ad0c:	e1a06000 	mov	r6, r0
   1ad10:	e3a02006 	mov	r2, #6
   1ad14:	e28d002c 	add	r0, sp, #44	; 0x2c
   1ad18:	eb000345 	bl	1ba34 <memchr>
   1ad1c:	e5d63001 	ldrb	r3, [r6, #1]
   1ad20:	e3530063 	cmp	r3, #99	; 0x63
   1ad24:	1a000002 	bne	1ad34 <test_libString+0x78c>
   1ad28:	e5d03001 	ldrb	r3, [r0, #1]
   1ad2c:	e3530064 	cmp	r3, #100	; 0x64
   1ad30:	0a000008 	beq	1ad58 <test_libString+0x7b0>
   1ad34:	e1a00004 	mov	r0, r4
   1ad38:	e59f10e0 	ldr	r1, [pc, #224]	; 1ae20 <test_libString+0x878>
   1ad3c:	ebffe94d 	bl	15278 <testFail>
   1ad40:	e59f00dc 	ldr	r0, [pc, #220]	; 1ae24 <test_libString+0x87c>
   1ad44:	e59f10dc 	ldr	r1, [pc, #220]	; 1ae28 <test_libString+0x880>
   1ad48:	e3a02080 	mov	r2, #128	; 0x80
   1ad4c:	eb000364 	bl	1bae4 <printf>
   1ad50:	e3a05000 	mov	r5, #0
   1ad54:	ea000002 	b	1ad64 <test_libString+0x7bc>
   1ad58:	e1a00004 	mov	r0, r4
   1ad5c:	e59f10bc 	ldr	r1, [pc, #188]	; 1ae20 <test_libString+0x878>
   1ad60:	ebffe93f 	bl	15264 <testPass>
   1ad64:	e1a00004 	mov	r0, r4
   1ad68:	e59f1168 	ldr	r1, [pc, #360]	; 1aed8 <test_libString+0x930>
   1ad6c:	ebffe94b 	bl	152a0 <testPrint>
   1ad70:	e59f3150 	ldr	r3, [pc, #336]	; 1aec8 <test_libString+0x920>
   1ad74:	e28d601c 	add	r6, sp, #28
   1ad78:	e5930000 	ldr	r0, [r3]
   1ad7c:	e1d330b4 	ldrh	r3, [r3, #4]
   1ad80:	e58d001c 	str	r0, [sp, #28]
   1ad84:	e3a01046 	mov	r1, #70	; 0x46
   1ad88:	e3a02003 	mov	r2, #3
   1ad8c:	e1a00006 	mov	r0, r6
   1ad90:	e1cd32b0 	strh	r3, [sp, #32]
   1ad94:	eb00034a 	bl	1bac4 <memset>
   1ad98:	e59f113c 	ldr	r1, [pc, #316]	; 1aedc <test_libString+0x934>
   1ad9c:	e1a07000 	mov	r7, r0
   1ada0:	e3a02005 	mov	r2, #5
   1ada4:	e1a00006 	mov	r0, r6
   1ada8:	eb00032f 	bl	1ba6c <memcmp>
   1adac:	e3500000 	cmp	r0, #0
   1adb0:	e59f1068 	ldr	r1, [pc, #104]	; 1ae20 <test_libString+0x878>
   1adb4:	e1a00004 	mov	r0, r4
   1adb8:	1a000001 	bne	1adc4 <test_libString+0x81c>
   1adbc:	e1570006 	cmp	r7, r6
   1adc0:	0a000005 	beq	1addc <test_libString+0x834>
   1adc4:	ebffe92b 	bl	15278 <testFail>
   1adc8:	e59f1058 	ldr	r1, [pc, #88]	; 1ae28 <test_libString+0x880>
   1adcc:	e3a02087 	mov	r2, #135	; 0x87
   1add0:	e59f004c 	ldr	r0, [pc, #76]	; 1ae24 <test_libString+0x87c>
   1add4:	eb000342 	bl	1bae4 <printf>
   1add8:	ea000006 	b	1adf8 <test_libString+0x850>
   1addc:	ebffe920 	bl	15264 <testPass>
   1ade0:	e3550000 	cmp	r5, #0
   1ade4:	0a000003 	beq	1adf8 <test_libString+0x850>
   1ade8:	e3a00001 	mov	r0, #1
   1adec:	e59f102c 	ldr	r1, [pc, #44]	; 1ae20 <test_libString+0x878>
   1adf0:	ebffe91b 	bl	15264 <testPass>
   1adf4:	ea000002 	b	1ae04 <test_libString+0x85c>
   1adf8:	e3a00001 	mov	r0, #1
   1adfc:	e59f101c 	ldr	r1, [pc, #28]	; 1ae20 <test_libString+0x878>
   1ae00:	ebffe91c 	bl	15278 <testFail>
   1ae04:	e3a00001 	mov	r0, #1
   1ae08:	e28dd044 	add	sp, sp, #68	; 0x44
   1ae0c:	e8bd80f0 	pop	{r4, r5, r6, r7, pc}
   1ae10:	0001fb31 	.word	0x0001fb31
   1ae14:	0001f91d 	.word	0x0001f91d
   1ae18:	0001f931 	.word	0x0001f931
   1ae1c:	0001f935 	.word	0x0001f935
   1ae20:	0001d661 	.word	0x0001d661
   1ae24:	0001e177 	.word	0x0001e177
   1ae28:	0001f939 	.word	0x0001f939
   1ae2c:	0001f952 	.word	0x0001f952
   1ae30:	0001f956 	.word	0x0001f956
   1ae34:	0001f5a4 	.word	0x0001f5a4
   1ae38:	0001f95a 	.word	0x0001f95a
   1ae3c:	0001f95e 	.word	0x0001f95e
   1ae40:	0001f962 	.word	0x0001f962
   1ae44:	0001f966 	.word	0x0001f966
   1ae48:	0001f96a 	.word	0x0001f96a
   1ae4c:	0001f96e 	.word	0x0001f96e
   1ae50:	0001f7e0 	.word	0x0001f7e0
   1ae54:	0001f972 	.word	0x0001f972
   1ae58:	0001fb38 	.word	0x0001fb38
   1ae5c:	0001f980 	.word	0x0001f980
   1ae60:	0001f986 	.word	0x0001f986
   1ae64:	0001f98c 	.word	0x0001f98c
   1ae68:	0001f916 	.word	0x0001f916
   1ae6c:	0001f9be 	.word	0x0001f9be
   1ae70:	0078797a 	.word	0x0078797a
   1ae74:	0001f9d4 	.word	0x0001f9d4
   1ae78:	0001f9d7 	.word	0x0001f9d7
   1ae7c:	0001f9dc 	.word	0x0001f9dc
   1ae80:	0001f9f3 	.word	0x0001f9f3
   1ae84:	0001fa0e 	.word	0x0001fa0e
   1ae88:	0001fa2d 	.word	0x0001fa2d
   1ae8c:	0001fa46 	.word	0x0001fa46
   1ae90:	0001fa5e 	.word	0x0001fa5e
   1ae94:	0001fa7a 	.word	0x0001fa7a
   1ae98:	0001fa9a 	.word	0x0001fa9a
   1ae9c:	0001fab4 	.word	0x0001fab4
   1aea0:	0001fb3e 	.word	0x0001fb3e
   1aea4:	0001fac2 	.word	0x0001fac2
   1aea8:	0001fac6 	.word	0x0001fac6
   1aeac:	0001fad6 	.word	0x0001fad6
   1aeb0:	0001fadc 	.word	0x0001fadc
   1aeb4:	0001f0a1 	.word	0x0001f0a1
   1aeb8:	0001faee 	.word	0x0001faee
   1aebc:	0001faf2 	.word	0x0001faf2
   1aec0:	0001f456 	.word	0x0001f456
   1aec4:	0001faf6 	.word	0x0001faf6
   1aec8:	0001fb47 	.word	0x0001fb47
   1aecc:	0001fb02 	.word	0x0001fb02
   1aed0:	0001fb08 	.word	0x0001fb08
   1aed4:	0001fb4d 	.word	0x0001fb4d
   1aed8:	0001fb20 	.word	0x0001fb20
   1aedc:	0001fb2b 	.word	0x0001fb2b

0001aee0 <test_semaphore2>:
   1aee0:	e92d47f0 	push	{r4, r5, r6, r7, r8, r9, sl, lr}
   1aee4:	e59f1280 	ldr	r1, [pc, #640]	; 1b16c <test_semaphore2+0x28c>
   1aee8:	e24dd048 	sub	sp, sp, #72	; 0x48
   1aeec:	e3a06000 	mov	r6, #0
   1aef0:	e1a05000 	mov	r5, r0
   1aef4:	e5cd6013 	strb	r6, [sp, #19]
   1aef8:	ebffe8e8 	bl	152a0 <testPrint>
   1aefc:	e1a00006 	mov	r0, r6
   1af00:	ebffd89d 	bl	1117c <semcreate>
   1af04:	e3500063 	cmp	r0, #99	; 0x63
   1af08:	e1a04000 	mov	r4, r0
   1af0c:	8a000005 	bhi	1af28 <test_semaphore2+0x48>
   1af10:	e3a0300c 	mov	r3, #12
   1af14:	e0030093 	mul	r3, r3, r0
   1af18:	e59f2250 	ldr	r2, [pc, #592]	; 1b170 <test_semaphore2+0x290>
   1af1c:	e7d23003 	ldrb	r3, [r2, r3]
   1af20:	e3530001 	cmp	r3, #1
   1af24:	1a000008 	bne	1af4c <test_semaphore2+0x6c>
   1af28:	e59f1244 	ldr	r1, [pc, #580]	; 1b174 <test_semaphore2+0x294>
   1af2c:	e1a02004 	mov	r2, r4
   1af30:	e28d0014 	add	r0, sp, #20
   1af34:	eb000343 	bl	1bc48 <sprintf>
   1af38:	e1a00005 	mov	r0, r5
   1af3c:	e28d1014 	add	r1, sp, #20
   1af40:	ebffe8cc 	bl	15278 <testFail>
   1af44:	e3a06000 	mov	r6, #0
   1af48:	ea000009 	b	1af74 <test_semaphore2+0x94>
   1af4c:	e1a01006 	mov	r1, r6
   1af50:	ebffed48 	bl	16478 <test_checkSemCount>
   1af54:	e3500000 	cmp	r0, #0
   1af58:	01a06000 	moveq	r6, r0
   1af5c:	0a000004 	beq	1af74 <test_semaphore2+0x94>
   1af60:	e1a00005 	mov	r0, r5
   1af64:	e59f120c 	ldr	r1, [pc, #524]	; 1b178 <test_semaphore2+0x298>
   1af68:	ebffe8bd 	bl	15264 <testPass>
   1af6c:	e3a06001 	mov	r6, #1
   1af70:	eaffffff 	b	1af74 <test_semaphore2+0x94>
   1af74:	e28d7013 	add	r7, sp, #19
   1af78:	e3a09003 	mov	r9, #3
   1af7c:	e3a0a001 	mov	sl, #1
   1af80:	e3a02020 	mov	r2, #32
   1af84:	e59f31f0 	ldr	r3, [pc, #496]	; 1b17c <test_semaphore2+0x29c>
   1af88:	e58d700c 	str	r7, [sp, #12]
   1af8c:	e3a01801 	mov	r1, #65536	; 0x10000
   1af90:	e58d9000 	str	r9, [sp]
   1af94:	e58d4004 	str	r4, [sp, #4]
   1af98:	e58da008 	str	sl, [sp, #8]
   1af9c:	e59f01dc 	ldr	r0, [pc, #476]	; 1b180 <test_semaphore2+0x2a0>
   1afa0:	ebffd5dd 	bl	1071c <create>
   1afa4:	e3a01000 	mov	r1, #0
   1afa8:	e1a08000 	mov	r8, r0
   1afac:	ebffd684 	bl	109c4 <ready>
   1afb0:	e3a0201f 	mov	r2, #31
   1afb4:	e59f31c8 	ldr	r3, [pc, #456]	; 1b184 <test_semaphore2+0x2a4>
   1afb8:	e58d700c 	str	r7, [sp, #12]
   1afbc:	e3a01801 	mov	r1, #65536	; 0x10000
   1afc0:	e58d9000 	str	r9, [sp]
   1afc4:	e98d0410 	stmib	sp, {r4, sl}
   1afc8:	e59f01b0 	ldr	r0, [pc, #432]	; 1b180 <test_semaphore2+0x2a0>
   1afcc:	ebffd5d2 	bl	1071c <create>
   1afd0:	e3a01000 	mov	r1, #0
   1afd4:	e1a07000 	mov	r7, r0
   1afd8:	ebffd679 	bl	109c4 <ready>
   1afdc:	ebffd76b 	bl	10d90 <yield>
   1afe0:	e1a00005 	mov	r0, r5
   1afe4:	e59f119c 	ldr	r1, [pc, #412]	; 1b188 <test_semaphore2+0x2a8>
   1afe8:	ebffe8ac 	bl	152a0 <testPrint>
   1afec:	e1a00008 	mov	r0, r8
   1aff0:	e3a01007 	mov	r1, #7
   1aff4:	ebffed42 	bl	16504 <test_checkProcState>
   1aff8:	e3500000 	cmp	r0, #0
   1affc:	1a000001 	bne	1b008 <test_semaphore2+0x128>
   1b000:	e3a06000 	mov	r6, #0
   1b004:	ea000011 	b	1b050 <test_semaphore2+0x170>
   1b008:	e1a00007 	mov	r0, r7
   1b00c:	e3a01007 	mov	r1, #7
   1b010:	ebffed3b 	bl	16504 <test_checkProcState>
   1b014:	e3500000 	cmp	r0, #0
   1b018:	0afffff8 	beq	1b000 <test_semaphore2+0x120>
   1b01c:	e1a00004 	mov	r0, r4
   1b020:	e3e01001 	mvn	r1, #1
   1b024:	ebffed13 	bl	16478 <test_checkSemCount>
   1b028:	e3500000 	cmp	r0, #0
   1b02c:	0afffff3 	beq	1b000 <test_semaphore2+0x120>
   1b030:	e5dd0013 	ldrb	r0, [sp, #19]
   1b034:	e3a01000 	mov	r1, #0
   1b038:	ebffed4a 	bl	16568 <test_checkResult>
   1b03c:	e3500000 	cmp	r0, #0
   1b040:	0affffee 	beq	1b000 <test_semaphore2+0x120>
   1b044:	e1a00005 	mov	r0, r5
   1b048:	e59f1128 	ldr	r1, [pc, #296]	; 1b178 <test_semaphore2+0x298>
   1b04c:	ebffe884 	bl	15264 <testPass>
   1b050:	e1a00004 	mov	r0, r4
   1b054:	ebffd8a4 	bl	112ec <signal>
   1b058:	e1a00005 	mov	r0, r5
   1b05c:	e59f1128 	ldr	r1, [pc, #296]	; 1b18c <test_semaphore2+0x2ac>
   1b060:	ebffe88e 	bl	152a0 <testPrint>
   1b064:	e1a00008 	mov	r0, r8
   1b068:	e3a01002 	mov	r1, #2
   1b06c:	ebffed24 	bl	16504 <test_checkProcState>
   1b070:	e3500000 	cmp	r0, #0
   1b074:	1a000001 	bne	1b080 <test_semaphore2+0x1a0>
   1b078:	e3a06000 	mov	r6, #0
   1b07c:	ea000011 	b	1b0c8 <test_semaphore2+0x1e8>
   1b080:	e1a00007 	mov	r0, r7
   1b084:	e3a01007 	mov	r1, #7
   1b088:	ebffed1d 	bl	16504 <test_checkProcState>
   1b08c:	e3500000 	cmp	r0, #0
   1b090:	0afffff8 	beq	1b078 <test_semaphore2+0x198>
   1b094:	e1a00004 	mov	r0, r4
   1b098:	e3e01000 	mvn	r1, #0
   1b09c:	ebffecf5 	bl	16478 <test_checkSemCount>
   1b0a0:	e3500000 	cmp	r0, #0
   1b0a4:	0afffff3 	beq	1b078 <test_semaphore2+0x198>
   1b0a8:	e5dd0013 	ldrb	r0, [sp, #19]
   1b0ac:	e3a01001 	mov	r1, #1
   1b0b0:	ebffed2c 	bl	16568 <test_checkResult>
   1b0b4:	e3500000 	cmp	r0, #0
   1b0b8:	0affffee 	beq	1b078 <test_semaphore2+0x198>
   1b0bc:	e1a00005 	mov	r0, r5
   1b0c0:	e59f10b0 	ldr	r1, [pc, #176]	; 1b178 <test_semaphore2+0x298>
   1b0c4:	ebffe866 	bl	15264 <testPass>
   1b0c8:	e1a00004 	mov	r0, r4
   1b0cc:	ebffd886 	bl	112ec <signal>
   1b0d0:	e1a00005 	mov	r0, r5
   1b0d4:	e59f10b4 	ldr	r1, [pc, #180]	; 1b190 <test_semaphore2+0x2b0>
   1b0d8:	ebffe870 	bl	152a0 <testPrint>
   1b0dc:	e1a00007 	mov	r0, r7
   1b0e0:	e3a01002 	mov	r1, #2
   1b0e4:	ebffed06 	bl	16504 <test_checkProcState>
   1b0e8:	e3500000 	cmp	r0, #0
   1b0ec:	0a000012 	beq	1b13c <test_semaphore2+0x25c>
   1b0f0:	e1a00004 	mov	r0, r4
   1b0f4:	e3a01000 	mov	r1, #0
   1b0f8:	ebffecde 	bl	16478 <test_checkSemCount>
   1b0fc:	e3500000 	cmp	r0, #0
   1b100:	0a00000d 	beq	1b13c <test_semaphore2+0x25c>
   1b104:	e5dd0013 	ldrb	r0, [sp, #19]
   1b108:	e3a01002 	mov	r1, #2
   1b10c:	ebffed15 	bl	16568 <test_checkResult>
   1b110:	e3500000 	cmp	r0, #0
   1b114:	0a000008 	beq	1b13c <test_semaphore2+0x25c>
   1b118:	e1a00005 	mov	r0, r5
   1b11c:	e59f1054 	ldr	r1, [pc, #84]	; 1b178 <test_semaphore2+0x298>
   1b120:	ebffe84f 	bl	15264 <testPass>
   1b124:	e3560001 	cmp	r6, #1
   1b128:	1a000003 	bne	1b13c <test_semaphore2+0x25c>
   1b12c:	e1a00006 	mov	r0, r6
   1b130:	e59f1040 	ldr	r1, [pc, #64]	; 1b178 <test_semaphore2+0x298>
   1b134:	ebffe84a 	bl	15264 <testPass>
   1b138:	ea000002 	b	1b148 <test_semaphore2+0x268>
   1b13c:	e3a00001 	mov	r0, #1
   1b140:	e59f1030 	ldr	r1, [pc, #48]	; 1b178 <test_semaphore2+0x298>
   1b144:	ebffe84b 	bl	15278 <testFail>
   1b148:	e1a00008 	mov	r0, r8
   1b14c:	ebffd5d3 	bl	108a0 <kill>
   1b150:	e1a00007 	mov	r0, r7
   1b154:	ebffd5d1 	bl	108a0 <kill>
   1b158:	e1a00004 	mov	r0, r4
   1b15c:	ebffd82e 	bl	1121c <semfree>
   1b160:	e3a00001 	mov	r0, #1
   1b164:	e28dd048 	add	sp, sp, #72	; 0x48
   1b168:	e8bd87f0 	pop	{r4, r5, r6, r7, r8, r9, sl, pc}
   1b16c:	0001dc2c 	.word	0x0001dc2c
   1b170:	00022820 	.word	0x00022820
   1b174:	0001f59d 	.word	0x0001f59d
   1b178:	0001d661 	.word	0x0001d661
   1b17c:	0001dc41 	.word	0x0001dc41
   1b180:	00016440 	.word	0x00016440
   1b184:	0001dc4d 	.word	0x0001dc4d
   1b188:	0001dc59 	.word	0x0001dc59
   1b18c:	0001fb54 	.word	0x0001fb54
   1b190:	0001fb6d 	.word	0x0001fb6d

0001b194 <main>:
   1b194:	e92d4070 	push	{r4, r5, r6, lr}
   1b198:	e59f0114 	ldr	r0, [pc, #276]	; 1b2b4 <main+0x120>
   1b19c:	e24dd020 	sub	sp, sp, #32
   1b1a0:	e59f4110 	ldr	r4, [pc, #272]	; 1b2b8 <main+0x124>
   1b1a4:	ebffdf7a 	bl	12f94 <kprintf>
   1b1a8:	e59f010c 	ldr	r0, [pc, #268]	; 1b2bc <main+0x128>
   1b1ac:	ebffdf78 	bl	12f94 <kprintf>
   1b1b0:	e5943024 	ldr	r3, [r4, #36]	; 0x24
   1b1b4:	e5941028 	ldr	r1, [r4, #40]	; 0x28
   1b1b8:	e59f0100 	ldr	r0, [pc, #256]	; 1b2c0 <main+0x12c>
   1b1bc:	e0631001 	rsb	r1, r3, r1
   1b1c0:	ebffdf73 	bl	12f94 <kprintf>
   1b1c4:	e59f50f8 	ldr	r5, [pc, #248]	; 1b2c4 <main+0x130>
   1b1c8:	e5941024 	ldr	r1, [r4, #36]	; 0x24
   1b1cc:	e59f60f4 	ldr	r6, [pc, #244]	; 1b2c8 <main+0x134>
   1b1d0:	e0611005 	rsb	r1, r1, r5
   1b1d4:	e59f00f0 	ldr	r0, [pc, #240]	; 1b2cc <main+0x138>
   1b1d8:	ebffdf6d 	bl	12f94 <kprintf>
   1b1dc:	e0651006 	rsb	r1, r5, r6
   1b1e0:	e59f50e8 	ldr	r5, [pc, #232]	; 1b2d0 <main+0x13c>
   1b1e4:	e59f00e8 	ldr	r0, [pc, #232]	; 1b2d4 <main+0x140>
   1b1e8:	ebffdf69 	bl	12f94 <kprintf>
   1b1ec:	e5951000 	ldr	r1, [r5]
   1b1f0:	e59f00e0 	ldr	r0, [pc, #224]	; 1b2d8 <main+0x144>
   1b1f4:	e0661001 	rsb	r1, r6, r1
   1b1f8:	ebffdf65 	bl	12f94 <kprintf>
   1b1fc:	e5953000 	ldr	r3, [r5]
   1b200:	e5941028 	ldr	r1, [r4, #40]	; 0x28
   1b204:	e59f00d0 	ldr	r0, [pc, #208]	; 1b2dc <main+0x148>
   1b208:	e0631001 	rsb	r1, r3, r1
   1b20c:	ebffdf60 	bl	12f94 <kprintf>
   1b210:	e59f00c8 	ldr	r0, [pc, #200]	; 1b2e0 <main+0x14c>
   1b214:	ebffdf5e 	bl	12f94 <kprintf>
   1b218:	e3a00003 	mov	r0, #3
   1b21c:	e3a01000 	mov	r1, #0
   1b220:	ebffda6a 	bl	11bd0 <open>
   1b224:	e3500001 	cmp	r0, #1
   1b228:	01a05000 	moveq	r5, r0
   1b22c:	0a000003 	beq	1b240 <main+0xac>
   1b230:	e59f00ac 	ldr	r0, [pc, #172]	; 1b2e4 <main+0x150>
   1b234:	ebffdf56 	bl	12f94 <kprintf>
   1b238:	e3a05000 	mov	r5, #0
   1b23c:	eaffffff 	b	1b240 <main+0xac>
   1b240:	e3a03000 	mov	r3, #0
   1b244:	e3a04003 	mov	r4, #3
   1b248:	ea000014 	b	1b2a0 <main+0x10c>
   1b24c:	e59f1094 	ldr	r1, [pc, #148]	; 1b2e8 <main+0x154>
   1b250:	e3a02000 	mov	r2, #0
   1b254:	e28d0010 	add	r0, sp, #16
   1b258:	eb00027a 	bl	1bc48 <sprintf>
   1b25c:	e3a01801 	mov	r1, #65536	; 0x10000
   1b260:	e3a02014 	mov	r2, #20
   1b264:	e28d3010 	add	r3, sp, #16
   1b268:	e58d4000 	str	r4, [sp]
   1b26c:	e58d4004 	str	r4, [sp, #4]
   1b270:	e58d4008 	str	r4, [sp, #8]
   1b274:	e58d400c 	str	r4, [sp, #12]
   1b278:	e59f006c 	ldr	r0, [pc, #108]	; 1b2ec <main+0x158>
   1b27c:	ebffd526 	bl	1071c <create>
   1b280:	e3a01000 	mov	r1, #0
   1b284:	ebffd5ce 	bl	109c4 <ready>
   1b288:	e3700001 	cmn	r0, #1
   1b28c:	1a000002 	bne	1b29c <main+0x108>
   1b290:	e59f0058 	ldr	r0, [pc, #88]	; 1b2f0 <main+0x15c>
   1b294:	e28d1010 	add	r1, sp, #16
   1b298:	ebffdf3d 	bl	12f94 <kprintf>
   1b29c:	e3a03001 	mov	r3, #1
   1b2a0:	e1530005 	cmp	r3, r5
   1b2a4:	3affffe8 	bcc	1b24c <main+0xb8>
   1b2a8:	e3a00000 	mov	r0, #0
   1b2ac:	e28dd020 	add	sp, sp, #32
   1b2b0:	e8bd8070 	pop	{r4, r5, r6, pc}
   1b2b4:	0001fcd2 	.word	0x0001fcd2
   1b2b8:	00020708 	.word	0x00020708
   1b2bc:	0001c7d4 	.word	0x0001c7d4
   1b2c0:	0001fd2f 	.word	0x0001fd2f
   1b2c4:	00010000 	.word	0x00010000
   1b2c8:	00025240 	.word	0x00025240
   1b2cc:	0001fd4d 	.word	0x0001fd4d
   1b2d0:	00020704 	.word	0x00020704
   1b2d4:	0001fd70 	.word	0x0001fd70
   1b2d8:	0001fd88 	.word	0x0001fd88
   1b2dc:	0001fda2 	.word	0x0001fda2
   1b2e0:	0001c7d6 	.word	0x0001c7d6
   1b2e4:	0001fdbb 	.word	0x0001fdbb
   1b2e8:	0001fde6 	.word	0x0001fde6
   1b2ec:	000136b4 	.word	0x000136b4
   1b2f0:	0001fdee 	.word	0x0001fdee

0001b2f4 <abs>:
   1b2f4:	e3500000 	cmp	r0, #0
   1b2f8:	b2600000 	rsblt	r0, r0, #0
   1b2fc:	e12fff1e 	bx	lr

0001b300 <atoi>:
   1b300:	eaffffff 	b	1b304 <atol>

0001b304 <atol>:
   1b304:	e92d4007 	push	{r0, r1, r2, lr}
   1b308:	e3a03000 	mov	r3, #0
   1b30c:	e28d2008 	add	r2, sp, #8
   1b310:	e5223004 	str	r3, [r2, #-4]!
   1b314:	e59f1008 	ldr	r1, [pc, #8]	; 1b324 <atol+0x20>
   1b318:	eb000268 	bl	1bcc0 <sscanf>
   1b31c:	e59d0004 	ldr	r0, [sp, #4]
   1b320:	e8bd800e 	pop	{r1, r2, r3, pc}
   1b324:	0001f5f8 	.word	0x0001f5f8

0001b328 <bzero>:
   1b328:	e1a02001 	mov	r2, r1
   1b32c:	e3a01000 	mov	r1, #0
   1b330:	ea0001e3 	b	1bac4 <memset>

0001b334 <_doprnt>:
   1b334:	e92d4ff0 	push	{r4, r5, r6, r7, r8, r9, sl, fp, lr}
   1b338:	e24dd06c 	sub	sp, sp, #108	; 0x6c
   1b33c:	e1a0a000 	mov	sl, r0
   1b340:	e58d2014 	str	r2, [sp, #20]
   1b344:	e58d3018 	str	r3, [sp, #24]
   1b348:	e1a06001 	mov	r6, r1
   1b34c:	e3a05000 	mov	r5, #0
   1b350:	ea000145 	b	1b86c <_doprnt+0x538>
   1b354:	e3530025 	cmp	r3, #37	; 0x25
   1b358:	1a000139 	bne	1b844 <_doprnt+0x510>
   1b35c:	e5da3001 	ldrb	r3, [sl, #1]
   1b360:	e28a0001 	add	r0, sl, #1
   1b364:	e3530025 	cmp	r3, #37	; 0x25
   1b368:	0a000134 	beq	1b840 <_doprnt+0x50c>
   1b36c:	e3a02020 	mov	r2, #32
   1b370:	e3a03000 	mov	r3, #0
   1b374:	e58d2008 	str	r2, [sp, #8]
   1b378:	e58d300c 	str	r3, [sp, #12]
   1b37c:	e1a03000 	mov	r3, r0
   1b380:	e4d01001 	ldrb	r1, [r0], #1
   1b384:	e351002d 	cmp	r1, #45	; 0x2d
   1b388:	0a000002 	beq	1b398 <_doprnt+0x64>
   1b38c:	e3510030 	cmp	r1, #48	; 0x30
   1b390:	1a000005 	bne	1b3ac <_doprnt+0x78>
   1b394:	ea000002 	b	1b3a4 <_doprnt+0x70>
   1b398:	e3a02001 	mov	r2, #1
   1b39c:	e58d200c 	str	r2, [sp, #12]
   1b3a0:	eafffff5 	b	1b37c <_doprnt+0x48>
   1b3a4:	e58d1008 	str	r1, [sp, #8]
   1b3a8:	eafffff3 	b	1b37c <_doprnt+0x48>
   1b3ac:	e351002a 	cmp	r1, #42	; 0x2a
   1b3b0:	13a09000 	movne	r9, #0
   1b3b4:	13a0c00a 	movne	ip, #10
   1b3b8:	1a00000a 	bne	1b3e8 <_doprnt+0xb4>
   1b3bc:	e5969000 	ldr	r9, [r6]
   1b3c0:	e2861004 	add	r1, r6, #4
   1b3c4:	e3590000 	cmp	r9, #0
   1b3c8:	b3a02001 	movlt	r2, #1
   1b3cc:	b58d200c 	strlt	r2, [sp, #12]
   1b3d0:	b2699000 	rsblt	r9, r9, #0
   1b3d4:	e2832001 	add	r2, r3, #1
   1b3d8:	e1a06001 	mov	r6, r1
   1b3dc:	ea000006 	b	1b3fc <_doprnt+0xc8>
   1b3e0:	e029199c 	mla	r9, ip, r9, r1
   1b3e4:	e2499030 	sub	r9, r9, #48	; 0x30
   1b3e8:	e1a02003 	mov	r2, r3
   1b3ec:	e4d31001 	ldrb	r1, [r3], #1
   1b3f0:	e2410030 	sub	r0, r1, #48	; 0x30
   1b3f4:	e3500009 	cmp	r0, #9
   1b3f8:	9afffff8 	bls	1b3e0 <_doprnt+0xac>
   1b3fc:	e59d100c 	ldr	r1, [sp, #12]
   1b400:	e59d3008 	ldr	r3, [sp, #8]
   1b404:	e3510000 	cmp	r1, #0
   1b408:	13a03020 	movne	r3, #32
   1b40c:	e58d3008 	str	r3, [sp, #8]
   1b410:	e5d23000 	ldrb	r3, [r2]
   1b414:	e353002e 	cmp	r3, #46	; 0x2e
   1b418:	13e08000 	mvnne	r8, #0
   1b41c:	1a000011 	bne	1b468 <_doprnt+0x134>
   1b420:	e5d23001 	ldrb	r3, [r2, #1]
   1b424:	e353002a 	cmp	r3, #42	; 0x2a
   1b428:	12823001 	addne	r3, r2, #1
   1b42c:	13a08000 	movne	r8, #0
   1b430:	13a0000a 	movne	r0, #10
   1b434:	1a000005 	bne	1b450 <_doprnt+0x11c>
   1b438:	e5968000 	ldr	r8, [r6]
   1b43c:	e2822002 	add	r2, r2, #2
   1b440:	e2866004 	add	r6, r6, #4
   1b444:	ea000007 	b	1b468 <_doprnt+0x134>
   1b448:	e0284890 	mla	r8, r0, r8, r4
   1b44c:	e2488030 	sub	r8, r8, #48	; 0x30
   1b450:	e1a02003 	mov	r2, r3
   1b454:	e4d34001 	ldrb	r4, [r3], #1
   1b458:	e2441030 	sub	r1, r4, #48	; 0x30
   1b45c:	e3510009 	cmp	r1, #9
   1b460:	9afffff8 	bls	1b448 <_doprnt+0x114>
   1b464:	eaffffff 	b	1b468 <_doprnt+0x134>
   1b468:	e5d23000 	ldrb	r3, [r2]
   1b46c:	e353006c 	cmp	r3, #108	; 0x6c
   1b470:	02822001 	addeq	r2, r2, #1
   1b474:	03a01003 	moveq	r1, #3
   1b478:	0a000009 	beq	1b4a4 <_doprnt+0x170>
   1b47c:	e3530068 	cmp	r3, #104	; 0x68
   1b480:	13a01002 	movne	r1, #2
   1b484:	1a000006 	bne	1b4a4 <_doprnt+0x170>
   1b488:	e5d23001 	ldrb	r3, [r2, #1]
   1b48c:	e3530068 	cmp	r3, #104	; 0x68
   1b490:	12822001 	addne	r2, r2, #1
   1b494:	13a01001 	movne	r1, #1
   1b498:	02822002 	addeq	r2, r2, #2
   1b49c:	03a01000 	moveq	r1, #0
   1b4a0:	eaffffff 	b	1b4a4 <_doprnt+0x170>
   1b4a4:	e5d23000 	ldrb	r3, [r2]
   1b4a8:	e3530064 	cmp	r3, #100	; 0x64
   1b4ac:	0a000024 	beq	1b544 <_doprnt+0x210>
   1b4b0:	8a000005 	bhi	1b4cc <_doprnt+0x198>
   1b4b4:	e3530062 	cmp	r3, #98	; 0x62
   1b4b8:	0a000034 	beq	1b590 <_doprnt+0x25c>
   1b4bc:	8a00000f 	bhi	1b500 <_doprnt+0x1cc>
   1b4c0:	e3530058 	cmp	r3, #88	; 0x58
   1b4c4:	1a0000de 	bne	1b844 <_doprnt+0x510>
   1b4c8:	ea00002d 	b	1b584 <_doprnt+0x250>
   1b4cc:	e3530073 	cmp	r3, #115	; 0x73
   1b4d0:	0a000012 	beq	1b520 <_doprnt+0x1ec>
   1b4d4:	8a000002 	bhi	1b4e4 <_doprnt+0x1b0>
   1b4d8:	e353006f 	cmp	r3, #111	; 0x6f
   1b4dc:	1a0000d8 	bne	1b844 <_doprnt+0x510>
   1b4e0:	ea00002c 	b	1b598 <_doprnt+0x264>
   1b4e4:	e3530075 	cmp	r3, #117	; 0x75
   1b4e8:	0a000002 	beq	1b4f8 <_doprnt+0x1c4>
   1b4ec:	e3530078 	cmp	r3, #120	; 0x78
   1b4f0:	1a0000d3 	bne	1b844 <_doprnt+0x510>
   1b4f4:	ea000020 	b	1b57c <_doprnt+0x248>
   1b4f8:	e3a0400a 	mov	r4, #10
   1b4fc:	ea000026 	b	1b59c <_doprnt+0x268>
   1b500:	e2863004 	add	r3, r6, #4
   1b504:	e58d3010 	str	r3, [sp, #16]
   1b508:	e5963000 	ldr	r3, [r6]
   1b50c:	e3a04000 	mov	r4, #0
   1b510:	e5cd3020 	strb	r3, [sp, #32]
   1b514:	e5cd4021 	strb	r4, [sp, #33]	; 0x21
   1b518:	e1a01004 	mov	r1, r4
   1b51c:	ea000023 	b	1b5b0 <_doprnt+0x27c>
   1b520:	e5967000 	ldr	r7, [r6]
   1b524:	e2863004 	add	r3, r6, #4
   1b528:	e3570000 	cmp	r7, #0
   1b52c:	e58d3010 	str	r3, [sp, #16]
   1b530:	0a000020 	beq	1b5b8 <_doprnt+0x284>
   1b534:	e3a04000 	mov	r4, #0
   1b538:	e1a01004 	mov	r1, r4
   1b53c:	e1a03004 	mov	r3, r4
   1b540:	ea000022 	b	1b5d0 <_doprnt+0x29c>
   1b544:	e2863004 	add	r3, r6, #4
   1b548:	e58d3010 	str	r3, [sp, #16]
   1b54c:	e5963000 	ldr	r3, [r6]
   1b550:	e3530000 	cmp	r3, #0
   1b554:	a3a01000 	movge	r1, #0
   1b558:	e58d301c 	str	r3, [sp, #28]
   1b55c:	a3a0400a 	movge	r4, #10
   1b560:	a1a03001 	movge	r3, r1
   1b564:	b2633000 	rsblt	r3, r3, #0
   1b568:	b58d301c 	strlt	r3, [sp, #28]
   1b56c:	b3a0400a 	movlt	r4, #10
   1b570:	b3a01000 	movlt	r1, #0
   1b574:	b3a0302d 	movlt	r3, #45	; 0x2d
   1b578:	ea000013 	b	1b5cc <_doprnt+0x298>
   1b57c:	e3a04010 	mov	r4, #16
   1b580:	ea000005 	b	1b59c <_doprnt+0x268>
   1b584:	e3a04010 	mov	r4, #16
   1b588:	e3a01001 	mov	r1, #1
   1b58c:	ea000003 	b	1b5a0 <_doprnt+0x26c>
   1b590:	e3a04002 	mov	r4, #2
   1b594:	ea000000 	b	1b59c <_doprnt+0x268>
   1b598:	e3a04008 	mov	r4, #8
   1b59c:	e3a01000 	mov	r1, #0
   1b5a0:	e2863004 	add	r3, r6, #4
   1b5a4:	e5966000 	ldr	r6, [r6]
   1b5a8:	e58d3010 	str	r3, [sp, #16]
   1b5ac:	e58d601c 	str	r6, [sp, #28]
   1b5b0:	e3a03000 	mov	r3, #0
   1b5b4:	ea000004 	b	1b5cc <_doprnt+0x298>
   1b5b8:	e1a04007 	mov	r4, r7
   1b5bc:	e1a01007 	mov	r1, r7
   1b5c0:	e1a03007 	mov	r3, r7
   1b5c4:	e59f72b8 	ldr	r7, [pc, #696]	; 1b884 <_doprnt+0x550>
   1b5c8:	ea000000 	b	1b5d0 <_doprnt+0x29c>
   1b5cc:	e28d7020 	add	r7, sp, #32
   1b5d0:	e3540000 	cmp	r4, #0
   1b5d4:	e282a001 	add	sl, r2, #1
   1b5d8:	0a00002d 	beq	1b694 <_doprnt+0x360>
   1b5dc:	e59fb2a4 	ldr	fp, [pc, #676]	; 1b888 <_doprnt+0x554>
   1b5e0:	e3510000 	cmp	r1, #0
   1b5e4:	e24b2010 	sub	r2, fp, #16
   1b5e8:	e59f129c 	ldr	r1, [pc, #668]	; 1b88c <_doprnt+0x558>
   1b5ec:	11a0b002 	movne	fp, r2
   1b5f0:	e3a02000 	mov	r2, #0
   1b5f4:	e5cd2044 	strb	r2, [sp, #68]	; 0x44
   1b5f8:	e0812004 	add	r2, r1, r4
   1b5fc:	e5d22020 	ldrb	r2, [r2, #32]
   1b600:	e3a06001 	mov	r6, #1
   1b604:	e3520000 	cmp	r2, #0
   1b608:	1a000011 	bne	1b654 <_doprnt+0x320>
   1b60c:	e59d201c 	ldr	r2, [sp, #28]
   1b610:	e1a00002 	mov	r0, r2
   1b614:	e1a01004 	mov	r1, r4
   1b618:	e58d3000 	str	r3, [sp]
   1b61c:	e58d2004 	str	r2, [sp, #4]
   1b620:	eb0003f7 	bl	1c604 <__aeabi_uidivmod>
   1b624:	e7db0001 	ldrb	r0, [fp, r1]
   1b628:	e28d1044 	add	r1, sp, #68	; 0x44
   1b62c:	e7c60001 	strb	r0, [r6, r1]
   1b630:	e59d2004 	ldr	r2, [sp, #4]
   1b634:	e1a01004 	mov	r1, r4
   1b638:	e1a00002 	mov	r0, r2
   1b63c:	eb0003b3 	bl	1c510 <__aeabi_uidiv>
   1b640:	e2502000 	subs	r2, r0, #0
   1b644:	e59d3000 	ldr	r3, [sp]
   1b648:	0a00000b 	beq	1b67c <_doprnt+0x348>
   1b64c:	e2866001 	add	r6, r6, #1
   1b650:	eaffffee 	b	1b610 <_doprnt+0x2dc>
   1b654:	e1a00216 	lsl	r0, r6, r2
   1b658:	e59d101c 	ldr	r1, [sp, #28]
   1b65c:	e2400001 	sub	r0, r0, #1
   1b660:	e001c000 	and	ip, r1, r0
   1b664:	e1b01231 	lsrs	r1, r1, r2
   1b668:	e7dbe00c 	ldrb	lr, [fp, ip]
   1b66c:	e28dc044 	add	ip, sp, #68	; 0x44
   1b670:	e7c6e00c 	strb	lr, [r6, ip]
   1b674:	12866001 	addne	r6, r6, #1
   1b678:	1afffff8 	bne	1b660 <_doprnt+0x32c>
   1b67c:	e1a02007 	mov	r2, r7
   1b680:	e28d1044 	add	r1, sp, #68	; 0x44
   1b684:	e7d61001 	ldrb	r1, [r6, r1]
   1b688:	e2566001 	subs	r6, r6, #1
   1b68c:	e4c21001 	strb	r1, [r2], #1
   1b690:	5afffffa 	bpl	1b680 <_doprnt+0x34c>
   1b694:	e1a00007 	mov	r0, r7
   1b698:	e58d3000 	str	r3, [sp]
   1b69c:	eb0001c4 	bl	1bdb4 <strlen>
   1b6a0:	e3580000 	cmp	r8, #0
   1b6a4:	e1a06000 	mov	r6, r0
   1b6a8:	e59d3000 	ldr	r3, [sp]
   1b6ac:	b3a04000 	movlt	r4, #0
   1b6b0:	ba000009 	blt	1b6dc <_doprnt+0x3a8>
   1b6b4:	e3540000 	cmp	r4, #0
   1b6b8:	1a000002 	bne	1b6c8 <_doprnt+0x394>
   1b6bc:	e1580000 	cmp	r8, r0
   1b6c0:	b1a06008 	movlt	r6, r8
   1b6c4:	ea000004 	b	1b6dc <_doprnt+0x3a8>
   1b6c8:	e1580000 	cmp	r8, r0
   1b6cc:	e3a02020 	mov	r2, #32
   1b6d0:	c0604008 	rsbgt	r4, r0, r8
   1b6d4:	d3a04000 	movle	r4, #0
   1b6d8:	e58d2008 	str	r2, [sp, #8]
   1b6dc:	e2938000 	adds	r8, r3, #0
   1b6e0:	13a08001 	movne	r8, #1
   1b6e4:	e0862004 	add	r2, r6, r4
   1b6e8:	e0822008 	add	r2, r2, r8
   1b6ec:	e59d100c 	ldr	r1, [sp, #12]
   1b6f0:	e1520009 	cmp	r2, r9
   1b6f4:	b0629009 	rsblt	r9, r2, r9
   1b6f8:	e2212001 	eor	r2, r1, #1
   1b6fc:	e59d1008 	ldr	r1, [sp, #8]
   1b700:	a3a09000 	movge	r9, #0
   1b704:	e3510030 	cmp	r1, #48	; 0x30
   1b708:	13a02000 	movne	r2, #0
   1b70c:	02022001 	andeq	r2, r2, #1
   1b710:	e3520000 	cmp	r2, #0
   1b714:	1a000004 	bne	1b72c <_doprnt+0x3f8>
   1b718:	e59d200c 	ldr	r2, [sp, #12]
   1b71c:	e3520000 	cmp	r2, #0
   1b720:	11a0b005 	movne	fp, r5
   1b724:	1a000013 	bne	1b778 <_doprnt+0x444>
   1b728:	ea000001 	b	1b734 <_doprnt+0x400>
   1b72c:	e1a04009 	mov	r4, r9
   1b730:	e3a09000 	mov	r9, #0
   1b734:	e1a0b005 	mov	fp, r5
   1b738:	ea00000a 	b	1b768 <_doprnt+0x434>
   1b73c:	e58d3000 	str	r3, [sp]
   1b740:	e59d0008 	ldr	r0, [sp, #8]
   1b744:	e59d1018 	ldr	r1, [sp, #24]
   1b748:	e59d2014 	ldr	r2, [sp, #20]
   1b74c:	e12fff32 	blx	r2
   1b750:	e3700002 	cmn	r0, #2
   1b754:	e59d3000 	ldr	r3, [sp]
   1b758:	1a000001 	bne	1b764 <_doprnt+0x430>
   1b75c:	e3e05001 	mvn	r5, #1
   1b760:	ea000044 	b	1b878 <_doprnt+0x544>
   1b764:	e28bb001 	add	fp, fp, #1
   1b768:	e065200b 	rsb	r2, r5, fp
   1b76c:	e1520009 	cmp	r2, r9
   1b770:	bafffff1 	blt	1b73c <_doprnt+0x408>
   1b774:	eaffffff 	b	1b778 <_doprnt+0x444>
   1b778:	e3580000 	cmp	r8, #0
   1b77c:	0a000006 	beq	1b79c <_doprnt+0x468>
   1b780:	e1a00003 	mov	r0, r3
   1b784:	e59d1018 	ldr	r1, [sp, #24]
   1b788:	e59d2014 	ldr	r2, [sp, #20]
   1b78c:	e12fff32 	blx	r2
   1b790:	e3700002 	cmn	r0, #2
   1b794:	0afffff0 	beq	1b75c <_doprnt+0x428>
   1b798:	e28bb001 	add	fp, fp, #1
   1b79c:	e1a0500b 	mov	r5, fp
   1b7a0:	ea000006 	b	1b7c0 <_doprnt+0x48c>
   1b7a4:	e3a00030 	mov	r0, #48	; 0x30
   1b7a8:	e59d1018 	ldr	r1, [sp, #24]
   1b7ac:	e59d2014 	ldr	r2, [sp, #20]
   1b7b0:	e12fff32 	blx	r2
   1b7b4:	e3700002 	cmn	r0, #2
   1b7b8:	0affffe7 	beq	1b75c <_doprnt+0x428>
   1b7bc:	e2855001 	add	r5, r5, #1
   1b7c0:	e06b3005 	rsb	r3, fp, r5
   1b7c4:	e1530004 	cmp	r3, r4
   1b7c8:	bafffff5 	blt	1b7a4 <_doprnt+0x470>
   1b7cc:	e1a04005 	mov	r4, r5
   1b7d0:	e0657007 	rsb	r7, r5, r7
   1b7d4:	ea000006 	b	1b7f4 <_doprnt+0x4c0>
   1b7d8:	e7d70005 	ldrb	r0, [r7, r5]
   1b7dc:	e59d1018 	ldr	r1, [sp, #24]
   1b7e0:	e59d2014 	ldr	r2, [sp, #20]
   1b7e4:	e12fff32 	blx	r2
   1b7e8:	e3700002 	cmn	r0, #2
   1b7ec:	0affffda 	beq	1b75c <_doprnt+0x428>
   1b7f0:	e2855001 	add	r5, r5, #1
   1b7f4:	e0643005 	rsb	r3, r4, r5
   1b7f8:	e1530006 	cmp	r3, r6
   1b7fc:	bafffff5 	blt	1b7d8 <_doprnt+0x4a4>
   1b800:	e59d300c 	ldr	r3, [sp, #12]
   1b804:	e1a04005 	mov	r4, r5
   1b808:	e3530000 	cmp	r3, #0
   1b80c:	0a000015 	beq	1b868 <_doprnt+0x534>
   1b810:	ea000006 	b	1b830 <_doprnt+0x4fc>
   1b814:	e59d0008 	ldr	r0, [sp, #8]
   1b818:	e59d1018 	ldr	r1, [sp, #24]
   1b81c:	e59d2014 	ldr	r2, [sp, #20]
   1b820:	e12fff32 	blx	r2
   1b824:	e3700002 	cmn	r0, #2
   1b828:	0affffcb 	beq	1b75c <_doprnt+0x428>
   1b82c:	e2855001 	add	r5, r5, #1
   1b830:	e0643005 	rsb	r3, r4, r5
   1b834:	e1530009 	cmp	r3, r9
   1b838:	bafffff5 	blt	1b814 <_doprnt+0x4e0>
   1b83c:	ea000009 	b	1b868 <_doprnt+0x534>
   1b840:	e1a0a000 	mov	sl, r0
   1b844:	e5da0000 	ldrb	r0, [sl]
   1b848:	e59d1018 	ldr	r1, [sp, #24]
   1b84c:	e59d2014 	ldr	r2, [sp, #20]
   1b850:	e12fff32 	blx	r2
   1b854:	e3700002 	cmn	r0, #2
   1b858:	0affffbf 	beq	1b75c <_doprnt+0x428>
   1b85c:	e2855001 	add	r5, r5, #1
   1b860:	e28aa001 	add	sl, sl, #1
   1b864:	e58d6010 	str	r6, [sp, #16]
   1b868:	e59d6010 	ldr	r6, [sp, #16]
   1b86c:	e5da3000 	ldrb	r3, [sl]
   1b870:	e3530000 	cmp	r3, #0
   1b874:	1afffeb6 	bne	1b354 <_doprnt+0x20>
   1b878:	e1a00005 	mov	r0, r5
   1b87c:	e28dd06c 	add	sp, sp, #108	; 0x6c
   1b880:	e8bd8ff0 	pop	{r4, r5, r6, r7, r8, r9, sl, fp, pc}
   1b884:	0001f397 	.word	0x0001f397
   1b888:	0001ff1b 	.word	0x0001ff1b
   1b88c:	0001ff0b 	.word	0x0001ff0b

0001b890 <fgetc>:
   1b890:	e92d4008 	push	{r3, lr}
   1b894:	ebffd8c1 	bl	11ba0 <getc>
   1b898:	e2803002 	add	r3, r0, #2
   1b89c:	e3530001 	cmp	r3, #1
   1b8a0:	86ef0070 	uxtbhi	r0, r0
   1b8a4:	93e00001 	mvnls	r0, #1
   1b8a8:	e8bd8008 	pop	{r3, pc}

0001b8ac <fgets>:
   1b8ac:	e92d40f8 	push	{r3, r4, r5, r6, r7, lr}
   1b8b0:	e1a04000 	mov	r4, r0
   1b8b4:	e1a05000 	mov	r5, r0
   1b8b8:	e1a06001 	mov	r6, r1
   1b8bc:	e1a07002 	mov	r7, r2
   1b8c0:	e3e00001 	mvn	r0, #1
   1b8c4:	ea000002 	b	1b8d4 <fgets+0x28>
   1b8c8:	e350000a 	cmp	r0, #10
   1b8cc:	e4c50001 	strb	r0, [r5], #1
   1b8d0:	0a000006 	beq	1b8f0 <fgets+0x44>
   1b8d4:	e2466001 	sub	r6, r6, #1
   1b8d8:	e3560000 	cmp	r6, #0
   1b8dc:	da000003 	ble	1b8f0 <fgets+0x44>
   1b8e0:	e1a00007 	mov	r0, r7
   1b8e4:	ebffffe9 	bl	1b890 <fgetc>
   1b8e8:	e3700002 	cmn	r0, #2
   1b8ec:	1afffff5 	bne	1b8c8 <fgets+0x1c>
   1b8f0:	e1540005 	cmp	r4, r5
   1b8f4:	03700002 	cmneq	r0, #2
   1b8f8:	13a03000 	movne	r3, #0
   1b8fc:	03a03001 	moveq	r3, #1
   1b900:	03a04000 	moveq	r4, #0
   1b904:	15c53000 	strbne	r3, [r5]
   1b908:	e1a00004 	mov	r0, r4
   1b90c:	e8bd80f8 	pop	{r3, r4, r5, r6, r7, pc}

0001b910 <fprintf>:
   1b910:	e92d000e 	push	{r1, r2, r3}
   1b914:	e92d4003 	push	{r0, r1, lr}
   1b918:	e1a03000 	mov	r3, r0
   1b91c:	e28d1010 	add	r1, sp, #16
   1b920:	e59d000c 	ldr	r0, [sp, #12]
   1b924:	e59f2010 	ldr	r2, [pc, #16]	; 1b93c <fprintf+0x2c>
   1b928:	e58d1004 	str	r1, [sp, #4]
   1b92c:	ebfffe80 	bl	1b334 <_doprnt>
   1b930:	e8bd400c 	pop	{r2, r3, lr}
   1b934:	e28dd00c 	add	sp, sp, #12
   1b938:	e12fff1e 	bx	lr
   1b93c:	0001b940 	.word	0x0001b940

0001b940 <fputc>:
   1b940:	e92d4008 	push	{r3, lr}
   1b944:	e6ef3070 	uxtb	r3, r0
   1b948:	e1a00001 	mov	r0, r1
   1b94c:	e1a01003 	mov	r1, r3
   1b950:	ebffd8c0 	bl	11c58 <putc>
   1b954:	e2803002 	add	r3, r0, #2
   1b958:	e3530001 	cmp	r3, #1
   1b95c:	86ef0070 	uxtbhi	r0, r0
   1b960:	93e00001 	mvnls	r0, #1
   1b964:	e8bd8008 	pop	{r3, pc}

0001b968 <fputs>:
   1b968:	e92d4038 	push	{r3, r4, r5, lr}
   1b96c:	e1a05001 	mov	r5, r1
   1b970:	e2404001 	sub	r4, r0, #1
   1b974:	ea000003 	b	1b988 <fputs+0x20>
   1b978:	e1a01005 	mov	r1, r5
   1b97c:	ebffffef 	bl	1b940 <fputc>
   1b980:	e3700002 	cmn	r0, #2
   1b984:	08bd8038 	popeq	{r3, r4, r5, pc}
   1b988:	e5f40001 	ldrb	r0, [r4, #1]!
   1b98c:	e3500000 	cmp	r0, #0
   1b990:	1afffff8 	bne	1b978 <fputs+0x10>
   1b994:	e8bd8038 	pop	{r3, r4, r5, pc}

0001b998 <ungetch>:
   1b998:	e3a03001 	mov	r3, #1
   1b99c:	e5c13000 	strb	r3, [r1]
   1b9a0:	e5d10001 	ldrb	r0, [r1, #1]
   1b9a4:	e12fff1e 	bx	lr

0001b9a8 <getch>:
   1b9a8:	e5d13000 	ldrb	r3, [r1]
   1b9ac:	e92d4010 	push	{r4, lr}
   1b9b0:	e3530000 	cmp	r3, #0
   1b9b4:	e1a04001 	mov	r4, r1
   1b9b8:	0a000003 	beq	1b9cc <getch+0x24>
   1b9bc:	e3a03000 	mov	r3, #0
   1b9c0:	e5c13000 	strb	r3, [r1]
   1b9c4:	e5d10001 	ldrb	r0, [r1, #1]
   1b9c8:	e8bd8010 	pop	{r4, pc}
   1b9cc:	ebffffaf 	bl	1b890 <fgetc>
   1b9d0:	e3700002 	cmn	r0, #2
   1b9d4:	15c40001 	strbne	r0, [r4, #1]
   1b9d8:	e8bd8010 	pop	{r4, pc}

0001b9dc <fscanf>:
   1b9dc:	e92d000e 	push	{r1, r2, r3}
   1b9e0:	e92d400f 	push	{r0, r1, r2, r3, lr}
   1b9e4:	e3a03000 	mov	r3, #0
   1b9e8:	e5cd3008 	strb	r3, [sp, #8]
   1b9ec:	e28d3008 	add	r3, sp, #8
   1b9f0:	e28d1018 	add	r1, sp, #24
   1b9f4:	e58d0000 	str	r0, [sp]
   1b9f8:	e58d3004 	str	r3, [sp, #4]
   1b9fc:	e59d0014 	ldr	r0, [sp, #20]
   1ba00:	e59f2018 	ldr	r2, [pc, #24]	; 1ba20 <fscanf+0x44>
   1ba04:	e59f3018 	ldr	r3, [pc, #24]	; 1ba24 <fscanf+0x48>
   1ba08:	e58d100c 	str	r1, [sp, #12]
   1ba0c:	eb000160 	bl	1bf94 <_doscan>
   1ba10:	e28dd010 	add	sp, sp, #16
   1ba14:	e49de004 	pop	{lr}		; (ldr lr, [sp], #4)
   1ba18:	e28dd00c 	add	sp, sp, #12
   1ba1c:	e12fff1e 	bx	lr
   1ba20:	0001b9a8 	.word	0x0001b9a8
   1ba24:	0001b998 	.word	0x0001b998

0001ba28 <labs>:
   1ba28:	e3500000 	cmp	r0, #0
   1ba2c:	b2600000 	rsblt	r0, r0, #0
   1ba30:	e12fff1e 	bx	lr

0001ba34 <memchr>:
   1ba34:	e92d4010 	push	{r4, lr}
   1ba38:	e6ef1071 	uxtb	r1, r1
   1ba3c:	e3a03000 	mov	r3, #0
   1ba40:	ea000004 	b	1ba58 <memchr+0x24>
   1ba44:	e7d04003 	ldrb	r4, [r0, r3]
   1ba48:	e080c003 	add	ip, r0, r3
   1ba4c:	e1540001 	cmp	r4, r1
   1ba50:	0a000003 	beq	1ba64 <memchr+0x30>
   1ba54:	e2833001 	add	r3, r3, #1
   1ba58:	e1530002 	cmp	r3, r2
   1ba5c:	1afffff8 	bne	1ba44 <memchr+0x10>
   1ba60:	e3a0c000 	mov	ip, #0
   1ba64:	e1a0000c 	mov	r0, ip
   1ba68:	e8bd8010 	pop	{r4, pc}

0001ba6c <memcmp>:
   1ba6c:	e92d4010 	push	{r4, lr}
   1ba70:	e3a03000 	mov	r3, #0
   1ba74:	ea000006 	b	1ba94 <memcmp+0x28>
   1ba78:	e7d04003 	ldrb	r4, [r0, r3]
   1ba7c:	e7d1c003 	ldrb	ip, [r1, r3]
   1ba80:	e154000c 	cmp	r4, ip
   1ba84:	0a000001 	beq	1ba90 <memcmp+0x24>
   1ba88:	e06c0004 	rsb	r0, ip, r4
   1ba8c:	e8bd8010 	pop	{r4, pc}
   1ba90:	e2833001 	add	r3, r3, #1
   1ba94:	e1530002 	cmp	r3, r2
   1ba98:	1afffff6 	bne	1ba78 <memcmp+0xc>
   1ba9c:	e3a00000 	mov	r0, #0
   1baa0:	e8bd8010 	pop	{r4, pc}

0001baa4 <memcpy>:
   1baa4:	e3a03000 	mov	r3, #0
   1baa8:	ea000002 	b	1bab8 <memcpy+0x14>
   1baac:	e7d1c003 	ldrb	ip, [r1, r3]
   1bab0:	e7c0c003 	strb	ip, [r0, r3]
   1bab4:	e2833001 	add	r3, r3, #1
   1bab8:	e1530002 	cmp	r3, r2
   1babc:	1afffffa 	bne	1baac <memcpy+0x8>
   1bac0:	e12fff1e 	bx	lr

0001bac4 <memset>:
   1bac4:	e6ef1071 	uxtb	r1, r1
   1bac8:	e3a03000 	mov	r3, #0
   1bacc:	ea000001 	b	1bad8 <memset+0x14>
   1bad0:	e7c01003 	strb	r1, [r0, r3]
   1bad4:	e2833001 	add	r3, r3, #1
   1bad8:	e1530002 	cmp	r3, r2
   1badc:	1afffffb 	bne	1bad0 <memset+0xc>
   1bae0:	e12fff1e 	bx	lr

0001bae4 <printf>:
   1bae4:	e92d000f 	push	{r0, r1, r2, r3}
   1bae8:	e92d4007 	push	{r0, r1, r2, lr}
   1baec:	e59f3030 	ldr	r3, [pc, #48]	; 1bb24 <printf+0x40>
   1baf0:	e59f2030 	ldr	r2, [pc, #48]	; 1bb28 <printf+0x44>
   1baf4:	e5933000 	ldr	r3, [r3]
   1baf8:	e3a00054 	mov	r0, #84	; 0x54
   1bafc:	e0232390 	mla	r3, r0, r3, r2
   1bb00:	e28d1014 	add	r1, sp, #20
   1bb04:	e58d1004 	str	r1, [sp, #4]
   1bb08:	e59d0010 	ldr	r0, [sp, #16]
   1bb0c:	e59f2018 	ldr	r2, [pc, #24]	; 1bb2c <printf+0x48>
   1bb10:	e5933044 	ldr	r3, [r3, #68]	; 0x44
   1bb14:	ebfffe06 	bl	1b334 <_doprnt>
   1bb18:	e8bd400e 	pop	{r1, r2, r3, lr}
   1bb1c:	e28dd010 	add	sp, sp, #16
   1bb20:	e12fff1e 	bx	lr
   1bb24:	0002281c 	.word	0x0002281c
   1bb28:	0002074c 	.word	0x0002074c
   1bb2c:	0001b940 	.word	0x0001b940

0001bb30 <qsort>:
   1bb30:	e92d47f0 	push	{r4, r5, r6, r7, r8, r9, sl, lr}
   1bb34:	e1a05000 	mov	r5, r0
   1bb38:	e1a08001 	mov	r8, r1
   1bb3c:	e1a04002 	mov	r4, r2
   1bb40:	e1a0a003 	mov	sl, r3
   1bb44:	e3580001 	cmp	r8, #1
   1bb48:	98bd87f0 	popls	{r4, r5, r6, r7, r8, r9, sl, pc}
   1bb4c:	e0275894 	mla	r7, r4, r8, r5
   1bb50:	e0856004 	add	r6, r5, r4
   1bb54:	e3a09001 	mov	r9, #1
   1bb58:	e1a00006 	mov	r0, r6
   1bb5c:	e1a01005 	mov	r1, r5
   1bb60:	e12fff3a 	blx	sl
   1bb64:	e3500000 	cmp	r0, #0
   1bb68:	d0866004 	addle	r6, r6, r4
   1bb6c:	d2899001 	addle	r9, r9, #1
   1bb70:	c0647007 	rsbgt	r7, r4, r7
   1bb74:	c3a02000 	movgt	r2, #0
   1bb78:	ca000005 	bgt	1bb94 <qsort+0x64>
   1bb7c:	ea000006 	b	1bb9c <qsort+0x6c>
   1bb80:	e7d63002 	ldrb	r3, [r6, r2]
   1bb84:	e7d71002 	ldrb	r1, [r7, r2]
   1bb88:	e7c61002 	strb	r1, [r6, r2]
   1bb8c:	e7c73002 	strb	r3, [r7, r2]
   1bb90:	e2822001 	add	r2, r2, #1
   1bb94:	e1520004 	cmp	r2, r4
   1bb98:	1afffff8 	bne	1bb80 <qsort+0x50>
   1bb9c:	e1560007 	cmp	r6, r7
   1bba0:	1affffec 	bne	1bb58 <qsort+0x28>
   1bba4:	e0646006 	rsb	r6, r4, r6
   1bba8:	e2497001 	sub	r7, r9, #1
   1bbac:	e3a02000 	mov	r2, #0
   1bbb0:	ea000004 	b	1bbc8 <qsort+0x98>
   1bbb4:	e7d63002 	ldrb	r3, [r6, r2]
   1bbb8:	e7d51002 	ldrb	r1, [r5, r2]
   1bbbc:	e7c61002 	strb	r1, [r6, r2]
   1bbc0:	e7c53002 	strb	r3, [r5, r2]
   1bbc4:	e2822001 	add	r2, r2, #1
   1bbc8:	e1520004 	cmp	r2, r4
   1bbcc:	1afffff8 	bne	1bbb4 <qsort+0x84>
   1bbd0:	e1a00005 	mov	r0, r5
   1bbd4:	e1a01007 	mov	r1, r7
   1bbd8:	e1a02004 	mov	r2, r4
   1bbdc:	e1a0300a 	mov	r3, sl
   1bbe0:	e1e07007 	mvn	r7, r7
   1bbe4:	ebffffd1 	bl	1bb30 <qsort>
   1bbe8:	e0255994 	mla	r5, r4, r9, r5
   1bbec:	e0888007 	add	r8, r8, r7
   1bbf0:	eaffffd3 	b	1bb44 <qsort+0x14>

0001bbf4 <srand>:
   1bbf4:	e59f3004 	ldr	r3, [pc, #4]	; 1bc00 <srand+0xc>
   1bbf8:	e5830000 	str	r0, [r3]
   1bbfc:	e12fff1e 	bx	lr
   1bc00:	00020664 	.word	0x00020664

0001bc04 <rand>:
   1bc04:	e59f3020 	ldr	r3, [pc, #32]	; 1bc2c <rand+0x28>
   1bc08:	e59f0020 	ldr	r0, [pc, #32]	; 1bc30 <rand+0x2c>
   1bc0c:	e5932000 	ldr	r2, [r3]
   1bc10:	e0000290 	mul	r0, r0, r2
   1bc14:	e2800a03 	add	r0, r0, #12288	; 0x3000
   1bc18:	e2800039 	add	r0, r0, #57	; 0x39
   1bc1c:	e5830000 	str	r0, [r3]
   1bc20:	e1a00080 	lsl	r0, r0, #1
   1bc24:	e1a008a0 	lsr	r0, r0, #17
   1bc28:	e12fff1e 	bx	lr
   1bc2c:	00020664 	.word	0x00020664
   1bc30:	41c64e6d 	.word	0x41c64e6d

0001bc34 <sprntf>:
   1bc34:	e5913000 	ldr	r3, [r1]
   1bc38:	e4c30001 	strb	r0, [r3], #1
   1bc3c:	e5813000 	str	r3, [r1]
   1bc40:	e6ef0070 	uxtb	r0, r0
   1bc44:	e12fff1e 	bx	lr

0001bc48 <sprintf>:
   1bc48:	e92d000e 	push	{r1, r2, r3}
   1bc4c:	e92d4017 	push	{r0, r1, r2, r4, lr}
   1bc50:	e1a04000 	mov	r4, r0
   1bc54:	e58d0004 	str	r0, [sp, #4]
   1bc58:	e28d1018 	add	r1, sp, #24
   1bc5c:	e28d3004 	add	r3, sp, #4
   1bc60:	e59d0014 	ldr	r0, [sp, #20]
   1bc64:	e59f2024 	ldr	r2, [pc, #36]	; 1bc90 <sprintf+0x48>
   1bc68:	e58d1000 	str	r1, [sp]
   1bc6c:	ebfffdb0 	bl	1b334 <_doprnt>
   1bc70:	e59d3004 	ldr	r3, [sp, #4]
   1bc74:	e3a02000 	mov	r2, #0
   1bc78:	e5c32000 	strb	r2, [r3]
   1bc7c:	e59d0004 	ldr	r0, [sp, #4]
   1bc80:	e0640000 	rsb	r0, r4, r0
   1bc84:	e8bd401e 	pop	{r1, r2, r3, r4, lr}
   1bc88:	e28dd00c 	add	sp, sp, #12
   1bc8c:	e12fff1e 	bx	lr
   1bc90:	0001bc34 	.word	0x0001bc34

0001bc94 <sgetch>:
   1bc94:	e5913000 	ldr	r3, [r1]
   1bc98:	e5d30000 	ldrb	r0, [r3]
   1bc9c:	e3500000 	cmp	r0, #0
   1bca0:	12833001 	addne	r3, r3, #1
   1bca4:	15813000 	strne	r3, [r1]
   1bca8:	03e00001 	mvneq	r0, #1
   1bcac:	e12fff1e 	bx	lr

0001bcb0 <sungetch>:
   1bcb0:	e5913000 	ldr	r3, [r1]
   1bcb4:	e5730001 	ldrb	r0, [r3, #-1]!
   1bcb8:	e5813000 	str	r3, [r1]
   1bcbc:	e12fff1e 	bx	lr

0001bcc0 <sscanf>:
   1bcc0:	e92d000e 	push	{r1, r2, r3}
   1bcc4:	e92d403f 	push	{r0, r1, r2, r3, r4, r5, lr}
   1bcc8:	e3a03000 	mov	r3, #0
   1bccc:	e58d3000 	str	r3, [sp]
   1bcd0:	e28d300c 	add	r3, sp, #12
   1bcd4:	e58d000c 	str	r0, [sp, #12]
   1bcd8:	e28d1020 	add	r1, sp, #32
   1bcdc:	e58d3004 	str	r3, [sp, #4]
   1bce0:	e59d001c 	ldr	r0, [sp, #28]
   1bce4:	e59f2018 	ldr	r2, [pc, #24]	; 1bd04 <sscanf+0x44>
   1bce8:	e59f3018 	ldr	r3, [pc, #24]	; 1bd08 <sscanf+0x48>
   1bcec:	e58d1014 	str	r1, [sp, #20]
   1bcf0:	eb0000a7 	bl	1bf94 <_doscan>
   1bcf4:	e28dd018 	add	sp, sp, #24
   1bcf8:	e49de004 	pop	{lr}		; (ldr lr, [sp], #4)
   1bcfc:	e28dd00c 	add	sp, sp, #12
   1bd00:	e12fff1e 	bx	lr
   1bd04:	0001bc94 	.word	0x0001bc94
   1bd08:	0001bcb0 	.word	0x0001bcb0

0001bd0c <strchr>:
   1bd0c:	e6ef1071 	uxtb	r1, r1
   1bd10:	e5d02000 	ldrb	r2, [r0]
   1bd14:	e1a03000 	mov	r3, r0
   1bd18:	e1520001 	cmp	r2, r1
   1bd1c:	e2800001 	add	r0, r0, #1
   1bd20:	0a000002 	beq	1bd30 <strchr+0x24>
   1bd24:	e3520000 	cmp	r2, #0
   1bd28:	1afffff8 	bne	1bd10 <strchr+0x4>
   1bd2c:	e1a03002 	mov	r3, r2
   1bd30:	e1a00003 	mov	r0, r3
   1bd34:	e12fff1e 	bx	lr

0001bd38 <strcmp>:
   1bd38:	e3a02000 	mov	r2, #0
   1bd3c:	e7d03002 	ldrb	r3, [r0, r2]
   1bd40:	e7d1c002 	ldrb	ip, [r1, r2]
   1bd44:	e153000c 	cmp	r3, ip
   1bd48:	1a000003 	bne	1bd5c <strcmp+0x24>
   1bd4c:	e3530000 	cmp	r3, #0
   1bd50:	e2822001 	add	r2, r2, #1
   1bd54:	1afffff8 	bne	1bd3c <strcmp+0x4>
   1bd58:	e1a0c003 	mov	ip, r3
   1bd5c:	e06c0003 	rsb	r0, ip, r3
   1bd60:	e12fff1e 	bx	lr

0001bd64 <strlcpy>:
   1bd64:	e92d40f8 	push	{r3, r4, r5, r6, r7, lr}
   1bd68:	e1a04000 	mov	r4, r0
   1bd6c:	e1a00001 	mov	r0, r1
   1bd70:	e1a06002 	mov	r6, r2
   1bd74:	e1a07001 	mov	r7, r1
   1bd78:	eb00000d 	bl	1bdb4 <strlen>
   1bd7c:	e3560000 	cmp	r6, #0
   1bd80:	e1a05000 	mov	r5, r0
   1bd84:	0a000008 	beq	1bdac <strlcpy+0x48>
   1bd88:	e2466001 	sub	r6, r6, #1
   1bd8c:	e1500006 	cmp	r0, r6
   1bd90:	31a06000 	movcc	r6, r0
   1bd94:	e1a01007 	mov	r1, r7
   1bd98:	e1a00004 	mov	r0, r4
   1bd9c:	e1a02006 	mov	r2, r6
   1bda0:	ebffff3f 	bl	1baa4 <memcpy>
   1bda4:	e3a03000 	mov	r3, #0
   1bda8:	e7c43006 	strb	r3, [r4, r6]
   1bdac:	e1a00005 	mov	r0, r5
   1bdb0:	e8bd80f8 	pop	{r3, r4, r5, r6, r7, pc}

0001bdb4 <strlen>:
   1bdb4:	e3a03000 	mov	r3, #0
   1bdb8:	ea000000 	b	1bdc0 <strlen+0xc>
   1bdbc:	e2833001 	add	r3, r3, #1
   1bdc0:	e7d02003 	ldrb	r2, [r0, r3]
   1bdc4:	e3520000 	cmp	r2, #0
   1bdc8:	1afffffb 	bne	1bdbc <strlen+0x8>
   1bdcc:	e1a00003 	mov	r0, r3
   1bdd0:	e12fff1e 	bx	lr

0001bdd4 <strncat>:
   1bdd4:	e92d40f8 	push	{r3, r4, r5, r6, r7, lr}
   1bdd8:	e1a06001 	mov	r6, r1
   1bddc:	e3a01000 	mov	r1, #0
   1bde0:	e1a05000 	mov	r5, r0
   1bde4:	e1a07002 	mov	r7, r2
   1bde8:	ebffffc7 	bl	1bd0c <strchr>
   1bdec:	e3a03000 	mov	r3, #0
   1bdf0:	ea000001 	b	1bdfc <strncat+0x28>
   1bdf4:	e7c04003 	strb	r4, [r0, r3]
   1bdf8:	e2833001 	add	r3, r3, #1
   1bdfc:	e1530007 	cmp	r3, r7
   1be00:	0a000002 	beq	1be10 <strncat+0x3c>
   1be04:	e7d64003 	ldrb	r4, [r6, r3]
   1be08:	e3540000 	cmp	r4, #0
   1be0c:	1afffff8 	bne	1bdf4 <strncat+0x20>
   1be10:	e3a02000 	mov	r2, #0
   1be14:	e7c02003 	strb	r2, [r0, r3]
   1be18:	e1a00005 	mov	r0, r5
   1be1c:	e8bd80f8 	pop	{r3, r4, r5, r6, r7, pc}

0001be20 <strncmp>:
   1be20:	e92d4010 	push	{r4, lr}
   1be24:	e3a03000 	mov	r3, #0
   1be28:	ea000009 	b	1be54 <strncmp+0x34>
   1be2c:	e7d0c003 	ldrb	ip, [r0, r3]
   1be30:	e35c0000 	cmp	ip, #0
   1be34:	0a000002 	beq	1be44 <strncmp+0x24>
   1be38:	e7d14003 	ldrb	r4, [r1, r3]
   1be3c:	e154000c 	cmp	r4, ip
   1be40:	0a000002 	beq	1be50 <strncmp+0x30>
   1be44:	e7d10003 	ldrb	r0, [r1, r3]
   1be48:	e060000c 	rsb	r0, r0, ip
   1be4c:	e8bd8010 	pop	{r4, pc}
   1be50:	e2833001 	add	r3, r3, #1
   1be54:	e1530002 	cmp	r3, r2
   1be58:	1afffff3 	bne	1be2c <strncmp+0xc>
   1be5c:	e3a00000 	mov	r0, #0
   1be60:	e8bd8010 	pop	{r4, pc}

0001be64 <strncpy>:
   1be64:	e3a03000 	mov	r3, #0
   1be68:	ea000001 	b	1be74 <strncpy+0x10>
   1be6c:	e7c0c003 	strb	ip, [r0, r3]
   1be70:	e2833001 	add	r3, r3, #1
   1be74:	e7d1c003 	ldrb	ip, [r1, r3]
   1be78:	e35c0000 	cmp	ip, #0
   1be7c:	0a000004 	beq	1be94 <strncpy+0x30>
   1be80:	e1530002 	cmp	r3, r2
   1be84:	1afffff8 	bne	1be6c <strncpy+0x8>
   1be88:	e12fff1e 	bx	lr
   1be8c:	e7c0c003 	strb	ip, [r0, r3]
   1be90:	e2833001 	add	r3, r3, #1
   1be94:	e1530002 	cmp	r3, r2
   1be98:	3afffffb 	bcc	1be8c <strncpy+0x28>
   1be9c:	e12fff1e 	bx	lr

0001bea0 <strnlen>:
   1bea0:	e3a03000 	mov	r3, #0
   1bea4:	ea000000 	b	1beac <strnlen+0xc>
   1bea8:	e2833001 	add	r3, r3, #1
   1beac:	e7d02003 	ldrb	r2, [r0, r3]
   1beb0:	e3520000 	cmp	r2, #0
   1beb4:	0a000001 	beq	1bec0 <strnlen+0x20>
   1beb8:	e1530001 	cmp	r3, r1
   1bebc:	1afffff9 	bne	1bea8 <strnlen+0x8>
   1bec0:	e1a00003 	mov	r0, r3
   1bec4:	e12fff1e 	bx	lr

0001bec8 <strrchr>:
   1bec8:	e6ef1071 	uxtb	r1, r1
   1becc:	e3a03000 	mov	r3, #0
   1bed0:	e1a0c000 	mov	ip, r0
   1bed4:	e4d02001 	ldrb	r2, [r0], #1
   1bed8:	e1520001 	cmp	r2, r1
   1bedc:	01a0300c 	moveq	r3, ip
   1bee0:	e3520000 	cmp	r2, #0
   1bee4:	1afffff9 	bne	1bed0 <strrchr+0x8>
   1bee8:	e1a00003 	mov	r0, r3
   1beec:	e12fff1e 	bx	lr

0001bef0 <strstr>:
   1bef0:	e92d40f8 	push	{r3, r4, r5, r6, r7, lr}
   1bef4:	e1a06000 	mov	r6, r0
   1bef8:	e1a00001 	mov	r0, r1
   1befc:	e1a05001 	mov	r5, r1
   1bf00:	ebffffab 	bl	1bdb4 <strlen>
   1bf04:	e1a07000 	mov	r7, r0
   1bf08:	ea000005 	b	1bf24 <strstr+0x34>
   1bf0c:	e1a00004 	mov	r0, r4
   1bf10:	e1a01005 	mov	r1, r5
   1bf14:	e1a02007 	mov	r2, r7
   1bf18:	ebffffc0 	bl	1be20 <strncmp>
   1bf1c:	e3500000 	cmp	r0, #0
   1bf20:	0a000005 	beq	1bf3c <strstr+0x4c>
   1bf24:	e1a04006 	mov	r4, r6
   1bf28:	e5d43000 	ldrb	r3, [r4]
   1bf2c:	e2866001 	add	r6, r6, #1
   1bf30:	e3530000 	cmp	r3, #0
   1bf34:	1afffff4 	bne	1bf0c <strstr+0x1c>
   1bf38:	e1a04003 	mov	r4, r3
   1bf3c:	e1a00004 	mov	r0, r4
   1bf40:	e8bd80f8 	pop	{r3, r4, r5, r6, r7, pc}

0001bf44 <malloc>:
   1bf44:	e3500000 	cmp	r0, #0
   1bf48:	e92d4010 	push	{r4, lr}
   1bf4c:	1a000001 	bne	1bf58 <malloc+0x14>
   1bf50:	e3a00000 	mov	r0, #0
   1bf54:	e8bd8010 	pop	{r4, pc}
   1bf58:	e2804008 	add	r4, r0, #8
   1bf5c:	e1a00004 	mov	r0, r4
   1bf60:	ebffd54e 	bl	114a0 <memget>
   1bf64:	e3700001 	cmn	r0, #1
   1bf68:	0afffff8 	beq	1bf50 <malloc+0xc>
   1bf6c:	e8800011 	stm	r0, {r0, r4}
   1bf70:	e2800008 	add	r0, r0, #8
   1bf74:	e8bd8010 	pop	{r4, pc}

0001bf78 <free>:
   1bf78:	e1a03000 	mov	r3, r0
   1bf7c:	e1a02000 	mov	r2, r0
   1bf80:	e5330008 	ldr	r0, [r3, #-8]!
   1bf84:	e1500003 	cmp	r0, r3
   1bf88:	112fff1e 	bxne	lr
   1bf8c:	e5121004 	ldr	r1, [r2, #-4]
   1bf90:	eaffd567 	b	11534 <memfree>

0001bf94 <_doscan>:
   1bf94:	e92d4ff0 	push	{r4, r5, r6, r7, r8, r9, sl, fp, lr}
   1bf98:	e24ddf49 	sub	sp, sp, #292	; 0x124
   1bf9c:	e58d200c 	str	r2, [sp, #12]
   1bfa0:	e58d3014 	str	r3, [sp, #20]
   1bfa4:	e59d7148 	ldr	r7, [sp, #328]	; 0x148
   1bfa8:	e59d814c 	ldr	r8, [sp, #332]	; 0x14c
   1bfac:	e58d1018 	str	r1, [sp, #24]
   1bfb0:	e1a04000 	mov	r4, r0
   1bfb4:	e3a0a000 	mov	sl, #0
   1bfb8:	e59f954c 	ldr	r9, [pc, #1356]	; 1c50c <_doscan+0x578>
   1bfbc:	ea000148 	b	1c4e4 <_doscan+0x550>
   1bfc0:	e3530025 	cmp	r3, #37	; 0x25
   1bfc4:	1a00011c 	bne	1c43c <_doscan+0x4a8>
   1bfc8:	e5d43001 	ldrb	r3, [r4, #1]
   1bfcc:	e2842001 	add	r2, r4, #1
   1bfd0:	e3530025 	cmp	r3, #37	; 0x25
   1bfd4:	0a000117 	beq	1c438 <_doscan+0x4a4>
   1bfd8:	e353002a 	cmp	r3, #42	; 0x2a
   1bfdc:	159d3018 	ldrne	r3, [sp, #24]
   1bfe0:	03a03000 	moveq	r3, #0
   1bfe4:	15933000 	ldrne	r3, [r3]
   1bfe8:	02842002 	addeq	r2, r4, #2
   1bfec:	158d3008 	strne	r3, [sp, #8]
   1bff0:	159d3018 	ldrne	r3, [sp, #24]
   1bff4:	058d3008 	streq	r3, [sp, #8]
   1bff8:	12833004 	addne	r3, r3, #4
   1bffc:	158d3018 	strne	r3, [sp, #24]
   1c000:	e3a05000 	mov	r5, #0
   1c004:	e3a0c00a 	mov	ip, #10
   1c008:	ea000001 	b	1c014 <_doscan+0x80>
   1c00c:	e025159c 	mla	r5, ip, r5, r1
   1c010:	e2455030 	sub	r5, r5, #48	; 0x30
   1c014:	e5d21000 	ldrb	r1, [r2]
   1c018:	e1a03002 	mov	r3, r2
   1c01c:	e7d90001 	ldrb	r0, [r9, r1]
   1c020:	e2822001 	add	r2, r2, #1
   1c024:	e2000004 	and	r0, r0, #4
   1c028:	e6ef0070 	uxtb	r0, r0
   1c02c:	e3500000 	cmp	r0, #0
   1c030:	1afffff5 	bne	1c00c <_doscan+0x78>
   1c034:	e3550000 	cmp	r5, #0
   1c038:	03e05000 	mvneq	r5, #0
   1c03c:	e351006c 	cmp	r1, #108	; 0x6c
   1c040:	03a00002 	moveq	r0, #2
   1c044:	01a03002 	moveq	r3, r2
   1c048:	058d0010 	streq	r0, [sp, #16]
   1c04c:	0a000004 	beq	1c064 <_doscan+0xd0>
   1c050:	e3510068 	cmp	r1, #104	; 0x68
   1c054:	03a01000 	moveq	r1, #0
   1c058:	13a01001 	movne	r1, #1
   1c05c:	01a03002 	moveq	r3, r2
   1c060:	e58d1010 	str	r1, [sp, #16]
   1c064:	e1a04003 	mov	r4, r3
   1c068:	e4d46001 	ldrb	r6, [r4], #1
   1c06c:	e356005b 	cmp	r6, #91	; 0x5b
   1c070:	1a00001b 	bne	1c0e4 <_doscan+0x150>
   1c074:	e5d32001 	ldrb	r2, [r3, #1]
   1c078:	e28d0020 	add	r0, sp, #32
   1c07c:	e352005e 	cmp	r2, #94	; 0x5e
   1c080:	03a0b000 	moveq	fp, #0
   1c084:	13a0b001 	movne	fp, #1
   1c088:	e1a0100b 	mov	r1, fp
   1c08c:	02834002 	addeq	r4, r3, #2
   1c090:	e3a02c01 	mov	r2, #256	; 0x100
   1c094:	ebfffe8a 	bl	1bac4 <memset>
   1c098:	e22bb001 	eor	fp, fp, #1
   1c09c:	e1a03004 	mov	r3, r4
   1c0a0:	e3a01001 	mov	r1, #1
   1c0a4:	e1a04003 	mov	r4, r3
   1c0a8:	e4d32001 	ldrb	r2, [r3], #1
   1c0ac:	e2211001 	eor	r1, r1, #1
   1c0b0:	e352005d 	cmp	r2, #93	; 0x5d
   1c0b4:	13a01000 	movne	r1, #0
   1c0b8:	02011001 	andeq	r1, r1, #1
   1c0bc:	e3510000 	cmp	r1, #0
   1c0c0:	1a000005 	bne	1c0dc <_doscan+0x148>
   1c0c4:	e3520000 	cmp	r2, #0
   1c0c8:	0a00000c 	beq	1c100 <_doscan+0x16c>
   1c0cc:	e28d0e12 	add	r0, sp, #288	; 0x120
   1c0d0:	e0802002 	add	r2, r0, r2
   1c0d4:	e542b100 	strb	fp, [r2, #-256]	; 0x100
   1c0d8:	eafffff1 	b	1c0a4 <_doscan+0x110>
   1c0dc:	e1a04003 	mov	r4, r3
   1c0e0:	ea000006 	b	1c100 <_doscan+0x16c>
   1c0e4:	e3560000 	cmp	r6, #0
   1c0e8:	0a000104 	beq	1c500 <_doscan+0x56c>
   1c0ec:	e7d93006 	ldrb	r3, [r9, r6]
   1c0f0:	e3130001 	tst	r3, #1
   1c0f4:	13a03002 	movne	r3, #2
   1c0f8:	12866020 	addne	r6, r6, #32
   1c0fc:	158d3010 	strne	r3, [sp, #16]
   1c100:	e6efb076 	uxtb	fp, r6
   1c104:	e35b0063 	cmp	fp, #99	; 0x63
   1c108:	135b005b 	cmpne	fp, #91	; 0x5b
   1c10c:	0a000012 	beq	1c15c <_doscan+0x1c8>
   1c110:	e1a00007 	mov	r0, r7
   1c114:	e1a01008 	mov	r1, r8
   1c118:	e59d200c 	ldr	r2, [sp, #12]
   1c11c:	e12fff32 	blx	r2
   1c120:	e3700002 	cmn	r0, #2
   1c124:	0a0000ba 	beq	1c414 <_doscan+0x480>
   1c128:	e6ef3070 	uxtb	r3, r0
   1c12c:	e7d93003 	ldrb	r3, [r9, r3]
   1c130:	e2033008 	and	r3, r3, #8
   1c134:	e6ef3073 	uxtb	r3, r3
   1c138:	e3530000 	cmp	r3, #0
   1c13c:	1afffff3 	bne	1c110 <_doscan+0x17c>
   1c140:	e35b0073 	cmp	fp, #115	; 0x73
   1c144:	1a000005 	bne	1c160 <_doscan+0x1cc>
   1c148:	e1a00007 	mov	r0, r7
   1c14c:	e1a01008 	mov	r1, r8
   1c150:	e59d3014 	ldr	r3, [sp, #20]
   1c154:	e12fff33 	blx	r3
   1c158:	ea00000f 	b	1c19c <_doscan+0x208>
   1c15c:	e3e00001 	mvn	r0, #1
   1c160:	e35b006f 	cmp	fp, #111	; 0x6f
   1c164:	0a00000a 	beq	1c194 <_doscan+0x200>
   1c168:	8a000004 	bhi	1c180 <_doscan+0x1ec>
   1c16c:	e35b005b 	cmp	fp, #91	; 0x5b
   1c170:	0a000009 	beq	1c19c <_doscan+0x208>
   1c174:	e35b0063 	cmp	fp, #99	; 0x63
   1c178:	1a00003e 	bne	1c278 <_doscan+0x2e4>
   1c17c:	ea000006 	b	1c19c <_doscan+0x208>
   1c180:	e35b0073 	cmp	fp, #115	; 0x73
   1c184:	0a000004 	beq	1c19c <_doscan+0x208>
   1c188:	e35b0078 	cmp	fp, #120	; 0x78
   1c18c:	1a000039 	bne	1c278 <_doscan+0x2e4>
   1c190:	ea00003a 	b	1c280 <_doscan+0x2ec>
   1c194:	e3a0b008 	mov	fp, #8
   1c198:	ea000039 	b	1c284 <_doscan+0x2f0>
   1c19c:	e6ef3076 	uxtb	r3, r6
   1c1a0:	e3530063 	cmp	r3, #99	; 0x63
   1c1a4:	03750001 	cmneq	r5, #1
   1c1a8:	e59d6008 	ldr	r6, [sp, #8]
   1c1ac:	03a05001 	moveq	r5, #1
   1c1b0:	e3a0b000 	mov	fp, #0
   1c1b4:	e58d3004 	str	r3, [sp, #4]
   1c1b8:	e1a00007 	mov	r0, r7
   1c1bc:	e1a01008 	mov	r1, r8
   1c1c0:	e59d200c 	ldr	r2, [sp, #12]
   1c1c4:	e12fff32 	blx	r2
   1c1c8:	e3700002 	cmn	r0, #2
   1c1cc:	e59d3004 	ldr	r3, [sp, #4]
   1c1d0:	0a00001b 	beq	1c244 <_doscan+0x2b0>
   1c1d4:	e353005b 	cmp	r3, #91	; 0x5b
   1c1d8:	1a00000c 	bne	1c210 <_doscan+0x27c>
   1c1dc:	e28d1e12 	add	r1, sp, #288	; 0x120
   1c1e0:	e0812000 	add	r2, r1, r0
   1c1e4:	e5522100 	ldrb	r2, [r2, #-256]	; 0x100
   1c1e8:	e3520000 	cmp	r2, #0
   1c1ec:	0a00000d 	beq	1c228 <_doscan+0x294>
   1c1f0:	e1a01008 	mov	r1, r8
   1c1f4:	e58d3004 	str	r3, [sp, #4]
   1c1f8:	e1a00007 	mov	r0, r7
   1c1fc:	e59d2014 	ldr	r2, [sp, #20]
   1c200:	e12fff32 	blx	r2
   1c204:	e3a01000 	mov	r1, #0
   1c208:	e59d3004 	ldr	r3, [sp, #4]
   1c20c:	ea00000d 	b	1c248 <_doscan+0x2b4>
   1c210:	e3530073 	cmp	r3, #115	; 0x73
   1c214:	06ef2070 	uxtbeq	r2, r0
   1c218:	07d92002 	ldrbeq	r2, [r9, r2]
   1c21c:	02022008 	andeq	r2, r2, #8
   1c220:	06ef2072 	uxtbeq	r2, r2
   1c224:	0affffef 	beq	1c1e8 <_doscan+0x254>
   1c228:	e3560000 	cmp	r6, #0
   1c22c:	e28bb001 	add	fp, fp, #1
   1c230:	14c60001 	strbne	r0, [r6], #1
   1c234:	e15b0005 	cmp	fp, r5
   1c238:	1affffdd 	bne	1c1b4 <_doscan+0x220>
   1c23c:	e3a01000 	mov	r1, #0
   1c240:	ea000000 	b	1c248 <_doscan+0x2b4>
   1c244:	e3a01001 	mov	r1, #1
   1c248:	e2532063 	subs	r2, r3, #99	; 0x63
   1c24c:	13a02001 	movne	r2, #1
   1c250:	e3560000 	cmp	r6, #0
   1c254:	13530063 	cmpne	r3, #99	; 0x63
   1c258:	13a03000 	movne	r3, #0
   1c25c:	15c63000 	strbne	r3, [r6]
   1c260:	e35b0000 	cmp	fp, #0
   1c264:	0a00006d 	beq	1c420 <_doscan+0x48c>
   1c268:	e15b0005 	cmp	fp, r5
   1c26c:	31a05002 	movcc	r5, r2
   1c270:	23825001 	orrcs	r5, r2, #1
   1c274:	ea00005f 	b	1c3f8 <_doscan+0x464>
   1c278:	e3a0b00a 	mov	fp, #10
   1c27c:	ea000000 	b	1c284 <_doscan+0x2f0>
   1c280:	e3a0b010 	mov	fp, #16
   1c284:	e250202d 	subs	r2, r0, #45	; 0x2d
   1c288:	e2723000 	rsbs	r3, r2, #0
   1c28c:	e0b33002 	adcs	r3, r3, r2
   1c290:	e1a0c003 	mov	ip, r3
   1c294:	e350002b 	cmp	r0, #43	; 0x2b
   1c298:	038cc001 	orreq	ip, ip, #1
   1c29c:	e35c0000 	cmp	ip, #0
   1c2a0:	e58d301c 	str	r3, [sp, #28]
   1c2a4:	0a000004 	beq	1c2bc <_doscan+0x328>
   1c2a8:	e1a00007 	mov	r0, r7
   1c2ac:	e1a01008 	mov	r1, r8
   1c2b0:	e59d200c 	ldr	r2, [sp, #12]
   1c2b4:	e12fff32 	blx	r2
   1c2b8:	e3a0c001 	mov	ip, #1
   1c2bc:	e28c1001 	add	r1, ip, #1
   1c2c0:	e3a06000 	mov	r6, #0
   1c2c4:	e3700002 	cmn	r0, #2
   1c2c8:	e2412001 	sub	r2, r1, #1
   1c2cc:	0a00002f 	beq	1c390 <_doscan+0x3fc>
   1c2d0:	e6ef3070 	uxtb	r3, r0
   1c2d4:	e7d90003 	ldrb	r0, [r9, r3]
   1c2d8:	e3100001 	tst	r0, #1
   1c2dc:	12833020 	addne	r3, r3, #32
   1c2e0:	e35b000a 	cmp	fp, #10
   1c2e4:	0a000009 	beq	1c310 <_doscan+0x37c>
   1c2e8:	e35b0010 	cmp	fp, #16
   1c2ec:	0a000002 	beq	1c2fc <_doscan+0x368>
   1c2f0:	e35b0008 	cmp	fp, #8
   1c2f4:	1a00000e 	bne	1c334 <_doscan+0x3a0>
   1c2f8:	ea000007 	b	1c31c <_doscan+0x388>
   1c2fc:	e2430061 	sub	r0, r3, #97	; 0x61
   1c300:	e3500005 	cmp	r0, #5
   1c304:	90836206 	addls	r6, r3, r6, lsl #4
   1c308:	92466057 	subls	r6, r6, #87	; 0x57
   1c30c:	9a000012 	bls	1c35c <_doscan+0x3c8>
   1c310:	e2430038 	sub	r0, r3, #56	; 0x38
   1c314:	e3500001 	cmp	r0, #1
   1c318:	9a000002 	bls	1c328 <_doscan+0x394>
   1c31c:	e2430030 	sub	r0, r3, #48	; 0x30
   1c320:	e3500007 	cmp	r0, #7
   1c324:	8a000002 	bhi	1c334 <_doscan+0x3a0>
   1c328:	e026369b 	mla	r6, fp, r6, r3
   1c32c:	e2466030 	sub	r6, r6, #48	; 0x30
   1c330:	ea000009 	b	1c35c <_doscan+0x3c8>
   1c334:	e1a01008 	mov	r1, r8
   1c338:	e58d2004 	str	r2, [sp, #4]
   1c33c:	e58dc000 	str	ip, [sp]
   1c340:	e1a00007 	mov	r0, r7
   1c344:	e59d3014 	ldr	r3, [sp, #20]
   1c348:	e12fff33 	blx	r3
   1c34c:	e59d2004 	ldr	r2, [sp, #4]
   1c350:	e59dc000 	ldr	ip, [sp]
   1c354:	e1a01002 	mov	r1, r2
   1c358:	ea000065 	b	1c4f4 <_doscan+0x560>
   1c35c:	e1510005 	cmp	r1, r5
   1c360:	e2812001 	add	r2, r1, #1
   1c364:	2a000062 	bcs	1c4f4 <_doscan+0x560>
   1c368:	e1a01008 	mov	r1, r8
   1c36c:	e58d2004 	str	r2, [sp, #4]
   1c370:	e58dc000 	str	ip, [sp]
   1c374:	e1a00007 	mov	r0, r7
   1c378:	e59d300c 	ldr	r3, [sp, #12]
   1c37c:	e12fff33 	blx	r3
   1c380:	e59d2004 	ldr	r2, [sp, #4]
   1c384:	e59dc000 	ldr	ip, [sp]
   1c388:	e1a01002 	mov	r1, r2
   1c38c:	eaffffcc 	b	1c2c4 <_doscan+0x330>
   1c390:	e3a01001 	mov	r1, #1
   1c394:	e59d3008 	ldr	r3, [sp, #8]
   1c398:	e3520000 	cmp	r2, #0
   1c39c:	13530000 	cmpne	r3, #0
   1c3a0:	03a05000 	moveq	r5, #0
   1c3a4:	13a05001 	movne	r5, #1
   1c3a8:	0a000012 	beq	1c3f8 <_doscan+0x464>
   1c3ac:	e22c5001 	eor	r5, ip, #1
   1c3b0:	e3520001 	cmp	r2, #1
   1c3b4:	13855001 	orrne	r5, r5, #1
   1c3b8:	e3550000 	cmp	r5, #0
   1c3bc:	0a00000d 	beq	1c3f8 <_doscan+0x464>
   1c3c0:	e59d201c 	ldr	r2, [sp, #28]
   1c3c4:	e59d3010 	ldr	r3, [sp, #16]
   1c3c8:	e3520000 	cmp	r2, #0
   1c3cc:	12666000 	rsbne	r6, r6, #0
   1c3d0:	e3530001 	cmp	r3, #1
   1c3d4:	0a000004 	beq	1c3ec <_doscan+0x458>
   1c3d8:	e3530002 	cmp	r3, #2
   1c3dc:	e59d3008 	ldr	r3, [sp, #8]
   1c3e0:	11c360b0 	strhne	r6, [r3]
   1c3e4:	1a000002 	bne	1c3f4 <_doscan+0x460>
   1c3e8:	ea000000 	b	1c3f0 <_doscan+0x45c>
   1c3ec:	e59d3008 	ldr	r3, [sp, #8]
   1c3f0:	e5836000 	str	r6, [r3]
   1c3f4:	e3a05001 	mov	r5, #1
   1c3f8:	e3550000 	cmp	r5, #0
   1c3fc:	0a000007 	beq	1c420 <_doscan+0x48c>
   1c400:	e59d3008 	ldr	r3, [sp, #8]
   1c404:	e3530000 	cmp	r3, #0
   1c408:	128aa001 	addne	sl, sl, #1
   1c40c:	e3510000 	cmp	r1, #0
   1c410:	0a000033 	beq	1c4e4 <_doscan+0x550>
   1c414:	e35a0000 	cmp	sl, #0
   1c418:	03e0a001 	mvneq	sl, #1
   1c41c:	ea000037 	b	1c500 <_doscan+0x56c>
   1c420:	e59d3008 	ldr	r3, [sp, #8]
   1c424:	e3530000 	cmp	r3, #0
   1c428:	0afffff7 	beq	1c40c <_doscan+0x478>
   1c42c:	e3510000 	cmp	r1, #0
   1c430:	0a000032 	beq	1c500 <_doscan+0x56c>
   1c434:	eafffff6 	b	1c414 <_doscan+0x480>
   1c438:	e1a04002 	mov	r4, r2
   1c43c:	e5d43000 	ldrb	r3, [r4]
   1c440:	e7d93003 	ldrb	r3, [r9, r3]
   1c444:	e2033008 	and	r3, r3, #8
   1c448:	e6ef3073 	uxtb	r3, r3
   1c44c:	e3530000 	cmp	r3, #0
   1c450:	0a000019 	beq	1c4bc <_doscan+0x528>
   1c454:	e1a00007 	mov	r0, r7
   1c458:	e1a01008 	mov	r1, r8
   1c45c:	e59d200c 	ldr	r2, [sp, #12]
   1c460:	e12fff32 	blx	r2
   1c464:	e3700002 	cmn	r0, #2
   1c468:	0affffe9 	beq	1c414 <_doscan+0x480>
   1c46c:	e6ef0070 	uxtb	r0, r0
   1c470:	e7d93000 	ldrb	r3, [r9, r0]
   1c474:	e2033008 	and	r3, r3, #8
   1c478:	e6ef3073 	uxtb	r3, r3
   1c47c:	e3530000 	cmp	r3, #0
   1c480:	1afffff3 	bne	1c454 <_doscan+0x4c0>
   1c484:	e59d3014 	ldr	r3, [sp, #20]
   1c488:	e1a00007 	mov	r0, r7
   1c48c:	e1a01008 	mov	r1, r8
   1c490:	e12fff33 	blx	r3
   1c494:	e2843001 	add	r3, r4, #1
   1c498:	e1a04003 	mov	r4, r3
   1c49c:	e5d42000 	ldrb	r2, [r4]
   1c4a0:	e2833001 	add	r3, r3, #1
   1c4a4:	e7d92002 	ldrb	r2, [r9, r2]
   1c4a8:	e2022008 	and	r2, r2, #8
   1c4ac:	e6ef2072 	uxtb	r2, r2
   1c4b0:	e3520000 	cmp	r2, #0
   1c4b4:	1afffff7 	bne	1c498 <_doscan+0x504>
   1c4b8:	ea000009 	b	1c4e4 <_doscan+0x550>
   1c4bc:	e1a00007 	mov	r0, r7
   1c4c0:	e1a01008 	mov	r1, r8
   1c4c4:	e59d200c 	ldr	r2, [sp, #12]
   1c4c8:	e12fff32 	blx	r2
   1c4cc:	e3700002 	cmn	r0, #2
   1c4d0:	0affffcf 	beq	1c414 <_doscan+0x480>
   1c4d4:	e5d43000 	ldrb	r3, [r4]
   1c4d8:	e1500003 	cmp	r0, r3
   1c4dc:	1a000007 	bne	1c500 <_doscan+0x56c>
   1c4e0:	e2844001 	add	r4, r4, #1
   1c4e4:	e5d43000 	ldrb	r3, [r4]
   1c4e8:	e3530000 	cmp	r3, #0
   1c4ec:	1afffeb3 	bne	1bfc0 <_doscan+0x2c>
   1c4f0:	ea000002 	b	1c500 <_doscan+0x56c>
   1c4f4:	e1a02001 	mov	r2, r1
   1c4f8:	e3a01000 	mov	r1, #0
   1c4fc:	eaffffa4 	b	1c394 <_doscan+0x400>
   1c500:	e1a0000a 	mov	r0, sl
   1c504:	e28ddf49 	add	sp, sp, #292	; 0x124
   1c508:	e8bd8ff0 	pop	{r4, r5, r6, r7, r8, r9, sl, fp, pc}
   1c50c:	0001fe0b 	.word	0x0001fe0b

0001c510 <__aeabi_uidiv>:
   1c510:	e2512001 	subs	r2, r1, #1
   1c514:	012fff1e 	bxeq	lr
   1c518:	3a000036 	bcc	1c5f8 <__aeabi_uidiv+0xe8>
   1c51c:	e1500001 	cmp	r0, r1
   1c520:	9a000022 	bls	1c5b0 <__aeabi_uidiv+0xa0>
   1c524:	e1110002 	tst	r1, r2
   1c528:	0a000023 	beq	1c5bc <__aeabi_uidiv+0xac>
   1c52c:	e311020e 	tst	r1, #-536870912	; 0xe0000000
   1c530:	01a01181 	lsleq	r1, r1, #3
   1c534:	03a03008 	moveq	r3, #8
   1c538:	13a03001 	movne	r3, #1
   1c53c:	e3510201 	cmp	r1, #268435456	; 0x10000000
   1c540:	31510000 	cmpcc	r1, r0
   1c544:	31a01201 	lslcc	r1, r1, #4
   1c548:	31a03203 	lslcc	r3, r3, #4
   1c54c:	3afffffa 	bcc	1c53c <__aeabi_uidiv+0x2c>
   1c550:	e3510102 	cmp	r1, #-2147483648	; 0x80000000
   1c554:	31510000 	cmpcc	r1, r0
   1c558:	31a01081 	lslcc	r1, r1, #1
   1c55c:	31a03083 	lslcc	r3, r3, #1
   1c560:	3afffffa 	bcc	1c550 <__aeabi_uidiv+0x40>
   1c564:	e3a02000 	mov	r2, #0
   1c568:	e1500001 	cmp	r0, r1
   1c56c:	20400001 	subcs	r0, r0, r1
   1c570:	21822003 	orrcs	r2, r2, r3
   1c574:	e15000a1 	cmp	r0, r1, lsr #1
   1c578:	204000a1 	subcs	r0, r0, r1, lsr #1
   1c57c:	218220a3 	orrcs	r2, r2, r3, lsr #1
   1c580:	e1500121 	cmp	r0, r1, lsr #2
   1c584:	20400121 	subcs	r0, r0, r1, lsr #2
   1c588:	21822123 	orrcs	r2, r2, r3, lsr #2
   1c58c:	e15001a1 	cmp	r0, r1, lsr #3
   1c590:	204001a1 	subcs	r0, r0, r1, lsr #3
   1c594:	218221a3 	orrcs	r2, r2, r3, lsr #3
   1c598:	e3500000 	cmp	r0, #0
   1c59c:	11b03223 	lsrsne	r3, r3, #4
   1c5a0:	11a01221 	lsrne	r1, r1, #4
   1c5a4:	1affffef 	bne	1c568 <__aeabi_uidiv+0x58>
   1c5a8:	e1a00002 	mov	r0, r2
   1c5ac:	e12fff1e 	bx	lr
   1c5b0:	03a00001 	moveq	r0, #1
   1c5b4:	13a00000 	movne	r0, #0
   1c5b8:	e12fff1e 	bx	lr
   1c5bc:	e3510801 	cmp	r1, #65536	; 0x10000
   1c5c0:	21a01821 	lsrcs	r1, r1, #16
   1c5c4:	23a02010 	movcs	r2, #16
   1c5c8:	33a02000 	movcc	r2, #0
   1c5cc:	e3510c01 	cmp	r1, #256	; 0x100
   1c5d0:	21a01421 	lsrcs	r1, r1, #8
   1c5d4:	22822008 	addcs	r2, r2, #8
   1c5d8:	e3510010 	cmp	r1, #16
   1c5dc:	21a01221 	lsrcs	r1, r1, #4
   1c5e0:	22822004 	addcs	r2, r2, #4
   1c5e4:	e3510004 	cmp	r1, #4
   1c5e8:	82822003 	addhi	r2, r2, #3
   1c5ec:	908220a1 	addls	r2, r2, r1, lsr #1
   1c5f0:	e1a00230 	lsr	r0, r0, r2
   1c5f4:	e12fff1e 	bx	lr
   1c5f8:	e3500000 	cmp	r0, #0
   1c5fc:	13e00000 	mvnne	r0, #0
   1c600:	ea000059 	b	1c76c <__aeabi_idiv0>

0001c604 <__aeabi_uidivmod>:
   1c604:	e3510000 	cmp	r1, #0
   1c608:	0afffffa 	beq	1c5f8 <__aeabi_uidiv+0xe8>
   1c60c:	e92d4003 	push	{r0, r1, lr}
   1c610:	ebffffbe 	bl	1c510 <__aeabi_uidiv>
   1c614:	e8bd4006 	pop	{r1, r2, lr}
   1c618:	e0030092 	mul	r3, r2, r0
   1c61c:	e0411003 	sub	r1, r1, r3
   1c620:	e12fff1e 	bx	lr

0001c624 <__aeabi_idiv>:
   1c624:	e3510000 	cmp	r1, #0
   1c628:	0a000043 	beq	1c73c <.divsi3_skip_div0_test+0x110>

0001c62c <.divsi3_skip_div0_test>:
   1c62c:	e020c001 	eor	ip, r0, r1
   1c630:	42611000 	rsbmi	r1, r1, #0
   1c634:	e2512001 	subs	r2, r1, #1
   1c638:	0a000027 	beq	1c6dc <.divsi3_skip_div0_test+0xb0>
   1c63c:	e1b03000 	movs	r3, r0
   1c640:	42603000 	rsbmi	r3, r0, #0
   1c644:	e1530001 	cmp	r3, r1
   1c648:	9a000026 	bls	1c6e8 <.divsi3_skip_div0_test+0xbc>
   1c64c:	e1110002 	tst	r1, r2
   1c650:	0a000028 	beq	1c6f8 <.divsi3_skip_div0_test+0xcc>
   1c654:	e311020e 	tst	r1, #-536870912	; 0xe0000000
   1c658:	01a01181 	lsleq	r1, r1, #3
   1c65c:	03a02008 	moveq	r2, #8
   1c660:	13a02001 	movne	r2, #1
   1c664:	e3510201 	cmp	r1, #268435456	; 0x10000000
   1c668:	31510003 	cmpcc	r1, r3
   1c66c:	31a01201 	lslcc	r1, r1, #4
   1c670:	31a02202 	lslcc	r2, r2, #4
   1c674:	3afffffa 	bcc	1c664 <.divsi3_skip_div0_test+0x38>
   1c678:	e3510102 	cmp	r1, #-2147483648	; 0x80000000
   1c67c:	31510003 	cmpcc	r1, r3
   1c680:	31a01081 	lslcc	r1, r1, #1
   1c684:	31a02082 	lslcc	r2, r2, #1
   1c688:	3afffffa 	bcc	1c678 <.divsi3_skip_div0_test+0x4c>
   1c68c:	e3a00000 	mov	r0, #0
   1c690:	e1530001 	cmp	r3, r1
   1c694:	20433001 	subcs	r3, r3, r1
   1c698:	21800002 	orrcs	r0, r0, r2
   1c69c:	e15300a1 	cmp	r3, r1, lsr #1
   1c6a0:	204330a1 	subcs	r3, r3, r1, lsr #1
   1c6a4:	218000a2 	orrcs	r0, r0, r2, lsr #1
   1c6a8:	e1530121 	cmp	r3, r1, lsr #2
   1c6ac:	20433121 	subcs	r3, r3, r1, lsr #2
   1c6b0:	21800122 	orrcs	r0, r0, r2, lsr #2
   1c6b4:	e15301a1 	cmp	r3, r1, lsr #3
   1c6b8:	204331a1 	subcs	r3, r3, r1, lsr #3
   1c6bc:	218001a2 	orrcs	r0, r0, r2, lsr #3
   1c6c0:	e3530000 	cmp	r3, #0
   1c6c4:	11b02222 	lsrsne	r2, r2, #4
   1c6c8:	11a01221 	lsrne	r1, r1, #4
   1c6cc:	1affffef 	bne	1c690 <.divsi3_skip_div0_test+0x64>
   1c6d0:	e35c0000 	cmp	ip, #0
   1c6d4:	42600000 	rsbmi	r0, r0, #0
   1c6d8:	e12fff1e 	bx	lr
   1c6dc:	e13c0000 	teq	ip, r0
   1c6e0:	42600000 	rsbmi	r0, r0, #0
   1c6e4:	e12fff1e 	bx	lr
   1c6e8:	33a00000 	movcc	r0, #0
   1c6ec:	01a00fcc 	asreq	r0, ip, #31
   1c6f0:	03800001 	orreq	r0, r0, #1
   1c6f4:	e12fff1e 	bx	lr
   1c6f8:	e3510801 	cmp	r1, #65536	; 0x10000
   1c6fc:	21a01821 	lsrcs	r1, r1, #16
   1c700:	23a02010 	movcs	r2, #16
   1c704:	33a02000 	movcc	r2, #0
   1c708:	e3510c01 	cmp	r1, #256	; 0x100
   1c70c:	21a01421 	lsrcs	r1, r1, #8
   1c710:	22822008 	addcs	r2, r2, #8
   1c714:	e3510010 	cmp	r1, #16
   1c718:	21a01221 	lsrcs	r1, r1, #4
   1c71c:	22822004 	addcs	r2, r2, #4
   1c720:	e3510004 	cmp	r1, #4
   1c724:	82822003 	addhi	r2, r2, #3
   1c728:	908220a1 	addls	r2, r2, r1, lsr #1
   1c72c:	e35c0000 	cmp	ip, #0
   1c730:	e1a00233 	lsr	r0, r3, r2
   1c734:	42600000 	rsbmi	r0, r0, #0
   1c738:	e12fff1e 	bx	lr
   1c73c:	e3500000 	cmp	r0, #0
   1c740:	c3e00102 	mvngt	r0, #-2147483648	; 0x80000000
   1c744:	b3a00102 	movlt	r0, #-2147483648	; 0x80000000
   1c748:	ea000007 	b	1c76c <__aeabi_idiv0>

0001c74c <__aeabi_idivmod>:
   1c74c:	e3510000 	cmp	r1, #0
   1c750:	0afffff9 	beq	1c73c <.divsi3_skip_div0_test+0x110>
   1c754:	e92d4003 	push	{r0, r1, lr}
   1c758:	ebffffb3 	bl	1c62c <.divsi3_skip_div0_test>
   1c75c:	e8bd4006 	pop	{r1, r2, lr}
   1c760:	e0030092 	mul	r3, r2, r0
   1c764:	e0411003 	sub	r1, r1, r3
   1c768:	e12fff1e 	bx	lr

0001c76c <__aeabi_idiv0>:
   1c76c:	e12fff1e 	bx	lr
   1c770:	204d5241 	.word	0x204d5241
   1c774:	73726556 	.word	0x73726556
   1c778:	6c697461 	.word	0x6c697461
   1c77c:	00425065 	.word	0x00425065
   1c780:	204d5241 	.word	0x204d5241
   1c784:	554d4551 	.word	0x554d4551
   1c788:	00          	.byte	0x00
   1c789:	74          	.byte	0x74
   1c78a:	7365      	.short	0x7365
   1c78c:	676e6974 	.word	0x676e6974
   1c790:	202e2e2e 	.word	0x202e2e2e
   1c794:	7270000a 	.word	0x7270000a
   1c798:	6c6c756e 	.word	0x6c6c756e
   1c79c:	49414d00 	.word	0x49414d00
   1c7a0:	6e69004e 	.word	0x6e69004e
   1c7a4:	64207469 	.word	0x64207469
   1c7a8:	20656e6f 	.word	0x20656e6f
   1c7ac:	000a      	.short	0x000a
   1c7ae:	0a0d      	.short	0x0a0d
   1c7b0:	6c410a0d 	.word	0x6c410a0d
   1c7b4:	7375206c 	.word	0x7375206c
   1c7b8:	70207265 	.word	0x70207265
   1c7bc:	65636f72 	.word	0x65636f72
   1c7c0:	73657373 	.word	0x73657373
   1c7c4:	76616820 	.word	0x76616820
   1c7c8:	6f632065 	.word	0x6f632065
   1c7cc:	656c706d 	.word	0x656c706d
   1c7d0:	2e646574 	.word	0x2e646574
   1c7d4:	0a0d0a0d 	.word	0x0a0d0a0d
   1c7d8:	00          	.byte	0x00
   1c7d9:	25          	.byte	0x25
   1c7da:	3830      	.short	0x3830
   1c7dc:	0020786c 	.word	0x0020786c
   1c7e0:	78323025 	.word	0x78323025
   1c7e4:	7c200020 	.word	0x7c200020
   1c7e8:	00000000 	.word	0x00000000

0001c7ec <label.3949>:
   1c7ec:	0001c87d 0001c881 4e49090a 52524554     }.........INTERR
   1c7fc:	20545055 42414e45 0a3a454c 2d2d0900     UPT ENABLE:...--
   1c80c:	2d2d2d2d 2d2d2d2d 2d2d2d2d 2d2d2d2d     ----------------
   1c81c:	2d2d2d2d 2d2d2d2d 2d2d2d2d 2d2d2d2d     ----------------
   1c82c:	2d2d2d2d 2d2d2d2d 2509000a 52202073     --------...%s  R
   1c83c:	69656365 20726576 4f464946 61655220     eceiver FIFO Rea
   1c84c:	64656863 69725420 72656767 76654c20     ched Trigger Lev
   1c85c:	000a6c65 20732509 61725420 696d736e     el...%s  Transmi
   1c86c:	72657474 46494620 6d45204f 0a797470     tter FIFO Empty.
   1c87c:	46464f00 204e4f00 3a732500 5309000a     .OFF.ON .%s:...S
   1c88c:	49544154 43495453 000a3a53 64382509     TATISTICS:...%8d
   1c89c:	61684320 74636172 20737265 7074754f      Characters Outp
   1c8ac:	000a7475 64382509 61684320 74636172     ut...%8d Charact
   1c8bc:	20737265 75706e49 09000a74 20643825     ers Input...%8d 
   1c8cc:	72616843 65746361 4f207372 72726576     Characters Overr
   1c8dc:	000a6e75 64382509 63655220 65766965     un...%8d Receive
   1c8ec:	72452072 20726f72 6e756f43 09000a74     r Error Count...
   1c8fc:	20643825 7074754f 49207475 43205152     %8d Output IRQ C
   1c90c:	746e756f 2509000a 49206438 7475706e     ount...%8d Input
   1c91c:	51524920 756f4320 000a746e 53005444      IRQ Count..DT.S
   1c92c:	30250054 253a6432 3a643230 64323025     T.%02d:%02d:%02d
   1c93c:	25732520 73252073 7325202c 2c642520      %s%s %s, %s %d,
   1c94c:	0a642520 41004800 7553004b 7961646e      %d..H.AK.Sunday
   1c95c:	6e6f4d00 00796164 73657554 00796164     .Monday.Tuesday.
   1c96c:	6e646557 61647365 68540079 64737275     Wednesday.Thursd
   1c97c:	46007961 61646972 61530079 64727574     ay.Friday.Saturd
   1c98c:	4a007961 61756e61 46007972 75726265     ay.January.Febru
   1c99c:	00797261 6372614d 70410068 006c6972     ary.March.April.
   1c9ac:	0079614d 656e754a 6c754a00 75410079     May.June.July.Au
   1c9bc:	74737567 70655300 626d6574 4f007265     gust.September.O
   1c9cc:	626f7463 4e007265 6d65766f 00726562     ctober.November.
   1c9dc:	65636544 7265626d 00000000              December....

0001c9e8 <commandtab>:
   1c9e8:	0001cc4e 00000001 00013cc8 0001cc54     N........<..T...
   1c9f8:	00000000 00013da4 0001cc59 00000001     .....=..Y.......
   1ca08:	00013ea8 0001cc9e 00000000 00013f94     .>...........?..
   1ca18:	0001cc5e 00000001 000143ac 0001cc63     ^........C..c...
   1ca28:	00000000 00014af8 0001cc6b 00000000     .....J..k.......
   1ca38:	000147d0 0001cc73 00000000 0001455c     .G..s.......\E..
   1ca48:	0001cc76 00000000 00014188 0001cc7c     v........A..|...
   1ca58:	00000001 00014254 0001cc82 00000000     ....TB..........
   1ca68:	00014fe0 0001cc87 00000001 00015104     .O...........Q..
   1ca78:	0001cc91 00000000 00014dc8 0001cc9a     .........M......
   1ca88:	00000000 00013f94 315b1b0a 6d31333b     .....?....[1;31m
   1ca98:	2d2d2d2d 2d2d2d2d 2d2d2d2d 2d2d2d2d     ----------------
   1caa8:	2d2d2d2d 2d2d2d2d 2d2d2d2d 2d2d2d2d     ----------------
   1cab8:	2d2d2d2d 200a2d2d 20202020 5f5f5f20     ------.      ___
   1cac8:	5f20205f 5f2e5f5f 2020205f 20202020     _  ___.__       
   1cad8:	20202020 20202020 20202020 20200a20                  .  
   1cae8:	20202020 2020205c 20202f5c 5f5f7c2f         \   \/  /|__
   1caf8:	5f5f207c 20205f5f 5f205f5f 2020205f     | ____  __ __   
   1cb08:	20202020 2020200a 20202020 2020205c         .       \   
   1cb18:	202f2020 7c20207c 2020202f 207c5c20       / |  |/    \| 
   1cb28:	20207c20 2020205c 0a202020 20202020      |  \      .    
   1cb38:	2f202020 20202020 7c205c20 207c2020        /     \ |  | 
   1cb48:	207c2020 20205c20 2f20207c 20202020       |  \  |  /    
   1cb58:	200a2020 20202020 5f5f2f20 205c2f5f       .      /___/\ 
   1cb68:	5f7c5c20 5f5f7c5f 20207c5f 5f5f5f2f      \|__|___|  /___
   1cb78:	20202f5f 20202020 20200a20 20202020     _/       .      
   1cb88:	20202020 5f5c2020 2020202f 20202020           \_/       
   1cb98:	202f5c20 20202020 32762020 2020302e      \/       v2.0  
   1cba8:	2d2d2d0a 2d2d2d2d 2d2d2d2d 2d2d2d2d     .---------------
   1cbb8:	2d2d2d2d 2d2d2d2d 2d2d2d2d 2d2d2d2d     ----------------
   1cbc8:	2d2d2d2d 0a2d2d2d 3b305b1b 0a6d3933     -------..[0;39m.
   1cbd8:	6c655700 656d6f63 206f7420 20656874     .Welcome to the 
   1cbe8:	646e6f77 75667265 6f77206c 20646c72     wonderful world 
   1cbf8:	5820666f 21756e69 7378000a 20240068     of Xinu!..xsh.$ 
   1cc08:	6e795300 20786174 6f727265 000a2e72     .Syntax error...
   1cc18:	203a7325 6d6d6f63 20646e61 20746f6e     %s: command not 
   1cc28:	6e756f66 43000a64 6f6e6e61 72632074     found..Cannot cr
   1cc38:	65746165 53000a2e 6c6c6568 6f6c6320     eate...Shell clo
   1cc48:	2e646573 6c63000a 00726165 65746164     sed...clear.date
   1cc58:	69786500 696b0074 6d006c6c 74736d65     .exit.kill.memst
   1cc68:	6d007461 75646d65 7000706d 65720073     at.memdump.ps.re
   1cc78:	00746573 65656c73 65740070 74007473     set.sleep.test.t
   1cc88:	73747365 65746975 72617500 61747374     estsuite.uartsta
   1cc98:	003f0074 65682d2d 2500706c 74203a73     t.?.--help.%s: t
   1cca8:	6d206f6f 20796e61 75677261 746e656d     oo many argument
   1ccb8:	55000a73 65676173 7325203a 44000a0a     s..Usage: %s...D
   1ccc8:	72637365 69747069 0a3a6e6f 6c430900     escription:...Cl
   1ccd8:	73726165 65687420 72657420 616e696d     ears the termina
   1cce8:	000a2e6c 6974704f 3a736e6f 2d09000a     l...Options:...-
   1ccf8:	6c65682d 64200970 6c707369 74207961     -help. display t
   1cd08:	20736968 706c6568 646e6120 69786520     his help and exi
   1cd18:	1b000a74 1b4a325b 000a485b 20797254     t...[2J.[H..Try 
   1cd28:	20732527 65682d2d 2027706c 20726f66     '%s --help' for 
   1cd38:	65726f6d 666e6920 616d726f 6e6f6974     more information
   1cd48:	4409000a 6c707369 20737961 72727563     ...Displays curr
   1cd58:	20746e65 656d6974 2d09000a 6c65682d     ent time...--hel
   1cd68:	69640970 616c7073 68742079 68207369     p.display this h
   1cd78:	20706c65 20646e61 74697865 7325000a     elp and exit..%s
   1cd88:	6f74203a 6566206f 72612077 656d7567     : too few argume
   1cd98:	0a73746e 6c430900 7365736f 65687420     nts...Closes the
   1cda8:	6e695820 68732075 2e6c6c65 2509000a      Xinu shell....%
   1cdb8:	635b2073 616d6d6f 0a5d646e 72500900     s [command]...Pr
   1cdc8:	6469766f 61207365 73696c20 666f2074     ovides a list of
   1cdd8:	6d6f6320 646e616d 6f662073 68742072      commands for th
   1cde8:	68732065 2e6c6c65 4909000a 6f632066     e shell....If co
   1cdf8:	6e616d6d 73692064 6f727020 65646976     mmand is provide
   1ce08:	68202c64 20706c65 6f666e69 74616d72     d, help informat
   1ce18:	206e6f69 6c6c6977 6209000a 72702065     ion will...be pr
   1ce28:	6469766f 66206465 7420726f 73206568     ovided for the s
   1ce38:	69636570 64656966 6d6f6320 646e616d     pecified command
   1ce48:	7165203b 61766975 746e656c 7409000a     ; equivalent...t
   1ce58:	6e65206f 69726574 2720676e 6d6d6f63     o entering 'comm
   1ce68:	20646e61 65682d2d 2027706c 6f746e69     and --help' into
   1ce78:	65687420 65687320 0a2e6c6c 6f630900      the shell....co
   1ce88:	6e616d6d 6f630964 6e616d6d 616e2064     mmand.command na
   1ce98:	7420656d 6964206f 616c7073 6f662079     me to display fo
   1cea8:	68772072 20686369 000a6f74 69640909     r which to....di
   1ceb8:	616c7073 65682079 6920706c 726f666e     splay help infor
   1cec8:	6974616d 000a6e6f 203a7325 68206f6e     mation..%s: no h
   1ced8:	20706c65 69706f74 6d207363 68637461     elp topics match
   1cee8:	73252720 000a2e27 72542020 25272079      '%s'...  Try '%
   1cef8:	2d2d2073 706c6568 6f662027 6f6d2072     s --help' for mo
   1cf08:	69206572 726f666e 6974616d 0a2e6e6f     re information..
   1cf18:	73250900 6853000a 206c6c65 6d6d6f43     ..%s..Shell Comm
   1cf28:	73646e61 09000a3a 66726550 736d726f     ands:...Performs
   1cf38:	73206120 2074666f 65736572 666f2074      a soft reset of
   1cf48:	65687420 73797320 2e6d6574 7355000a      the system...Us
   1cf58:	3a656761 20732520 4c45443c 0a3e5941     age: %s <DELAY>.
   1cf68:	5309000a 7065656c 726f6620 45443c20     ...Sleep for <DE
   1cf78:	3e59414c 63657320 73646e6f 25000a2e     LAY> seconds...%
   1cf88:	6d203a73 69737369 6f20676e 61726570     s: missing opera
   1cf98:	000a646e 203a7325 61766e69 2064696c     nd..%s: invalid 
   1cfa8:	616c6564 666f2079 73252220 65732022     delay of "%s" se
   1cfb8:	646e6f63 55000a73 65676173 7325203a     conds..Usage: %s
   1cfc8:	49503c20 0a0a3e44 694b0900 20736c6c      <PID>....Kills 
   1cfd8:	68742061 64616572 6d756e20 20726562     a thread number 
   1cfe8:	2e444950 3c09000a 3e444950 20444909     PID....<PID>.ID 
   1cff8:	7420666f 61657268 6f742064 6c696b20     of thread to kil
   1d008:	25000a6c 28203a73 20296425 7265704f     l..%s: (%d) Oper
   1d018:	6f697461 6f6e206e 65702074 74696d72     ation not permit
   1d028:	0a646574 3a732500 65685320 6b206c6c     ted..%s: Shell k
   1d038:	656c6c69 25000a64 28203a73 20296425     illed..%s: (%d) 
   1d048:	73206f4e 20686375 65726874 000a6461     No such thread..

0001d058 <pstnams.3906>:
   1d058:	0001d146 0001d14c 0001d152 0001d158     F...L...R...X...
   1d068:	0001cc7c 0001d15e 0001d164 0001d16a     |...^...d...j...
   1d078:	73694409 79616c70 20612073 6c626174     .Displays a tabl
   1d088:	666f2065 6e757220 676e696e 72687420     e of running thr
   1d098:	73646165 25000a2e 25207333 7336312d     eads...%3s %-16s
   1d0a8:	73352520 73342520 73342520 30312520      %5s %4s %4s %10
   1d0b8:	2d252073 20733031 73303125 4954000a     s %-10s %10s..TI
   1d0c8:	414e0044 5300454d 45544154 49525000     D.NAME.STATE.PRI
   1d0d8:	5050004f 53004449 4b434154 53414220     O.PPID.STACK BAS
   1d0e8:	54530045 204b4341 00525450 43415453     E.STACK PTR.STAC
   1d0f8:	454c204b 2d2d004e 2d2d2d2d 2d2d2d2d     K LEN.----------
   1d108:	2d2d2d2d 20002d2d 2d2d2d2d 2d2d2d2d     ------. --------
   1d118:	3325002d 2d252064 20733631 25207325     -.%3d %-16s %s %
   1d128:	25206434 30206434 38302578 3020586c     4d %4d 0x%08lX 0
   1d138:	38302578 2520586c 756c3031 7563000a     x%08lX %10lu..cu
   1d148:	00207272 65657266 65720020 00796461     rr .free .ready.
   1d158:	76636572 75730020 00207073 74696177     recv .susp .wait
   1d168:	74720020 00206d69 00786c25 00756c25      .rtim .%lx.%lu.
   1d178:	006f6c25 67617355 25203a65 2d5b2073     %lo.Usage: %s [-
   1d188:	5b205d43 205d662d 4154533c 203e5452     C] [-f] <START> 
   1d198:	4e454c3c 3e485447 09000a0a 706d7544     <LENGTH>....Dump
   1d1a8:	68742073 65722065 6e6f6967 20666f20     s the region of 
   1d1b8:	6f6d656d 73207972 74726174 20676e69     memory starting 
   1d1c8:	53207461 54524154 6109000a 6320646e     at START...and c
   1d1d8:	6c706d6f 6e697465 74612067 41545320     ompleting at STA
   1d1e8:	4c2b5452 54474e45 6f742048 61747320     RT+LENGTH to sta
   1d1f8:	7261646e 756f2064 09000a74 52415453     ndard out...STAR
   1d208:	6e612054 454c2064 4854474e 6e616320     T and LENGTH can
   1d218:	20656220 20786568 6420726f 0a2e6365      be hex or dec..
   1d228:	533c0900 54524154 7209093e 6f696765     ..<START>..regio
   1d238:	666f206e 6d656d20 2079726f 77207461     n of memory at w
   1d248:	68636968 206f7420 72617473 09000a74     hich to start...
   1d258:	4e454c3c 3e485447 6e656c09 20687467     <LENGTH>.length 
   1d268:	62206f74 75642065 6465706d 2d09000a     to be dumped...-
   1d278:	64090943 6c707369 69207961 6163206e     C..display in ca
   1d288:	696e6f6e 206c6163 65646f6d 65682820     nonical mode (he
   1d298:	53412b78 29494943 2d09000a 69090966     x+ASCII)...-f..i
   1d2a8:	726f6e67 61732065 7974696e 65686320     gnore sanity che
   1d2b8:	20736b63 20726f66 72646461 65737365     cks for addresse
   1d2c8:	09000a73 65682d2d 0909706c 70736964     s...--help..disp
   1d2d8:	2079616c 73696874 6c656820 6e612070     lay this help an
   1d2e8:	78652064 000a7469 2500662d 69203a73     d exit..-f.%s: i
   1d2f8:	6c61766e 61206469 6d756772 0a746e65     nvalid argument.
   1d308:	756f5900 61762072 7365756c 65657320     .Your values see
   1d318:	6e69206d 656e6173 7355202e 662d2065     m insane. Use -f
   1d328:	206f7420 63726f66 000a2e65 67617355      to force...Usag
   1d338:	25203a65 2d5b2073 5b205d72 205d6b2d     e: %s [-r] [-k] 
   1d348:	5d712d5b 742d5b20 49543c20 0a5d3e44     [-q] [-t <TID>].
   1d358:	4409000a 6c707369 20737961 20656874     ...Displays the 
   1d368:	72727563 20746e65 6f6d656d 75207972     current memory u
   1d378:	65676173 646e6120 69727020 2073746e     sage and prints 
   1d388:	0a656874 72660900 6c206565 2e747369     the...free list.
   1d398:	2d09000a 70090972 746e6972 67657220     ...-r..print reg
   1d3a8:	206e6f69 6f6c6c61 65746163 6e612064     ion allocated an
   1d3b8:	72662064 6c206565 73747369 2d09000a     d free lists...-
   1d3c8:	7009096b 746e6972 72656b20 206c656e     k..print kernel 
   1d3d8:	65657266 73696c20 09000a74 0909712d     free list...-q..
   1d3e8:	70707573 73736572 72756320 746e6572     suppress current
   1d3f8:	73797320 206d6574 6f6d656d 75207972      system memory u
   1d408:	65676173 72637320 0a6e6565 742d0900     sage screen...-t
   1d418:	49543c20 70093e44 746e6972 65737520      <TID>.print use
   1d428:	72662072 6c206565 20747369 7420666f     r free list of t
   1d438:	61657268 64692064 64697420 7246000a     hread id tid..Fr
   1d448:	4c206565 20747369 29732528 42000a3a     ee List (%s):..B
   1d458:	4b434f4c 41545320 20205452 474e454c     LOCK START  LENG
   1d468:	20204854 2d2d000a 2d2d2d2d 2d2d2d2d     TH  ..----------
   1d478:	2d20202d 2d2d2d2d 0a2d2d2d 25783000     -  --------..0x%
   1d488:	586c3830 25202020 000a7538 2d00742d     08lX   %8u..-t.-
   1d498:	6b2d0072 00712d00 72727543 20746e65     r.-k.-q.Current 
   1d4a8:	74737953 4d206d65 726f6d65 73552079     System Memory Us
   1d4b8:	3a656761 3125000a 62206430 73657479     age:..%10d bytes
   1d4c8:	73797320 206d6574 61657261 3125000a      system area..%1
   1d4d8:	62206430 73657479 6e695820 6f632075     0d bytes Xinu co
   1d4e8:	000a6564 64303125 74796220 73207365     de..%10d bytes s
   1d4f8:	6b636174 61707320 000a6563 64303125     tack space..%10d
   1d508:	74796220 6b207365 656e7265 6568206c      bytes kernel he
   1d518:	73207061 65636170 64252820 65737520     ap space (%d use
   1d528:	000a2964 64303125 74796220 70207365     d)..%10d bytes p
   1d538:	69737968 206c6163 6f6d656d 0a0a7972     hysical memory..
   1d548:	206f4e00 72657375 61656820 76612070     .No user heap av
   1d558:	616c6961 2e656c62 6b000a0a 656e7265     ailable....kerne
   1d568:	6e49006c 696c6176 68742064 64616572     l.Invalid thread
   1d578:	3a646920 0a642520 61735500 203a6567      id: %d..Usage: 
   1d588:	5b207325 205d742d 5241553c 4d554e54     %s [-t] <UARTNUM
   1d598:	000a0a3e 73694409 79616c70 74732073     >....Displays st
   1d5a8:	73697461 73636974 726f6620 72617520     atistics for uar
   1d5b8:	553c2074 4e545241 2e3e4d55 66492020     t <UARTNUM>.  If
   1d5c8:	206f6e20 3c09000a 54524155 3e4d554e      no ...<UARTNUM>
   1d5d8:	20736920 63657073 65696669 73202c64      is specified, s
   1d5e8:	69746174 63697473 72612073 69642065     tatistics are di
   1d5f8:	616c7073 20646579 20726f66 6c6c6100     splayed for .all
   1d608:	72617520 0a2e7374 742d0900 69640909      uarts....-t..di
   1d618:	616c7073 68742079 67756f72 74757068     splay throughput
   1d628:	61747320 74736974 20736369 20726f66      statistics for 
   1d638:	74726175 41553c20 554e5452 00203e4d     uart <UARTNUM> .
   1d648:	72657665 65732079 646e6f63 3c09000a     every second...<
   1d658:	54524155 3e4d554e 68740009 756e2065     UARTNUM>..the nu
   1d668:	7265626d 20666f20 20656874 74726175     mber of the uart
   1d678:	206f7420 70736964 2079616c 74617473      to display stat
   1d688:	69747369 66207363 000a726f 61766e49     istics for..Inva
   1d698:	2064696c 75677261 746e656d 73252720     lid argument '%s
   1d6a8:	74202c27 25207972 2d2d2073 706c6568     ', try %s --help
   1d6b8:	7325000a 2528203a 4e202964 7573206f     ..%s: (%d) No su
   1d6c8:	75206863 0a747261 3a785400 64342520     ch uart..Tx: %4d
   1d6d8:	74796220 732f7365 202c6365 3a785200      bytes/sec, .Rx:
   1d6e8:	64342520 74796220 732f7365 000a6365      %4d bytes/sec..
   1d6f8:	74736554 69755320 25206574 203a6432     Test Suite %2d: 
   1d708:	73257325 73657400 69757374 203a6574     %s%s.testsuite: 
   1d718:	29642528 206f4e20 68637573 73657420     (%d) No such tes
   1d728:	000a2e74 67617355 25203a65 543c2073     t...Usage: %s <T
   1d738:	4e545345 0a3e4d55 5309000a 65746975     ESTNUM>....Suite
   1d748:	20666f20 6e617473 64726164 6e695820      of standard Xin
   1d758:	6f632075 6e6f706d 20746e65 74736574     u component test
   1d768:	000a2e73 45543c09 554e5453 69093e4d     s....<TESTNUM>.i
   1d778:	70732066 66696365 2c646569 65707320     f specified, spe
   1d788:	69666963 65742063 6e207473 65626d75     cific test numbe
   1d798:	6f742072 6e757220 2d09000a 76090976     r to run...-v..v
   1d7a8:	6f627265 69206573 726f666e 6974616d     erbose informati
   1d7b8:	000a6e6f 2e643225 0a732520 00762d00     on..%2d. %s..-v.
   1d7c8:	30365b1b 5b1b5b47 32333b31 5341506d     .[60G[.[1;32mPAS
   1d7d8:	305b1b53 6d39333b 7325205d 5b1b000a     S.[0;39m] %s...[
   1d7e8:	5b473036 3b315b1b 466d3133 1b4c4941     60G[.[1;31mFAIL.
   1d7f8:	333b305b 205d6d39 000a7325 30365b1b     [0;39m] %s...[60
   1d808:	5b1b5b47 33333b31 494b536d 305b1b50     G[.[1;33mSKIP.[0
   1d818:	6d39333b 7325205d 2020000a 41007325     ;39m] %s..  %s.A
   1d828:	6d756772 20746e65 73736150 00676e69     rgument Passing.
   1d838:	6f697250 79746972 68635320 6c756465     Priority Schedul
   1d848:	00676e69 65726854 50206461 6d656572     ing.Thread Preem
   1d858:	6f697470 6552006e 73727563 006e6f69     ption.Recursion.
   1d868:	676e6953 5320656c 70616d65 65726f68     Single Semaphore
   1d878:	6c754d00 6c706974 65532065 6870616d     .Multiple Semaph
   1d888:	7365726f 756f4300 6e69746e 65532067     ores.Counting Se
   1d898:	6870616d 7365726f 6c694b00 676e696c     maphores.Killing
   1d8a8:	6d655320 6f687061 00736572 636f7250      Semaphores.Proc
   1d8b8:	20737365 75657551 44007365 61746c65     ess Queues.Delta
   1d8c8:	65755120 00736575 6e617453 64726164      Queues.Standard
   1d8d8:	706e4920 4f2f7475 75707475 54540074      Input/Output.TT
   1d8e8:	72442059 72657669 61684300 74636172     Y Driver.Charact
   1d8f8:	54207265 73657079 72745300 20676e69     er Types.String 
   1d908:	7262694c 00797261 6e617453 64726164     Library.Standard
   1d918:	62694c20 79726172 70795400 694c2065      Library.Type Li
   1d928:	7374696d 66754200 20726566 6c6f6f50     mits.Buffer Pool
   1d938:	52564e00 53004d41 65747379 654d006d     .NVRAM.System.Me
   1d948:	67617373 61502065 6e697373 614d0067     ssage Passing.Ma
   1d958:	6f626c69 74450078 6e726568 44207465     ilbox.Ethernet D
   1d968:	65766972 74450072 6e726568 4c207465     river.Ethernet L
   1d978:	62706f6f 206b6361 76697244 4e007265     oopback Driver.N
   1d988:	6f777465 41206b72 65726464 73657373     etwork Addresses
   1d998:	74654e00 6b726f77 746e4920 61667265     .Network Interfa
   1d9a8:	41006563 53005052 706f6f6e 50445500     ce.ARP.Snoop.UDP
   1d9b8:	636f5320 7374656b 77615200 636f5320      Sockets.Raw Soc
   1d9c8:	7374656b 00504900 72657355 6d654d20     kets.IP.User Mem
   1d9d8:	0079726f 706d6953 5420656c 4100424c     ory.Simple TLB.A
   1d9e8:	636f6c6c 20657461 6c616d73 616d206c     llocate small ma
   1d9f8:	6f626c69 6c610078 61636f6c 676e6974     ilbox.allocating
   1da08:	616d7320 6d206c6c 626c6961 7220786f      small mailbox r
   1da18:	6c757365 69207374 5953206e 52524553     esults in SYSERR
   1da28:	656f6400 6f6e2073 6c612074 61636f6c     .does not alloca
   1da38:	63206574 6572726f 63207463 746e756f     te correct count
   1da48:	20666f20 7373656d 73656761 6c6c4100      of messages.All
   1da58:	7461636f 616c2065 20656772 6c69616d     ocate large mail
   1da68:	00786f62 6f6c6c61 69746163 6c20676e     box.allocating l
   1da78:	65677261 69616d20 786f626c 73657220     arge mailbox res
   1da88:	73746c75 206e6920 45535953 46005252     ults in SYSERR.F
   1da98:	20656572 6c69616d 65786f62 72660073     ree mailboxes.fr
   1daa8:	6e696565 616d2067 6f626c69 65722078     eeing mailbox re
   1dab8:	746c7573 6e692073 53595320 00525245     sults in SYSERR.
   1dac8:	6f6c6c41 65746163 6c6c6120 69616d20     Allocate all mai
   1dad8:	786f626c 66007365 656c6961 6f742064     lboxes.failed to
   1dae8:	6c6c6120 7461636f 6c612065 616d206c      allocate all ma
   1daf8:	6f626c69 00736578 6f6c6c61 65746163     ilboxes.allocate
   1db08:	6f742064 616d206f 6600796e 656c6961     d too many.faile
   1db18:	6f742064 65726620 616d2065 6f626c69     d to free mailbo
   1db28:	00736578 646e6553 20676e69 7373656d     xes.Sending mess
   1db38:	73656761 69616600 2064656c 646e6573     ages.failed send
   1db48:	20676e69 6c69616d 73656d2d 65676173     ing mail-message
   1db58:	206f7420 6c69616d 00786f62 65636552      to mailbox.Rece
   1db68:	6e697669 656d2067 67617373 66007365     iving messages.f
   1db78:	656c6961 65722064 76696563 20676e69     ailed receiving 
   1db88:	6c69616d 73656d2d 65676173 6f726620     mail-message fro
   1db98:	616d206d 6f626c69 61570078 6f207469     m mailbox.Wait o
   1dba8:	6d65206e 20797470 6c69616d 00786f62     n empty mailbox.
   1dbb8:	736e6f63 72656d75 6e6f6300 656d7573     consumer.consume
   1dbc8:	69642072 6f6e2064 61772074 6f207469     r did not wait o
   1dbd8:	6d65206e 20797470 6c69616d 00786f62     n empty mailbox.
   1dbe8:	74696157 206e6f20 6c6c7566 69616d20     Wait on full mai
   1dbf8:	786f626c 6f727000 65637564 72700072     lbox.producer.pr
   1dc08:	6375646f 64207265 6e206469 7720746f     oducer did not w
   1dc18:	20746961 66206e6f 206c6c75 6c69616d     ait on full mail
   1dc28:	00786f62 616d6553 726f6870 72632065     box.Semaphore cr
   1dc38:	69746165 203a6e6f 4d455300 4f485041     eation: .SEMAPHO
   1dc48:	412d4552 4d455300 4f485041 422d4552     RE-A.SEMAPHORE-B
   1dc58:	69615700 6e6f2074 6d657320 6f687061     .Wait on semapho
   1dc68:	203a6572 67695300 206c616e 74696177     re: .Signal wait
   1dc78:	20676e69 616d6573 726f6870 00203a65     ing semaphore: .
   1dc88:	41474942 00534752 6f6c6c41 65746163     BIGARGS.Allocate
   1dc98:	616d7320 70206c6c 65636569 6d656d00      small piece.mem
   1dca8:	20746567 45535953 0a005252 6c6d656d     get SYSERR..meml
   1dcb8:	2d747369 6e656c3e 20687467 73656f64     ist->length does
   1dcc8:	746f6e20 74616d20 63206863 75706d6f      not match compu
   1dcd8:	20646574 65657266 61707320 46006563     ted free space.F
   1dce8:	20656572 6c616d73 6970206c 00656365     ree small piece.
   1dcf8:	65657266 206d656d 45535953 41005252     freemem SYSERR.A
   1dd08:	636f6c6c 20657461 6c6c6127 666f2027     llocate 'all' of
   1dd18:	6d656d20 2079726f 20646e61 65657266      memory and free
   1dd28:	74730a00 7465676b 53595320 00525245     ..stkget SYSERR.
   1dd38:	6b74730a 65657266 53595320 00525245     .stkfree SYSERR.
   1dd48:	6c6c694b 69617720 676e6974 6f727020     Kill waiting pro
   1dd58:	73736563 4300203a 74616572 75622065     cess: .Create bu
   1dd68:	72656666 6f6f7020 6d0a006c 696c6d65     ffer pool..memli
   1dd78:	6c2e7473 74676e65 65722068 74637564     st.length reduct
   1dd88:	206e6f69 73656f64 746f6e20 74616d20     ion does not mat
   1dd98:	70206863 206c6f6f 657a6973 6c6c4100     ch pool size.All
   1dda8:	7461636f 69732065 656c676e 66756220     ocate single buf
   1ddb8:	00726566 6675620a 28746567 65722029     fer..bufget() re
   1ddc8:	6e727574 59532073 52524553 74655200     turns SYSERR.Ret
   1ddd8:	206e7275 676e6973 6220656c 65666675     urn single buffe
   1dde8:	620a0072 72666675 29286565 74657220     r..buffree() ret
   1ddf8:	736e7275 53595320 00525245 6f6c6c41     urns SYSERR.Allo
   1de08:	65746163 646e6120 6c696620 6c61206c     cate and fill al
   1de18:	7562206c 72656666 72460073 62206565     l buffers.Free b
   1de28:	65666675 6f702072 0a006c6f 6c6d656d     uffer pool..meml
   1de38:	2e747369 676e656c 69206874 6572636e     ist.length incre
   1de48:	20657361 73656f64 746f6e20 74616d20     ase does not mat
   1de58:	70206863 206c6f6f 657a6973 65670a00     ch pool size..ge
   1de68:	66756274 72202928 72757465 5320736e     tbuf() returns S
   1de78:	52455359 620a0052 65666675 61642072     YSERR..buffer da
   1de88:	64206174 2073656f 20746f6e 6374616d     ta does not matc
   1de98:	6f732068 65637275 65724600 6c612065     h source.Free al
   1dea8:	7562206c 72656666 62610073 66656463     l buffers.abcdef
   1deb8:	6a696867 6e6d6c6b 7271706f 76757473     ghijklmnopqrstuv
   1dec8:	7a797877 34333231 00373635 6365720a     wxyz1234567..rec
   1ded8:	6d697476 20292865 20646964 20746f6e     vtime() did not 
   1dee8:	75746572 54206e72 4f454d49 53005455     return TIMEOUT.S
   1def8:	20646e65 7373656d 00656761 646e6553     end message.Send
   1df08:	6c756d20 6c706974 656d2065 67617373      multiple messag
   1df18:	0a007365 646e6573 72202928 72757465     es..send() retur
   1df28:	2064656e 65204b4f 206e6576 756f6874     ned OK even thou
   1df38:	61206867 73656d20 65676173 726c6120     gh a message alr
   1df48:	79646165 69786520 00737473 65636552     eady exists.Rece
   1df58:	20657669 74696177 20676e69 7373656d     ive waiting mess
   1df68:	00656761 65636552 20657669 61656c63     age.Receive clea
   1df78:	202d2072 7373656d 20656761 646e6570     r - message pend
   1df88:	00676e69 616e750a 20656c62 73206f74     ing..unable to s
   1df98:	20646e65 7373656d 00656761 65636552     end message.Rece
   1dfa8:	20657669 61656c63 202d2072 6d206f6e     ive clear - no m
   1dfb8:	61737365 70206567 69646e65 5200676e     essage pending.R
   1dfc8:	69656365 74206576 6f656d69 72007475     eceive timeout.r
   1dfd8:	74766365 61657268 750a0064 6c62616e     ecvthread..unabl
   1dfe8:	6f742065 65726320 20657461 65636572     e to create rece
   1dff8:	72657669 72687420 00646165 6365720a     iver thread..rec
   1e008:	65766965 72687420 20646165 6c697473     eive thread stil
   1e018:	6177206c 6e697469 6f630067 20746e75     l waiting.count 
   1e028:	6425203d 6f6e202c 64252074 64697400     = %d, not %d.tid
   1e038:	20642520 74617473 64252065 6f6e202c      %d state %d, no
   1e048:	64252074 6f727000 73736563 64696420     t %d.process did
   1e058:	2074276e 6d656573 206f7420 74696177     n't seem to wait
   1e068:	7865202c 74636570 25206465 73202c64     , expected %d, s
   1e078:	25207761 69530064 6c616e67 6d657320     aw %d.Signal sem
   1e088:	6f687061 203a6572 67695300 6e6c616e     aphore: .Signaln
   1e098:	6d657320 6f687061 28206572 696c6176      semaphore (vali
   1e0a8:	6f632064 29746e75 5300203a 616e6769     d count): .Signa
   1e0b8:	6162206c 65732064 6870616d 3a65726f     l bad semaphore:
   1e0c8:	69530020 6c616e67 6162206e 65732064      .Signaln bad se
   1e0d8:	6870616d 3a65726f 6f4e0020 6d657320     maphore: .No sem
   1e0e8:	6f687061 202c6572 44006425 41544c45     aphore, %d.DELTA
   1e0f8:	4400412d 41544c45 4400422d 41544c45     -A.DELTA-B.DELTA
   1e108:	4400432d 41544c45 4400442d 61746c65     -C.DELTA-D.Delta
   1e118:	726f7320 676e6974 736e6900 64747265      sorting.insertd
   1e128:	74756f20 20666f20 6564726f 61530072      out of order.Sa
   1e138:	6420656d 61746c65 65684300 6e696b63     me delta.Checkin
   1e148:	65672067 64697474 67002928 69747465     g gettid().getti
   1e158:	20292864 73656f64 746f6e20 74657220     d() does not ret
   1e168:	206e7275 63726874 65727275 0900746e     urn thrcurrent..
   1e178:	253a7325 000a0d64 742f2e2e 2f747365     %s:%d...../test/
   1e188:	74736574 7379735f 2e6d6574 68430063     test_system.c.Ch
   1e198:	696b6365 6720676e 72707465 29286f69     ecking getprio()
   1e1a8:	74656700 6f697270 64202928 2073656f     .getprio() does 
   1e1b8:	20746f6e 75746572 70206e72 006f6972     not return prio.
   1e1c8:	70746567 286f6972 6f642029 6e207365     getprio() does n
   1e1d8:	7220746f 72757465 5953206e 52524553     ot return SYSERR
   1e1e8:	726f6620 64616220 64697420 65684300      for bad tid.Che
   1e1f8:	6e696b63 65672067 76656474 53002928     cking getdev().S
   1e208:	41495245 6700304c 65647465 61662076     ERIAL0.getdev fa
   1e218:	64656c69 44414200 00564544 74736574     iled.BADDEV.test
   1e228:	6970735f 7055006e 20726570 68706c61     _spin.Upper alph
   1e238:	63250061 6f687320 20646c75 75206562     a.%c should be u
   1e248:	72657070 706c6120 4c006168 7265776f     pper alpha.Lower
   1e258:	706c6120 25006168 68732063 646c756f      alpha.%c should
   1e268:	20656220 65776f6c 6c612072 00616870      be lower alpha.
   1e278:	65707055 65682072 65646178 616d6963     Upper hexadecima
   1e288:	6964206c 73746967 20632500 756f6873     l digits.%c shou
   1e298:	6220646c 65682065 65646178 616d6963     ld be hexadecima
   1e2a8:	6964206c 00746967 65776f4c 65682072     l digit.Lower he
   1e2b8:	65646178 616d6963 6964206c 73746967     xadecimal digits
   1e2c8:	67694400 00737469 73206325 6c756f68     .Digits.%c shoul
   1e2d8:	65622064 67696420 50007469 74636e75     d be digit.Punct
   1e2e8:	69746175 21006e6f 25242322 9980e226     uation.!"#$%&...
   1e2f8:	2b2a2928 2f2e2d2c 3d3c3b3a 5b403f3e     ()*+,-./:;<=>?@[
   1e308:	5f5e5d5c 7d7c7b60 6325007e 6f687320     \]^_`{|}~.%c sho
   1e318:	20646c75 70206562 74636e75 69746175     uld be punctuati
   1e328:	50006e6f 746e6972 656c6261 20632500     on.Printable.%c 
   1e338:	756f6873 6220646c 72702065 61746e69     should be printa
   1e348:	00656c62 45555150 412d4555 55515000     ble.PQUEUE-A.PQU
   1e358:	2d455545 51500042 45554555 5000432d     EUE-B.PQUEUE-C.P
   1e368:	55455551 00442d45 74736554 6f727020     QUEUE-D.Test pro
   1e378:	73736563 65726320 20657461 6f727265     cess create erro
   1e388:	72500072 69726f69 69207974 7265736e     r.Priority inser
   1e398:	6f732074 6e697472 6e690067 74726573     t sorting.insert
   1e3a8:	74756f20 20666f20 6564726f 61530072      out of order.Sa
   1e3b8:	7020656d 726f6972 20797469 65736e69     me priority inse
   1e3c8:	44007472 65757165 75206575 676e6973     rt.Dequeue using
   1e3d8:	74656720 73726966 00292874 75716544      getfirst().Dequ
   1e3e8:	20657565 6e697375 65672067 73616c74     eue using getlas
   1e3f8:	00292874 74697257 68540065 69207369     t().Write.This i
   1e408:	20612073 746e6573 65636e65 2e2e002e     s a sentence....
   1e418:	7365742f 65742f74 745f7473 72647974     /test/test_ttydr
   1e428:	72657669 5700632e 65746972 6f63203a     iver.c.Write: co
   1e438:	4c206b6f 6e612046 52432064 6e696c00     ok LF and CR.lin
   1e448:	0a0d3165 656e696c 696c0d32 0a33656e     e1..line2.line3.
   1e458:	656e696c 696c0034 0d31656e 696c0a0d     line4.line1...li
   1e468:	0d32656e 656e696c 6c0a0d33 34656e69     ne2.line3..line4
   1e478:	69725700 203a6574 6b6f6f63 63616220     .Write: cook bac
   1e488:	6170736b 642f6563 74656c65 69660065     kspace/delete.fi
   1e498:	08747372 6f636573 5200646e 00646165     rst.second.Read.
   1e4a8:	656e694c 694c0a31 0a32656e 6e694c00     Line1.Line2..Lin
   1e4b8:	000a3165 64616552 6172203a 494c0077     e1..Read: raw.LI
   1e4c8:	0a41454e 454e494c 52000a42 3a646165     NEA.LINEB..Read:
   1e4d8:	464f4520 66654200 0065726f 65746641      EOF.Before.Afte
   1e4e8:	52000a72 3a646165 6f6f6320 6162206b     r..Read: cook ba
   1e4f8:	70736b63 2f656361 656c6564 6f006574     ckspace/delete.o
   1e508:	0873656e 086f6f74 0a6f7708 656e6f00     nes.too..wo..one
   1e518:	0a6f7774 61655200 63203a64 65766e6f     two..Read: conve
   1e528:	4e207472 6f74204c 00524320 0a636261     rt NL to CR.abc.
   1e538:	63626100 6552000d 203a6461 6f6e6769     .abc..Read: igno
   1e548:	43206572 6e6f0052 77740d65 52000a6f     re CR.one.two..R
   1e558:	3a646165 6e6f6320 74726576 20524320     ead: convert CR 
   1e568:	4e206f74 3231004c 35340d33 31000a36     to NL.123.456..1
   1e578:	340a3332 000a3635 6978614d 206d756d     23.456..Maximum 
   1e588:	756c6176 666f2065 61686320 694d0072     value of char.Mi
   1e598:	756d696e 6176206d 2065756c 6320666f     nimum value of c
   1e5a8:	00726168 6978614d 206d756d 756c6176     har.Maximum valu
   1e5b8:	666f2065 67697320 2064656e 72616863     e of signed char
   1e5c8:	6e694d00 6d756d69 6c617620 6f206575     .Minimum value o
   1e5d8:	69732066 64656e67 61686320 614d0072     f signed char.Ma
   1e5e8:	756d6978 6176206d 2065756c 7520666f     ximum value of u
   1e5f8:	6769736e 2064656e 72616863 78614d00     nsigned char.Max
   1e608:	6d756d69 6c617620 6f206575 68732066     imum value of sh
   1e618:	0074726f 696e694d 206d756d 756c6176     ort.Minimum valu
   1e628:	666f2065 6f687320 4d007472 6d697861     e of short.Maxim
   1e638:	76206d75 65756c61 20666f20 69736e75     um value of unsi
   1e648:	64656e67 6f687320 4d007472 6d697861     gned short.Maxim
   1e658:	76206d75 65756c61 20666f20 00746e69     um value of int.
   1e668:	696e694d 206d756d 756c6176 666f2065     Minimum value of
   1e678:	746e6920 78614d00 6d756d69 6c617620      int.Maximum val
   1e688:	6f206575 6e752066 6e676973 69206465     ue of unsigned i
   1e698:	4d00746e 6d697861 76206d75 65756c61     nt.Maximum value
   1e6a8:	20666f20 676e6f6c 6e694d00 6d756d69      of long.Minimum
   1e6b8:	6c617620 6f206575 6f6c2066 4d00676e      value of long.M
   1e6c8:	6d697861 76206d75 65756c61 20666f20     aximum value of 
   1e6d8:	69736e75 64656e67 6e6f6c20 00000067     unsigned long...
   1e6e8:	74736554 6e657320 636e6574 000a2e65     Test sentence...
   1e6f8:	58585858 73655400 65732074 00585800     XXXX.Test se.XX.
   1e708:	6e65746e 0a2e6563 6c005800 31656e69     ntence...X.line1
   1e718:	5858000a 696c0058 0a32656e 58585800     ..XXX.line2..XXX
   1e728:	00000000                                ....

0001e72c <fprintf_specs>:
   1e72c:	0001d661 0001d661 00000000 00000000     a...a...........
	...
   1e748:	0001d824 0001d661 00000001 0001d661     $...a.......a...
	...
   1e764:	0001f34a 0001f34d 00000001 00000473     J...M.......s...
	...
   1e780:	0001f4da 0001e0f9 00000001 00000041     ............A...
	...
   1e79c:	0001f359 0001f35e 00000001 ffffffff     Y...^...........
	...
   1e7b8:	0001f359 0001f369 00000001 abcdef12     Y...i...........
	...
   1e7d4:	0001f374 0001f379 00000001 ffffffff     t...y...........
	...
   1e7f0:	0001f374 0001f384 00000001 abcdef12     t...............
	...
   1e80c:	0001f38f 0001f390 00000000 00000000     ................
	...
   1e828:	0001d824 0001f392 00000001 0001f392     $...............
	...
   1e844:	0001d824 0001f397 00000001 00000000     $...............
	...
   1e860:	0001f39e 0001f39e 00000000 00000000     ................
	...
   1e87c:	0001f390 0001f390 00000000 00000000     ................
	...
   1e898:	0001f3a1 0001f3a1 00000000 00000000     ................
	...
   1e8b4:	0001f3a6 0001f3ab 00000001 0001f3b1     ................
	...
   1e8d0:	0001f3bd 0001f3ab 00000002 00000005     ................
   1e8e0:	0001f3b1 00000000 00000000 0001f3bd     ................
   1e8f0:	0001f3b1 00000002 ffffffff 0001f3b1     ................
	...
   1e908:	0001f3c2 0001d661 00000001 0001f3b1     ....a...........
	...
   1e924:	0001f3c6 0001f3cb 00000001 0001f3d0     ................
	...
   1e940:	0001f3d6 0001f3cb 00000002 0000000a     ................
   1e950:	0001f3d0 00000000 00000000 0001f3da     ................
   1e960:	0001f3df 00000001 0001f3e8 00000000     ................
	...
   1e978:	0001f3ed 0001f3df 00000002 00000008     ................
   1e988:	0001f3e8 00000000 00000000 0001f3d6     ................
   1e998:	0001f3df 00000002 fffffff8 0001f3e8     ................
	...
   1e9b0:	0001f59d 0001f3f2 00000001 ffffffa8     ................
	...
   1e9cc:	0001f59d 0001f3f6 00000001 80000000     ................
	...
   1e9e8:	0001f59d 0001f402 00000001 7fffffff     ................
	...
   1ea04:	0001fdeb 0001f3f7 00000001 80000000     ................
	...
   1ea20:	0001f40d 0001f413 00000001 0000007b     ............{...
	...
   1ea3c:	0001f41a 0001f574 00000001 0000007b     ....t.......{...
	...
   1ea58:	0001f41a 0001f41f 00000001 ffffff85     ................
	...
   1ea74:	0001f426 0001f42a 00000001 ffffff85     &...*...........
	...
   1ea90:	0001f431 0001f436 00000001 ffffff85     1...6...........
	...
   1eaac:	0001f43d 0001f442 00000001 0001f456     =...B.......V...
	...
   1eac8:	0001f45a 0001f460 00000001 0001f478     Z...`.......x...
	...
   1eae4:	0001f59d 0001f598 00000001 00000000     ................
	...
   1eb00:	0001f652 0001f598 00000001 00000000     R...............
	...
   1eb1c:	0001f493 0001f598 00000001 00000000     ................
	...
   1eb38:	0001f497 0001f597 00000001 00000000     ................
	...
   1eb54:	0001f49c 0001f4aa 00000001 00000003     ................
	...
   1eb70:	0001f4a1 0001f4a7 00000001 00000003     ................
	...
   1eb8c:	0001f4ae 0001f4a7 00000001 00000003     ................
	...
   1eba8:	0001f4b5 0001f4bc 00000001 00000003     ................
	...
   1ebc4:	0001f4a1 0001f4c3 00000001 fffffffd     ................
	...
   1ebe0:	0001f4b5 0001f4ca 00000001 fffffffd     ................
	...
   1ebfc:	0001f51f 0001f51f 00000000 00000000     ................
	...
   1ec18:	0001f4d1 0001f4dd 00000004 000000fc     ................
   1ec28:	000000fd 000000fe 000000ff 0001f4e5     ................
   1ec38:	0001f503 00000004 00000fa0 0001f527     ............'...
   1ec48:	000000fe 00000058 6c696166 74206465     ....X...failed t
   1ec58:	706f206f 6c206e65 62706f6f 206b6361     o open loopback 
   1ec68:	69766564 2e006563 65742f2e 742f7473     device.../test/t
   1ec78:	5f747365 5362696c 6f696474 6600632e     est_libStdio.c.f
   1ec88:	656c6961 6f742064 74657320 6f6f6c20     ailed to set loo
   1ec98:	63616270 6564206b 65636976 206f7420     pback device to 
   1eca8:	626e6f6e 6b636f6c 00676e69 74656766     nonblocking.fget
   1ecb8:	66202c63 63747570 6162203a 20636973     c, fputc: basic 
   1ecc8:	636e7566 6e6f6974 74696c61 70660079     functionality.fp
   1ecd8:	20637475 6c696166 74206465 6572206f     utc failed to re
   1ece8:	6e727574 74757020 61686320 74636172     turn put charact
   1ecf8:	66007265 63746567 69616620 2064656c     er.fgetc failed 
   1ed08:	72206f74 72757465 6863206e 63617261     to return charac
   1ed18:	00726574 74656766 62203a73 63697361     ter.fgets: basic
   1ed28:	6e756620 6f697463 696c616e 54007974      functionality.T
   1ed38:	20747365 746e6573 65636e65 66000a2e     est sentence...f
   1ed48:	656c6961 6f742064 69727720 64206574     ailed to write d
   1ed58:	20617461 6c206f74 62706f6f 206b6361     ata to loopback 
   1ed68:	69766564 66006563 73746567 69616620     device.fgets fai
   1ed78:	2064656c 72206f74 72757465 756f206e     led to return ou
   1ed88:	74757074 66756220 00726566 74656766     tput buffer.fget
   1ed98:	61662073 64656c69 206f7420 72726f63     s failed to corr
   1eda8:	6c746365 65722079 6e727574 69727720     ectly return wri
   1edb8:	6e657474 74616420 67660061 3a737465     tten data.fgets:
   1edc8:	72617020 6c616974 61657220 66007364      partial reads.f
   1edd8:	73746567 6572203a 6e727574 4c554e20     gets: return NUL
   1ede8:	6e6f204c 646e6520 2d666f2d 656c6966     L on end-of-file
   1edf8:	65676600 66207374 656c6961 6f742064     .fgets failed to
   1ee08:	74657220 206e7275 4c4c554e 206e6f20      return NULL on 
   1ee18:	2d646e65 662d666f 00656c69 74656766     end-of-file.fget
   1ee28:	6f203a73 20796c6e 64616572 746e7520     s: only read unt
   1ee38:	6e206c69 696c7765 6c00656e 31656e69     il newline.line1
   1ee48:	6e696c0a 000a3265 74656766 61662073     .line2..fgets fa
   1ee58:	64656c69 206f7420 64616572 6c6e6f20     iled to read onl
   1ee68:	61702079 61697472 696c206c 6600656e     y partial line.f
   1ee78:	73747570 6162203a 20636973 636e7566     puts: basic func
   1ee88:	6e6f6974 74696c61 75500079 65742074     tionality.Put te
   1ee98:	002e7473 74757066 61662073 64656c69     st..fputs failed
   1eea8:	206f7420 75746572 6e206e72 656e6e6f      to return nonne
   1eeb8:	69746167 76206576 65756c61 206e6f20     gative value on 
   1eec8:	63637573 00737365 6c696166 74206465     success.failed t
   1eed8:	6572206f 64206461 20617461 20747570     o read data put 
   1eee8:	68746977 75706620 64007374 20617461     with fputs.data 
   1eef8:	64616572 63616220 6977206b 66206874     read back with f
   1ef08:	73747570 73617720 746f6e20 65687420     puts was not the
   1ef18:	6d617320 73612065 69727720 6e657474      same as written
   1ef28:	74757000 72616863 6567202c 61686374     .putchar, getcha
   1ef38:	62203a72 63697361 6e756620 6f697463     r: basic functio
   1ef48:	696c616e 70007974 68637475 66207261     nality.putchar f
   1ef58:	656c6961 6f742064 74657220 206e7275     ailed to return 
   1ef68:	72616863 65746361 72772072 65747469     character writte
   1ef78:	6567006e 61686374 61662072 64656c69     n.getchar failed
   1ef88:	206f7420 75746572 63206e72 61726168      to return chara
   1ef98:	72657463 65727020 756f6976 20796c73     cter previously 
   1efa8:	74697277 006e6574 63746567 3a726168     written.getchar:
   1efb8:	74657220 206e7275 20464f45 65206e6f      return EOF on e
   1efc8:	6f2d646e 69662d66 6700656c 68637465     nd-of-file.getch
   1efd8:	66207261 656c6961 6f742064 74657220     ar failed to ret
   1efe8:	206e7275 20464f45 65206e6f 6f2d646e     urn EOF on end-o
   1eff8:	69662d66 6600656c 6e697270 203a6674     f-file.fprintf: 
   1f008:	69736162 75662063 6974636e 6c616e6f     basic functional
   1f018:	00797469 25206425 7825206f 20632520     ity.%d %o %x %c 
   1f028:	66007325 6e697270 29286674 64696420     %s.fprintf() did
   1f038:	746f6e20 726f6320 74636572 7220796c      not correctly r
   1f048:	72757465 756e206e 7265626d 20666f20     eturn number of 
   1f058:	72616863 65746361 77207372 74746972     characters writt
   1f068:	66006e65 656c6961 6f742064 61657220     en.failed to rea
   1f078:	61642064 62206174 206b6361 6d6f7266     d data back from
   1f088:	6f6f6c20 65642070 65636976 20353700      loop device.75 
   1f098:	20333131 4b206234 43424120 72706600     113 4b K ABC.fpr
   1f0a8:	66746e69 66202928 656c6961 6f742064     intf() failed to
   1f0b8:	69727020 7420746e 64206568 20617461      print the data 
   1f0c8:	72726f63 6c746365 70730079 746e6972     correctly.sprint
   1f0d8:	62203a66 63697361 6e756620 6f697463     f: basic functio
   1f0e8:	696c616e 73007974 6e697270 29286674     nality.sprintf()
   1f0f8:	64696420 746f6e20 726f6320 74636572      did not correct
   1f108:	7220796c 72757465 756e206e 7265626d     ly return number
   1f118:	20666f20 72616863 65746361 77207372      of characters w
   1f128:	74746972 73006e65 6e697270 29286674     ritten.sprintf()
   1f138:	69616620 2064656c 70206f74 746e6972      failed to print
   1f148:	65687420 74616420 6f632061 63657272      the data correc
   1f158:	00796c74 61637373 203a666e 69736162     tly.sscanf: basi
   1f168:	75662063 6974636e 6c616e6f 00797469     c functionality.
   1f178:	61637373 6420666e 6e206469 6320746f     sscanf did not c
   1f188:	6572726f 796c7463 74657220 206e7275     orrectly return 
   1f198:	626d756e 6f207265 616d2066 65686374     number of matche
   1f1a8:	73730073 666e6163 64696420 746f6e20     s.sscanf did not
   1f1b8:	61637320 6164206e 63206174 6572726f      scan data corre
   1f1c8:	796c7463 63736600 3a666e61 73616220     ctly.fscanf: bas
   1f1d8:	66206369 74636e75 616e6f69 7974696c     ic functionality
   1f1e8:	63736600 20666e61 20646964 20746f6e     .fscanf did not 
   1f1f8:	72726f63 6c746365 65722079 6e727574     correctly return
   1f208:	6d756e20 20726562 6d20666f 68637461      number of match
   1f218:	66007365 6e616373 69642066 6f6e2064     es.fscanf did no
   1f228:	63732074 64206e61 20617461 72726f63     t scan data corr
   1f238:	6c746365 70660079 746e6972 74203a66     ectly.fprintf: t
   1f248:	20747365 6d726f66 73207461 6e697274     est format strin
   1f258:	25222067 69002273 6c61766e 6e206469     g "%s".invalid n
   1f268:	65626d75 666f2072 67726120 6e656d75     umber of argumen
   1f278:	77007374 65746f72 20642520 72616863     ts.wrote %d char
   1f288:	65202c73 63657078 20646574 63206425     s, expected %d c
   1f298:	73726168 69616600 2064656c 72206f74     hars.failed to r
   1f2a8:	20646165 206c6c61 61746164 69727020     ead all data pri
   1f2b8:	6465746e 72706600 66746e69 64696420     nted.fprintf did
   1f2c8:	746f6e20 69727020 6420746e 20617461      not print data 
   1f2d8:	72726f63 6c746365 73660079 666e6163     correctly.fscanf
   1f2e8:	6574203a 66207473 616d726f 74732074     : test format st
   1f2f8:	676e6972 73252220 6e690022 696c6176     ring "%s".invali
   1f308:	63732064 74206e61 00657079 626d756e     d scan type.numb
   1f318:	6f207265 616d2066 65686374 61772073     er of matches wa
   1f328:	6e692073 72726f63 00746365 6e616373     s incorrect.scan
   1f338:	73657220 20746c75 6f636e69 63657272      result incorrec
   1f348:	62250074 30303100 31313130 31313030     t.%b.10001110011
   1f358:	25783000 78300058 46464646 46464646     .0x%X.0xFFFFFFFF
   1f368:	41783000 45444342 00323146 78257830     .0xABCDEF12.0x%x
   1f378:	66783000 66666666 00666666 62617830     .0xffffffff.0xab
   1f388:	66656463 25003231 6f610025 28007565     cdef12.%%.aoeu.(
   1f398:	6c6c756e ff250029 312d2500 2e250030     null).%..%-10.%.
   1f3a8:	74007335 636e7572 75727400 7461636e     5s.trunc.truncat
   1f3b8:	656d2065 2a2e2500 2e250073 31250073     e me.%.*s.%.s.%1
   1f3c8:	20007330 20202020 68676972 2a250074     0s.     right.%*
   1f3d8:	2d250073 6c007338 20746665 00202020     s.%-8s.left    .
   1f3e8:	7466656c 2a2d2500 382d0073 322d0038     left.%-*s.-88.-2
   1f3f8:	34373431 34363338 31320038 38343734     147483648.214748
   1f408:	37343633 302d2500 31006436 20203332     3647.%-06d.123  
   1f418:	30250020 2d006436 32313030 36250033      .%06d.-00123.%6
   1f428:	20200064 3332312d 362d2500 312d0064     d.  -123.%-6d.-1
   1f438:	20203332 33322500 20200073 20202020     23  .%23s.      
   1f448:	20202020 20202020 20202020 32312020                   12
   1f458:	2e250033 00733332 64636261 68676665     3.%.23s.abcdefgh
   1f468:	6c6b6a69 706f6e6d 74737271 00777675     ijklmnopqrstuvw.
   1f478:	64636261 68676665 6c6b6a69 706f6e6d     abcdefghijklmnop
   1f488:	74737271 78777675 25007a79 25007830     qrstuvwxyz.%0x.%
   1f498:	00783230 64332e25 2e362500 20006433     02x.%.3d.%6.3d. 
   1f4a8:	30302020 30250033 64332e36 362d2500       003.%06.3d.%-6
   1f4b8:	0064332e 20333030 20002020 30302d20     .3d.003   .  -00
   1f4c8:	302d0033 20203330 20632500 25206325     3.-003  .%c %c %
   1f4d8:	63252063 fd20fc00 ff20fe20 74696c00     c %c.. . . ..lit
   1f4e8:	6c617265 38302520 2d250964 25097338     eral %08d.%-8s.%
   1f4f8:	6c632563 72657469 6c006c61 72657469     c%cliteral.liter
   1f508:	30206c61 34303030 09303030 626f6f66     al 00004000.foob
   1f518:	20207261 6c58fe09 72657469 66006c61     ar  ..Xliteral.f
   1f528:	61626f6f 20310072 00332032 25206425     oobar.1 2 3.%d %
   1f538:	64252064 20202000 6c6c6568 6f77096f     d %d.   hello.wo
   1f548:	20646c72 73250020 00732520 25643325     rld  .%s %s.%3d%
   1f558:	2d006433 34333231 25003635 33256433     3d.-123456.%3d%3
   1f568:	25632564 20200063 2d202020 31303030     d%c%c.     -0001
   1f578:	6c003332 72657469 39206c61 00303030     23.literal 9000.
   1f588:	6574696c 206c6172 25006425 30303920     literal %d.% 900
   1f598:	25250030 00642520 62616261 00636261     0.%% %d.abababc.
   1f5a8:	62615b25 5b25005d 005d635e 5d616261     %[ab].%[^c].aba]
   1f5b8:	5d626162 5b250063 5d62615d 61626100     bab]c.%[]ab].aba
   1f5c8:	6261625d 2020005d 62616261 25006261     ]bab].  ababab.%
   1f5d8:	20006335 6c656820 77206f6c 646c726f     5c.  hello world
   1f5e8:	68202000 20006c65 00203838 00646825     .  hel. 88 .%hd.
   1f5f8:	00646c25 20202020 34333231 32310020     %ld.    1234 .12
   1f608:	6c656833 25006f6c 73252064 61456400     3hello.%d %s.dEa
   1f618:	65456244 6f250046 33323100 37363534     DbEeF.%o.1234567
   1f628:	34250038 00732563 34333231 fdfeff00     8.%4c%s.1234....
   1f638:	342500fc 302b0063 32313030 662b4033     ..%4c.+000123@+f
   1f648:	00656665 25206425 78252063 ff004000     efe.%d %c %x.@..
   1f658:	20202020 20fdfeff 20090909 37373720         ... ...  777
   1f668:	37373737 09003737 0920ff20 63332520     777777.. . . %3c
   1f678:	20200920 38252020 feff006f 383800fd      .    %8o.....88
   1f688:	62612038 52006463 52554345 4e4f4953     8 abcd.RECURSION
   1f698:	5200412d 52554345 4e4f4953 5200422d     -A.RECURSION-B.R
   1f6a8:	52554345 4e4f4953 5200432d 52554345     ECURSION-C.RECUR
   1f6b8:	4e4f4953 4500442d 63657078 20646574     SION-D.Expected 
   1f6c8:	74736574 61727241 64255b79 3d3d205d     testArray[%d] ==
   1f6d8:	2c642520 746f6e20 0a642520 65684300      %d, not %d..Che
   1f6e8:	6e696b63 756e2067 7265626d 20666f20     cking number of 
   1f6f8:	75636572 76697372 61632065 00736c6c     recursive calls.
   1f708:	6c6c6163 60206465 20603574 65637865     called `t5` exce
   1f718:	76697373 2e00796c 65742f2e 742f7473     ssivly.../test/t
   1f728:	5f747365 75636572 6f697372 00632e6e     est_recursion.c.
   1f738:	6c6c616d 3028636f 6f4e0029 554e2d6e     malloc(0).Non-NU
   1f748:	70204c4c 746e696f 64207265 63657465     LL pointer detec
   1f758:	00646574 742f2e2e 2f747365 74736574     ted.../test/test
   1f768:	656d755f 79726f6d 6d00632e 6f6c6c61     _umemory.c.mallo
   1f778:	31322863 38343734 37343633 6f540029     c(2147483647).To
   1f788:	756d206f 6d206863 726f6d65 6d002e79     o much memory..m
   1f798:	6f6c6c61 554e2063 0a004c4c 676e656c     alloc NULL..leng
   1f7a8:	64206874 2073656f 20746f6e 6374616d     th does not matc
   1f7b8:	6f632068 7475706d 66206465 20656572     h computed free 
   1f7c8:	63617073 53410065 20494943 69206f74     space.ASCII to i
   1f7d8:	6765746e 2d007265 00363534 742f2e2e     nteger.-456.../t
   1f7e8:	2f747365 74736574 62696c5f 6c647453     est/test_libStdl
   1f7f8:	632e6269 32312b00 312d0033 00656e6f     ib.c.+123.-1one.
   1f808:	7774322b 7433006f 65657268 6e6f2d00     +2two.3three.-on
   1f818:	2b006531 6f327774 72687400 00653365     1e.+tw2o.thre3e.
   1f828:	49435341 6f742049 6e6f6c20 6f2d0067     ASCII to long.-o
   1f838:	2b00656e 006f7774 63697551 6f73206b     ne.+two.Quick so
   1f848:	41007472 45444342 49484746 657a6200     rt.ABCDEFGHI.bze
   1f858:	41006f72 6c6f7362 20657475 756c6176     ro.Absolute valu
   1f868:	6f4c0065 6120676e 6c6f7362 20657475     e.Long absolute 
   1f878:	756c6176 61520065 6d6f646e 6d756e20     value.Random num
   1f888:	20726562 656e6567 69746172 74006e6f     ber generation.t
   1f898:	20746168 20736177 696c6e75 796c656b     hat was unlikely
   1f8a8:	69755100 6f736b63 28207472 646e6172     .Quicksort (rand
   1f8b8:	61206d6f 79617272 66002973 656c6961     om arrays).faile
   1f8c8:	6f742064 726f7320 61722074 6d6f646e     d to sort random
   1f8d8:	72726120 00737961 44414342 47484546      arrays.BCADFEHG
   1f8e8:	52500049 49524f49 412d5954 49525000     I.PRIORITY-A.PRI
   1f8f8:	5449524f 00422d59 4f495250 59544952     ORITY-B.PRIORITY
   1f908:	5000432d 524f4952 2d595449 00000044     -C.PRIORITY-D...
   1f918:	00000000 72745300 20676e69 6f63206e     .....String n co
   1f928:	7261706d 6e6f7369 58595a00 55565700     mparison.ZYX.WVU
   1f938:	2f2e2e00 74736574 7365742f 696c5f74     .../test/test_li
   1f948:	72745362 2e676e69 76770063 797a0075     bString.c.wvu.zy
   1f958:	38390078 4f4e0037 4f4e0050 6f6e0051     x.987.NOP.NOQ.no
   1f968:	6f6e0071 35340070 74530030 676e6972     q.nop.450.String
   1f978:	63206e20 0079706f 69686766 6766006a      n copy.fghij.fg
   1f988:	00656468 69727453 6e20676e 706f6320     hde.String n cop
   1f998:	66282079 736c6c69 6d657220 696e6961     y (fills remaini
   1f9a8:	7320676e 65636170 74697720 657a2068     ng space with ze
   1f9b8:	73656f72 74530029 676e6972 63206e20     roes).String n c
   1f9c8:	61636e6f 6e65746e 00657461 7a007677     oncantenate.wv.z
   1f9d8:	00777879 6c696146 206f7420 646e6966     yxw.Fail to find
   1f9e8:	7473203b 72686372 46002928 20646e69     ; strchr().Find 
   1f9f8:	71696e75 63206575 3b726168 72747320     unique char; str
   1fa08:	28726863 69460029 6e20646e 752d6e6f     chr().Find non-u
   1fa18:	7571696e 68632065 203b7261 63727473     nique char; strc
   1fa28:	29287268 6e694600 756e2064 63206c6c     hr().Find null c
   1fa38:	3b726168 72747320 28726863 61460029     har; strchr().Fa
   1fa48:	74206c69 6966206f 203b646e 72727473     il to find; strr
   1fa58:	28726863 69460029 7520646e 7571696e     chr().Find uniqu
   1fa68:	68632065 203b7261 72727473 28726863     e char; strrchr(
   1fa78:	69460029 6e20646e 752d6e6f 7571696e     ).Find non-uniqu
   1fa88:	68632065 203b7261 72727473 28726863     e char; strrchr(
   1fa98:	69460029 6e20646e 206c6c75 72616863     ).Find null char
   1faa8:	7473203b 68637272 00292872 69727453     ; strrchr().Stri
   1fab8:	7320676e 63726165 43420068 74530044     ng search.BCD.St
   1fac8:	676e6972 6c206e20 74676e65 32310068     ring n length.12
   1fad8:	00353433 6f6d654d 63207972 61706d6f     345.Memory compa
   1fae8:	6f697372 4544006e 65640046 654d0066     rsion.DEF.def.Me
   1faf8:	79726f6d 706f6320 47460079 004a4948     mory copy.FGHIJ.
   1fb08:	6f6d654d 63207972 61726168 72657463     Memory character
   1fb18:	61657320 00686372 6f6d654d 73207972      search.Memory s
   1fb28:	46007465 45444646 58595a00 005a5957     et.FFFDE.ZYXWYZ.
   1fb38:	64636261 42410065 45444342 41004142     abcde.ABBCDEBA.A
   1fb48:	45444342 63626100 00616264 6e676953     BCDE.abcdba.Sign
   1fb58:	66206c61 74737269 6d657320 6f687061     al first semapho
   1fb68:	203a6572 67695300 206c616e 6f636573     re: .Signal seco
   1fb78:	7320646e 70616d65 65726f68 0000203a     nd semaphore: ..

0001fb88 <devtab>:
	...
   1fb90:	0001e207 00012a38 00011c20 00011c20     ....8*.. ... ...
   1fba0:	00012ce8 00012dc4 00011c18 00012918     .,...-.......)..
   1fbb0:	00012cc0 00012864 e0000000 00012b40     .,..d(......@+..
   1fbc0:	0000001b 00000001 00000000 0001fcb4     ................
   1fbd0:	00011c20 00011c20 00011c20 00011c20      ... ... ... ...
   1fbe0:	00011c20 00011c18 00011c20 00011c20      ....... ... ...
   1fbf0:	00011c18 00000000 00011c18 00000000     ................
   1fc00:	00000002 00000000 0001fcbc 00012234     ............4"..
   1fc10:	00011fe0 00011f84 00012168 000120f4     ........h!... ..
   1fc20:	00011c18 00011eec 00012060 000121d4     ........` ...!..
   1fc30:	00000000 00011c18 00000000 00000003     ................
   1fc40:	00000000 0001fcc2 00012710 00012300     .........'...#..
   1fc50:	000126b8 000123dc 000127d8 00011c18     .&...#...'......
   1fc60:	000126f4 00012738 00012260 00000000     .&..8'..`"......
   1fc70:	00011c18 00000000 00000004 00000001     ................
   1fc80:	0001fcca 00012710 00012300 000126b8     .....'...#...&..
   1fc90:	000123dc 000127d8 00011c18 000126f4     .#...'.......&..
   1fca0:	00012738 00012260 00000000 00011c18     8'..`"..........
   1fcb0:	00000000 4e564544 004c4c55 504f4f4c     ....DEVNULL.LOOP
   1fcc0:	4f430030 4c4f534e 54540045 4f4f4c59     0.CONSOLE.TTYLOO
   1fcd0:	45280050 6465626d 20646564 756e6958     P.(Embedded Xinu
   1fce0:	61282029 712d6d72 29756d65 20372320     ) (arm-qemu) #7 
   1fcf0:	77737528 61645540 676e6179 4d2d7361     (usw@Udayangas-M
   1fd00:	6f426361 502d6b6f 6c2e6f72 6c61636f     acBook-Pro.local
   1fd10:	75542029 634f2065 34312074 3a333020     ) Tue Oct 14 03:
   1fd20:	313a3634 44452034 30322054 25003431     46:14 EDT 2014.%
   1fd30:	20643031 65747962 68702073 63697379     10d bytes physic
   1fd40:	6d206c61 726f6d65 0a0d2e79 30312500     al memory....%10
   1fd50:	79622064 20736574 65736572 64657672     d bytes reserved
   1fd60:	73797320 206d6574 61657261 000a0d2e      system area....
   1fd70:	64303125 74796220 58207365 20756e69     %10d bytes Xinu 
   1fd80:	65646f63 000a0d2e 64303125 74796220     code....%10d byt
   1fd90:	73207365 6b636174 61707320 0d2e6563     es stack space..
   1fda0:	3125000a 62206430 73657479 61656820     ..%10d bytes hea
   1fdb0:	70732070 2e656361 57000a0d 494e5241     p space....WARNI
   1fdc0:	203a474e 276e6143 706f2074 43206e65     NG: Can't open C
   1fdd0:	4f534e4f 6f20454c 20726576 49524553     ONSOLE over SERI
   1fde0:	0d304c41 4853000a 254c4c45 41570075     AL0...SHELL%u.WA
   1fdf0:	4e494e52 46203a47 656c6961 6f742064     RNING: Failed to
   1fe00:	65726320 20657461 20007325                        create %s.

0001fe0b <_ctype_>:
   1fe0b:	20202020 20202020 28282820 20202828              (((((  
   1fe1b:	20202020 20202020 20202020 20202020                     
   1fe2b:	10101008 10101010 10101010 10101010     ................
   1fe3b:	04040404 04040404 10100404 10101010     ................
   1fe4b:	41414110 01414141 01010101 01010101     .AAAAAA.........
   1fe5b:	01010101 01010101 10010101 10101010     ................
   1fe6b:	42424210 02424242 02020202 02020202     .BBBBBB.........
   1fe7b:	02020202 02020202 10020202 20101010     ............... 
	...

0001ff0b <digits_uc>:
   1ff0b:	33323130 37363534 42413938 46454443     0123456789ABCDEF

0001ff1b <digits_lc>:
   1ff1b:	33323130 37363534 62613938 66656463     0123456789abcdef

0001ff2b <base_to_nbits>:
   1ff2b:	00010000 00000002 00000003 00000000     ................
   1ff3b:	00000004                                         .
